 Login

 Timestamp is 52ed19b6 (Sat Feb 01 10:58:46 2014)

 Preferred load address is 00400000

 Start         Length     Name                   Class
 0001:00000000 000323e0H .text                   CODE
 0001:000323e0 0000144fH .text$x                 CODE
 0001:00033830 0000029cH .text$yc                CODE
 0001:00033ad0 0000013dH .text$yd                CODE
 0002:00000000 00000214H .idata$5                DATA
 0002:00000214 00000004H .CRT$XCA                DATA
 0002:00000218 0000002cH .CRT$XCC                DATA
 0002:00000244 00000008H .CRT$XCL                DATA
 0002:0000024c 00000034H .CRT$XCU                DATA
 0002:00000280 00000004H .CRT$XCZ                DATA
 0002:00000284 00000004H .CRT$XIA                DATA
 0002:00000288 00000010H .CRT$XIC                DATA
 0002:00000298 00000004H .CRT$XID                DATA
 0002:0000029c 00000004H .CRT$XIY                DATA
 0002:000002a0 00000004H .CRT$XIZ                DATA
 0002:000002a4 00000004H .CRT$XPA                DATA
 0002:000002a8 00000008H .CRT$XPX                DATA
 0002:000002b0 00000004H .CRT$XPXA               DATA
 0002:000002b4 00000004H .CRT$XPZ                DATA
 0002:000002b8 00000004H .CRT$XTA                DATA
 0002:000002bc 00000004H .CRT$XTZ                DATA
 0002:000002c0 00008db0H .rdata                  DATA
 0002:00009070 00000adcH .rdata$r                DATA
 0002:00009b50 00000140H .rdata$sxdata           DATA
 0002:00009c90 00000004H .rtc$IAA                DATA
 0002:00009c94 00000004H .rtc$IZZ                DATA
 0002:00009c98 00000004H .rtc$TAA                DATA
 0002:00009c9c 00000004H .rtc$TZZ                DATA
 0002:00009ca0 00001c9cH .xdata$x                DATA
 0002:0000b93c 00000050H .idata$2                DATA
 0002:0000b98c 00000014H .idata$3                DATA
 0002:0000b9a0 00000214H .idata$4                DATA
 0002:0000bbb4 000007ecH .idata$6                DATA
 0002:0000c3a0 00000000H .edata                  DATA
 0003:00000000 00002204H .data                   DATA
 0003:00002220 0001ce78H .bss                    DATA

  Address         Publics by Value              Rva+Base       Lib:Object

 0000:00000000       __except_list              00000000     <absolute>
 0000:00000050       ___safe_se_handler_count   00000050     <absolute>
 0000:00000000       ___ImageBase               00400000     <linker-defined>
 0001:00000000       ??1failure@ios_base@std@@UAE@XZ 00401000 f i client.obj
 0001:00000000       ??1runtime_error@std@@UAE@XZ 00401000 f i client.obj
 0001:00000010       ??Bid@locale@std@@QAEIXZ   00401010 f i client.obj
 0001:00000050       ?_Incref@facet@locale@std@@QAEXXZ 00401050 f i client.obj
 0001:00000080       ?_Decref@facet@locale@std@@QAEPAV123@XZ 00401080 f i client.obj
 0001:000000c0       ??1facet@locale@std@@UAE@XZ 004010c0 f i client.obj
 0001:000000d0       ??1locale@std@@QAE@XZ      004010d0 f i client.obj
 0001:00000120       ?_Getfacet@locale@std@@QBEPBVfacet@12@I@Z 00401120 f i client.obj
 0001:00000160       ??_G?$num_put@DV?$ostreambuf_iterator@DU?$char_traits@D@std@@@std@@@std@@MAEPAXI@Z 00401160 f i client.obj
 0001:00000160       ??_Efacet@locale@std@@UAEPAXI@Z 00401160 f i client.obj
 0001:00000160       ??_E?$num_put@DV?$ostreambuf_iterator@DU?$char_traits@D@std@@@std@@@std@@MAEPAXI@Z 00401160 f i client.obj
 0001:00000160       ??_Gfacet@locale@std@@UAEPAXI@Z 00401160 f i client.obj
 0001:00000190       ?getloc@ios_base@std@@QBE?AVlocale@2@XZ 00401190 f i client.obj
 0001:000001d0       ??0APPLAYER@@QAE@GI@Z      004011d0 f i client.obj
 0001:00000220       ??1APPLAYER@@QAE@XZ        00401220 f i client.obj
 0001:00000240       ??0ServerPacket@@QAE@GI@Z  00401240 f i client.obj
 0001:00000290       ??0Client@@QAE@PAVEQNetworkConnection@@@Z 00401290 f   client.obj
 0001:00000370       ??1_Sentry_base@?$basic_ostream@DU?$char_traits@D@std@@@std@@QAE@XZ 00401370 f i client.obj
 0001:00000390       ??_G?$ListElement@PAVClient@@@@QAEPAXI@Z 00401390 f i client.obj
 0001:000003c0       ??_Gsystem_error@std@@UAEPAXI@Z 004013c0 f i client.obj
 0001:000003c0       ??_Esystem_error@std@@UAEPAXI@Z 004013c0 f i client.obj
 0001:000003c0       ??_Efailure@ios_base@std@@UAEPAXI@Z 004013c0 f i client.obj
 0001:000003c0       ??_Gruntime_error@std@@UAEPAXI@Z 004013c0 f i client.obj
 0001:000003c0       ??_Gfailure@ios_base@std@@UAEPAXI@Z 004013c0 f i client.obj
 0001:000003c0       ??_Eruntime_error@std@@UAEPAXI@Z 004013c0 f i client.obj
 0001:000003f0       ?clear@ios_base@std@@QAEXH_N@Z 004013f0 f i client.obj
 0001:000004d0       ??0runtime_error@std@@QAE@ABV01@@Z 004014d0 f i client.obj
 0001:000004f0       ??0system_error@std@@QAE@ABV01@@Z 004014f0 f i client.obj
 0001:00000520       ??0failure@ios_base@std@@QAE@ABV012@@Z 00401520 f i client.obj
 0001:00000550       ??1?$_Yarn@D@std@@QAE@XZ   00401550 f i client.obj
 0001:00000570       ??1bad_alloc@std@@UAE@XZ   00401570 f i client.obj
 0001:00000580       ??_Gbad_alloc@std@@UAEPAXI@Z 00401580 f i client.obj
 0001:00000580       ??_Ebad_alloc@std@@UAEPAXI@Z 00401580 f i client.obj
 0001:000005b0       ?_Ifmt@?$num_put@DV?$ostreambuf_iterator@DU?$char_traits@D@std@@@std@@@std@@ABAPADPADPBDH@Z 004015b0 f i client.obj
 0001:00000640       ?_Tidy@?$numpunct@D@std@@AAEXXZ 00401640 f i client.obj
 0001:00000670       ?_Chassign@?$basic_string@DU?$char_traits@D@std@@V?$allocator@D@2@@std@@QAEXIID@Z 00401670 f i client.obj
 0001:000006b0       ??0bad_alloc@std@@QAE@ABV01@@Z 004016b0 f i client.obj
 0001:000006d0       ?erase@?$basic_string@DU?$char_traits@D@std@@V?$allocator@D@2@@std@@QAEAAV12@II@Z 004016d0 f i client.obj
 0001:00000760       ?allocate@?$allocator@D@std@@QAEPADI@Z 00401760 f i client.obj
 0001:000007b0       ?_Init@?$numpunct@D@std@@IAEXABV_Locinfo@2@_N@Z 004017b0 f i client.obj
 0001:000008f0       ??0_Locinfo@std@@QAE@PBD@Z 004018f0 f i client.obj
 0001:000009a0       ??1_Locinfo@std@@QAE@XZ    004019a0 f i client.obj
 0001:00000a50       ?Add@ClientList@@QAEXPAVClient@@@Z 00401a50 f   client.obj
 0001:00000a90       ?_Tidy@?$basic_string@DU?$char_traits@D@std@@V?$allocator@D@2@@std@@QAEX_NI@Z 00401a90 f i client.obj
 0001:00000ae0       ?_Putc@?$num_put@DV?$ostreambuf_iterator@DU?$char_traits@D@std@@@std@@@std@@ABA?AV?$ostreambuf_iterator@DU?$char_traits@D@std@@@2@V32@PBDI@Z 00401ae0 f i client.obj
 0001:00000ae0       ?_Put@?$num_put@DV?$ostreambuf_iterator@DU?$char_traits@D@std@@@std@@@std@@ABA?AV?$ostreambuf_iterator@DU?$char_traits@D@std@@@2@V32@PBDI@Z 00401ae0 f i client.obj
 0001:00000b50       ?_Rep@?$num_put@DV?$ostreambuf_iterator@DU?$char_traits@D@std@@@std@@@std@@ABA?AV?$ostreambuf_iterator@DU?$char_traits@D@std@@@2@V32@DI@Z 00401b50 f i client.obj
 0001:00000bc0       ?_Putgrouped@?$num_put@DV?$ostreambuf_iterator@DU?$char_traits@D@std@@@std@@@std@@ABA?AV?$ostreambuf_iterator@DU?$char_traits@D@std@@@2@V32@PBDID@Z 00401bc0 f i client.obj
 0001:00000c60       ?_Copy@?$basic_string@DU?$char_traits@D@std@@V?$allocator@D@2@@std@@QAEXII@Z 00401c60 f i client.obj
 0001:00000dd0       ?_Getcat@?$num_put@DV?$ostreambuf_iterator@DU?$char_traits@D@std@@@std@@@std@@SAIPAPBVfacet@locale@2@PBV42@@Z 00401dd0 f i client.obj
 0001:00000e90       ?do_decimal_point@?$numpunct@D@std@@MBEDXZ 00401e90 f i client.obj
 0001:00000ea0       ?do_thousands_sep@?$numpunct@D@std@@MBEDXZ 00401ea0 f i client.obj
 0001:00000eb0       ??_G?$numpunct@D@std@@MAEPAXI@Z 00401eb0 f i client.obj
 0001:00000eb0       ??_E?$numpunct@D@std@@MAEPAXI@Z 00401eb0 f i client.obj
 0001:00000f00       ??1?$ListElement@PAVClient@@@@QAE@XZ 00401f00 f i client.obj
 0001:00000f60       ?FindByLSID@ClientList@@QAEPAVClient@@I@Z 00401f60 f   client.obj
 0001:00000fe0       ??1?$basic_string@DU?$char_traits@D@std@@V?$allocator@D@2@@std@@QAE@XZ 00401fe0 f i client.obj
 0001:00001010       ?flush@?$basic_ostream@DU?$char_traits@D@std@@@std@@QAEAAV12@XZ 00402010 f i client.obj
 0001:00001060       ?_Osfx@?$basic_ostream@DU?$char_traits@D@std@@@std@@QAEXXZ 00402060 f i client.obj
 0001:000010c0       ?falsename@?$numpunct@D@std@@QBE?AV?$basic_string@DU?$char_traits@D@std@@V?$allocator@D@2@@2@XZ 004020c0 f i client.obj
 0001:000010e0       ?truename@?$numpunct@D@std@@QBE?AV?$basic_string@DU?$char_traits@D@std@@V?$allocator@D@2@@2@XZ 004020e0 f i client.obj
 0001:00001100       ?_Grow@?$basic_string@DU?$char_traits@D@std@@V?$allocator@D@2@@std@@QAE_NI_N@Z 00402100 f i client.obj
 0001:000011b0       ?grouping@?$numpunct@D@std@@QBE?AV?$basic_string@DU?$char_traits@D@std@@V?$allocator@D@2@@2@XZ 004021b0 f i client.obj
 0001:000011d0       ?append@?$basic_string@DU?$char_traits@D@std@@V?$allocator@D@2@@std@@QAEAAV12@ABV12@II@Z 004021d0 f i client.obj
 0001:000012c0       ??$use_facet@V?$num_put@DV?$ostreambuf_iterator@DU?$char_traits@D@std@@@std@@@std@@@std@@YAABV?$num_put@DV?$ostreambuf_iterator@DU?$char_traits@D@std@@@std@@@0@ABVlocale@0@@Z 004022c0 f i client.obj
 0001:00001400       ?_Getcat@?$numpunct@D@std@@SAIPAPBVfacet@locale@2@PBV42@@Z 00402400 f i client.obj
 0001:000014d0       ??1sentry@?$basic_ostream@DU?$char_traits@D@std@@@std@@QAE@XZ 004024d0 f i client.obj
 0001:00001540       ?append@?$basic_string@DU?$char_traits@D@std@@V?$allocator@D@2@@std@@QAEAAV12@PBDI@Z 00402540 f i client.obj
 0001:00001660       ?append@?$basic_string@DU?$char_traits@D@std@@V?$allocator@D@2@@std@@QAEAAV12@ID@Z 00402660 f i client.obj
 0001:00001710       ?assign@?$basic_string@DU?$char_traits@D@std@@V?$allocator@D@2@@std@@QAEAAV12@ABV12@II@Z 00402710 f i client.obj
 0001:00001800       ?insert@?$basic_string@DU?$char_traits@D@std@@V?$allocator@D@2@@std@@QAEAAV12@IID@Z 00402800 f i client.obj
 0001:00001900       ??$?6U?$char_traits@D@std@@@std@@YAAAV?$basic_ostream@DU?$char_traits@D@std@@@0@AAV10@PBD@Z 00402900 f i client.obj
 0001:00001bc0       ??$use_facet@V?$numpunct@D@std@@@std@@YAABV?$numpunct@D@0@ABVlocale@0@@Z 00402bc0 f i client.obj
 0001:00001d00       ??6?$basic_ostream@DU?$char_traits@D@std@@@std@@QAEAAV01@G@Z 00402d00 f i client.obj
 0001:00001ef0       ??6?$basic_ostream@DU?$char_traits@D@std@@@std@@QAEAAV01@I@Z 00402ef0 f i client.obj
 0001:000020e0       ?put@?$basic_ostream@DU?$char_traits@D@std@@@std@@QAEAAV12@D@Z 004030e0 f i client.obj
 0001:00002260       ?assign@?$basic_string@DU?$char_traits@D@std@@V?$allocator@D@2@@std@@QAEAAV12@PBDI@Z 00403260 f i client.obj
 0001:00002360       ?_Fput@?$num_put@DV?$ostreambuf_iterator@DU?$char_traits@D@std@@@std@@@std@@ABA?AV?$ostreambuf_iterator@DU?$char_traits@D@std@@@2@V32@AAVios_base@2@DPBDIIII@Z 00403360 f i client.obj
 0001:000028d0       ?_Iput@?$num_put@DV?$ostreambuf_iterator@DU?$char_traits@D@std@@@std@@@std@@ABA?AV?$ostreambuf_iterator@DU?$char_traits@D@std@@@2@V32@AAVios_base@2@DPADI@Z 004038d0 f i client.obj
 0001:00002b60       ?endl@std@@YAAAV?$basic_ostream@DU?$char_traits@D@std@@@1@AAV21@@Z 00403b60 f i client.obj
 0001:00002bc0       ?QueuePacket@Client@@QAEXPAVAPPLAYER@@@Z 00403bc0 f   client.obj
 0001:00002cb0       ?FastQueuePacket@Client@@QAEXPAPAVAPPLAYER@@@Z 00403cb0 f   client.obj
 0001:00002da0       ?FatalError@Client@@QAEXPBD_N@Z 00403da0 f   client.obj
 0001:00002ee0       ?do_put@?$num_put@DV?$ostreambuf_iterator@DU?$char_traits@D@std@@@std@@@std@@MBE?AV?$ostreambuf_iterator@DU?$char_traits@D@std@@@2@V32@AAVios_base@2@DJ@Z 00403ee0 f i client.obj
 0001:00002f60       ?do_put@?$num_put@DV?$ostreambuf_iterator@DU?$char_traits@D@std@@@std@@@std@@MBE?AV?$ostreambuf_iterator@DU?$char_traits@D@std@@@2@V32@AAVios_base@2@DK@Z 00403f60 f i client.obj
 0001:00002fe0       ?do_put@?$num_put@DV?$ostreambuf_iterator@DU?$char_traits@D@std@@@std@@@std@@MBE?AV?$ostreambuf_iterator@DU?$char_traits@D@std@@@2@V32@AAVios_base@2@D_J@Z 00403fe0 f i client.obj
 0001:00003060       ?do_put@?$num_put@DV?$ostreambuf_iterator@DU?$char_traits@D@std@@@std@@@std@@MBE?AV?$ostreambuf_iterator@DU?$char_traits@D@std@@@2@V32@AAVios_base@2@D_K@Z 00404060 f i client.obj
 0001:000030e0       ?do_put@?$num_put@DV?$ostreambuf_iterator@DU?$char_traits@D@std@@@std@@@std@@MBE?AV?$ostreambuf_iterator@DU?$char_traits@D@std@@@2@V32@AAVios_base@2@DN@Z 004040e0 f i client.obj
 0001:000032f0       ?do_put@?$num_put@DV?$ostreambuf_iterator@DU?$char_traits@D@std@@@std@@@std@@MBE?AV?$ostreambuf_iterator@DU?$char_traits@D@std@@@2@V32@AAVios_base@2@DO@Z 004042f0 f i client.obj
 0001:000034f0       ?do_put@?$num_put@DV?$ostreambuf_iterator@DU?$char_traits@D@std@@@std@@@std@@MBE?AV?$ostreambuf_iterator@DU?$char_traits@D@std@@@2@V32@AAVios_base@2@DPBX@Z 004044f0 f i client.obj
 0001:00003550       ?assign@?$basic_string@DU?$char_traits@D@std@@V?$allocator@D@2@@std@@QAEAAV12@$$QAV12@@Z 00404550 f i client.obj
 0001:000035d0       ?WorldResponse@Client@@QAEXIC@Z 004045d0 f   client.obj
 0001:00003880       ??0?$basic_string@DU?$char_traits@D@std@@V?$allocator@D@2@@std@@QAE@PBD@Z 00404880 f i client.obj
 0001:000038c0       ?do_put@?$num_put@DV?$ostreambuf_iterator@DU?$char_traits@D@std@@@std@@@std@@MBE?AV?$ostreambuf_iterator@DU?$char_traits@D@std@@@2@V32@AAVios_base@2@D_N@Z 004048c0 f i client.obj
 0001:00003ae0       ?do_grouping@?$numpunct@D@std@@MBE?AV?$basic_string@DU?$char_traits@D@std@@V?$allocator@D@2@@2@XZ 00404ae0 f i client.obj
 0001:00003b30       ?do_falsename@?$numpunct@D@std@@MBE?AV?$basic_string@DU?$char_traits@D@std@@V?$allocator@D@2@@2@XZ 00404b30 f i client.obj
 0001:00003b80       ?do_truename@?$numpunct@D@std@@MBE?AV?$basic_string@DU?$char_traits@D@std@@V?$allocator@D@2@@2@XZ 00404b80 f i client.obj
 0001:00003bd0       ?Process@Client@@QAE_NXZ   00404bd0 f   client.obj
 0001:00004930       ?Process@ClientList@@QAEXXZ 00405930 f   client.obj
 0001:00004a40       ??0EQCrypto@@QAE@XZ        00405a40 f   EQCrypto.obj
 0001:00004a60       ?DoEQDecrypt@EQCrypto@@QAEXPBEPAEH@Z 00405a60 f   EQCrypto.obj
 0001:00004ab0       ?compare@?$char_traits@D@std@@SAHPBD0I@Z 00405ab0 f i logindatabase.obj
 0001:00004b30       ?UpdateWorldName@Database@@QAE_NIPBD@Z 00405b30 f   logindatabase.obj
 0001:00004c40       ?InsertStats@Database@@QAE_NIII@Z 00405c40 f   logindatabase.obj
 0001:00004cf0       ?GetLSLoginInfo@Database@@QAEIPAD0PAEPAHPA_NPAF@Z 00405cf0 f   logindatabase.obj
 0001:00004f60       ?GetLSAccountInfo@Database@@QAE_NIPADPAEPAHPA_NPAF@Z 00405f60 f   logindatabase.obj
 0001:00005130       ?CheckWorldAuth@Database@@QAECPBD0PAI1PA_N2@Z 00406130 f   logindatabase.obj
 0001:00005380       ?AccountLoggedIn@Database@@QAE_NI@Z 00406380 f   logindatabase.obj
 0001:000054b0       ?CountUsers@Database@@QAEIPAD@Z 004064b0 f   logindatabase.obj
 0001:000055a0       ?CheckEQLogin@Database@@QAEIPBVAPPLAYER@@PADPAEPAHPA_NPAFI@Z 004065a0 f   logindatabase.obj
 0001:00005850       ??0LWorld@@QAE@PAVTCPConnection@@_NIG1@Z 00406850 f   LWorld.obj
 0001:00005a00       ??0LWorld@@QAE@IPAD0I_N@Z  00406a00 f   LWorld.obj
 0001:00005b20       ??0LWorld@@QAE@PAVTCPConnection@@IIIPAD11HI_N2E2I@Z 00406b20 f   LWorld.obj
 0001:00005c50       ?SendPacket@LWorld@@QAEXPAVServerPacket@@@Z 00406c50 f   LWorld.obj
 0001:00005d60       ?Message@LWorld@@QAAXPAD0ZZ 00406d60 f   LWorld.obj
 0001:00005e90       ?Kick@LWorld@@QAEXPAD_N@Z  00406e90 f   LWorld.obj
 0001:00005fa0       ?CheckServerName@LWorld@@SA_NPAD@Z 00406fa0 f   LWorld.obj
 0001:00006060       ?SetRemoteInfo@LWorld@@QAEXIIPAD00IIEHH@Z 00407060 f   LWorld.obj
 0001:000060f0       ?Advance@?$LinkedListIterator@PAVLWorld@@@@QAEXXZ 004070f0 f i LWorld.obj
 0001:000060f0       ?Advance@?$LinkedListIterator@PAVEQNetworkPacket@@@@QAEXXZ 004070f0 f i EQNetwork.obj
 0001:000060f0       ?Advance@?$LinkedListIterator@PAVEQNetworkConnection@@@@QAEXXZ 004070f0 f i EQNetwork.obj
 0001:00006140       ??_G?$ListElement@PAVLWorld@@@@QAEPAXI@Z 00407140 f i LWorld.obj
 0001:00006190       ??_G?$ListElement@PAUPeerInfo@LWorldList@@@@QAEPAXI@Z 00407190 f i LWorld.obj
 0001:000061e0       ?Clear@?$LinkedList@PAVLWorld@@@@QAEXXZ 004071e0 f i LWorld.obj
 0001:00006250       ?Clear@?$LinkedList@PAUPeerInfo@LWorldList@@@@QAEXXZ 00407250 f i LWorld.obj
 0001:000062a0       ?Add@LWorldList@@QAEXPAVLWorld@@@Z 004072a0 f   LWorld.obj
 0001:000062e0       ??1?$LinkedList@PAVLWorld@@@@QAE@XZ 004072e0 f i LWorld.obj
 0001:000062f0       ??1?$LinkedList@PAUPeerInfo@LWorldList@@@@QAE@XZ 004072f0 f i LWorld.obj
 0001:00006300       ?Append@?$LinkedList@PAVEQNetworkConnection@@@@QAEXABQAVEQNetworkConnection@@@Z 00407300 f i EQNetwork.obj
 0001:00006300       ?Append@?$LinkedList@PAVTCPConnection@@@@QAEXABQAVTCPConnection@@@Z 00407300 f i TCPConnection.obj
 0001:00006300       ?Append@?$LinkedList@PAVEQNetworkPacket@@@@QAEXABQAVEQNetworkPacket@@@Z 00407300 f i EQNetwork.obj
 0001:00006300       ?Append@?$LinkedList@PAUPeerInfo@LWorldList@@@@QAEXABQAUPeerInfo@LWorldList@@@Z 00407300 f i LWorld.obj
 0001:00006370       ?RemoveCurrent@?$LinkedListIterator@PAVLWorld@@@@QAEX_N@Z 00407370 f i LWorld.obj
 0001:00006430       ?RemoveCurrent@?$LinkedListIterator@PAUPeerInfo@LWorldList@@@@QAEX_N@Z 00407430 f i LWorld.obj
 0001:000064d0       ??0LWorldList@@QAE@XZ      004074d0 f   LWorld.obj
 0001:000065c0       ??1LWorldList@@QAE@XZ      004075c0 f   LWorld.obj
 0001:00006650       ?Shutdown@LWorldList@@QAEXXZ 00407650 f   LWorld.obj
 0001:000066a0       ?SendPacket@LWorldList@@QAEXPAVServerPacket@@PAVLWorld@@@Z 004076a0 f   LWorld.obj
 0001:00006820       ?SendPacketLocal@LWorldList@@QAEXPAVServerPacket@@PAVLWorld@@@Z 00407820 f   LWorld.obj
 0001:000068a0       ?SendPacketLogin@LWorldList@@QAEXPAVServerPacket@@PAVLWorld@@@Z 004078a0 f   LWorld.obj
 0001:00006920       ?FindByID@LWorldList@@QAEPAVLWorld@@I@Z 00407920 f   LWorld.obj
 0001:000069a0       ?FindByAddress@LWorldList@@QAEPAVLWorld@@PAD@Z 004079a0 f   LWorld.obj
 0001:00006a30       ?FindByLink@LWorldList@@QAEPAVLWorld@@PAVTCPConnection@@I@Z 00407a30 f   LWorld.obj
 0001:00006ad0       ?FindByAccount@LWorldList@@QAEPAVLWorld@@IW4ConType@@@Z 00407ad0 f   LWorld.obj
 0001:00006b70       ?MakeServerListPacket@LWorldList@@QAEXPAVAPPLAYER@@E@Z 00407b70 f   LWorld.obj
 0001:00006e20       ?SendWorldStatus@LWorldList@@QAEXPAVLWorld@@PAD@Z 00407e20 f   LWorld.obj
 0001:00006f70       ?RemoveByLink@LWorldList@@QAEXPAVTCPConnection@@IPAVLWorld@@@Z 00407f70 f   LWorld.obj
 0001:00007010       ?RemoveByID@LWorldList@@QAEXI@Z 00408010 f   LWorld.obj
 0001:00007090       ?AddPeer@LWorldList@@QAEXPAVLWorld@@@Z 00408090 f   LWorld.obj
 0001:000070e0       ?RemovePeer@LWorldList@@QAEXPAVLWorld@@@Z 004080e0 f   LWorld.obj
 0001:00007160       ?ConnectPeer@LWorldList@@QAECPAVLWorld@@@Z 00408160 f   LWorld.obj
 0001:00007230       ?WriteXML@LWorldList@@QAE_NXZ 00408230 f   LWorld.obj
 0001:000072c0       ??1LWorld@@QAE@XZ          004082c0 f   LWorld.obj
 0001:00007410       ?UpdateWorldList@LWorld@@QAEXPAV1@@Z 00408410 f   LWorld.obj
 0001:000075d0       ?UpdateWorldList@LWorldList@@QAEXPAVLWorld@@@Z 004085d0 f   LWorld.obj
 0001:00007650       ?UpdateStatus@LWorld@@QAEXHHH@Z 00408650 f i LWorld.obj
 0001:00007680       ??6?$basic_ostream@DU?$char_traits@D@std@@@std@@QAEAAV01@H@Z 00408680 f i LWorld.obj
 0001:00007870       ?KickGhostIP@LWorldList@@QAEXIPAVLWorld@@G@Z 00408870 f   LWorld.obj
 0001:00007ab0       ?KickGhost@LWorldList@@QAEXW4ConType@@IPAVLWorld@@@Z 00408ab0 f   LWorld.obj
 0001:00007c10       ?ConnectUplink@LWorldList@@QAEXXZ 00408c10 f   LWorld.obj
 0001:00007f70       ?AddPeer@LWorldList@@QAEXIG_N@Z 00408f70 f   LWorld.obj
 0001:00008180       ?AddPeer@LWorldList@@QAEXPAD_N@Z 00409180 f   LWorld.obj
 0001:00008260       ?ListWorldsToConsole@LWorldList@@QAEXXZ 00409260 f   LWorld.obj
 0001:00008710       ?LoadWorldList@Database@@QAEXXZ 00409710 f   LWorld.obj
 0001:00008950       ?SetupWorld@LWorld@@QAE_NPAD0000@Z 00409950 f   LWorld.obj
 0001:00008b20       ?SetupChat@LWorld@@QAE_NPAD0@Z 00409b20 f   LWorld.obj
 0001:00008c40       ?SetupLogin@LWorld@@QAE_NPAD00@Z 00409c40 f   LWorld.obj
 0001:00008e20       ?Init@LWorldList@@QAE_NXZ  00409e20 f   LWorld.obj
 0001:00008e80       ?Process@LWorld@@QAE_NXZ   00409e80 f   LWorld.obj
 0001:0000a020       ?Process@LWorldList@@QAEXXZ 0040b020 f   LWorld.obj
 0001:0000a300       ?IsNumber@Seperator@@SA_NPBD@Z 0040b300 f i net.obj
 0001:0000a370       ??0NetConnection@@QAE@XZ   0040b370 f i net.obj
 0001:0000a3f0       ?HitKey@NetConnection@@QAEXH@Z 0040b3f0 f   net.obj
 0001:0000a4a0       ?Clear@?$LinkedList@PAVClient@@@@QAEXXZ 0040b4a0 f i net.obj
 0001:0000a4e0       ?CatchSignal@@YAXH@Z       0040b4e0 f   net.obj
 0001:0000a520       ?ReadLoginConfig@NetConnection@@QAE_NXZ 0040b520 f   net.obj
 0001:0000aa20       _main                      0040ba20 f   net.obj
 0001:0000aca0       ?Generate@CRC32@@SAIPBEI@Z 0040bca0 f   crc32.obj
 0001:0000acf0       ?HandleMysqlError@Database@@SAXI@Z 0040bcf0 f   database.obj
 0001:0000ad40       ?InitVars@Database@@AAEXXZ 0040bd40 f   database.obj
 0001:0000ae00       ??1Database@@QAE@XZ        0040be00 f   database.obj
 0001:0000b150       ?LoadVariables_result@Database@@QAE_NPAUst_mysql_res@@@Z 0040c150 f   database.obj
 0001:0000b420       ?GetVariable@Database@@QAE_NPBDPADG@Z 0040c420 f   database.obj
 0001:0000b520       ??0Database@@QAE@XZ        0040c520 f   database.obj
 0001:0000b920       ?LoadVariables@Database@@QAE_NXZ 0040c920 f   database.obj
 0001:0000ba70       ??0DBcore@@QAE@XZ          0040ca70 f   dbcore.obj
 0001:0000bab0       ??1DBcore@@QAE@XZ          0040cab0 f   dbcore.obj
 0001:0000bb30       ?ping@DBcore@@QAEXXZ       0040cb30 f   dbcore.obj
 0001:0000bb60       ?DoEscapeString@DBcore@@QAEIPADPBDI@Z 0040cb60 f   dbcore.obj
 0001:0000bba0       ?Open@DBcore@@AAE_NPAIPAD@Z 0040cba0 f   dbcore.obj
 0001:0000bcf0       ?Open@DBcore@@IAE_NPBD000PAIPAD_N3@Z 0040ccf0 f   dbcore.obj
 0001:0000bec0       ?RunQuery@DBcore@@QAE_NPBDIPADPAPAUst_mysql_res@@PAI33_N@Z 0040cec0 f   dbcore.obj
 0001:0000c120       ??0EQEMuLog@@QAE@XZ        0040d120 f   debug.obj
 0001:0000c200       ??1EQEMuLog@@QAE@XZ        0040d200 f   debug.obj
 0001:0000c2b0       ?open@EQEMuLog@@AAE_NW4LogIDs@1@@Z 0040d2b0 f   debug.obj
 0001:0000c420       ?write@EQEMuLog@@QAA_NW4LogIDs@1@PBDZZ 0040d420 f   debug.obj
 0001:0000c5b0       ?Copy@APPLAYER@@QBEPAV1@XZ 0040d5b0 f i EQNetwork.obj
 0001:0000c680       ?CheckActive@EQNetworkConnection@@QAE_NXZ 0040d680 f   EQNetwork.obj
 0001:0000c6b0       ?ReturnPacket@EQNetworkPacket@@QAEIPAPAE@Z 0040d6b0 f   EQNetwork.obj
 0001:0000c850       ??0EQNetworkFragmentGroup@@QAE@GG@Z 0040d850 f   EQNetwork.obj
 0001:0000c950       ??1EQNetworkFragmentGroup@@UAE@XZ 0040d950 f   EQNetwork.obj
 0001:0000c9b0       ?Assemble@EQNetworkFragmentGroup@@QAEIPAPAE@Z 0040d9b0 f   EQNetwork.obj
 0001:0000ca50       ?clear@?$MyQueue@VAPPLAYER@@@@QAEXXZ 0040da50 f i EQNetwork.obj
 0001:0000caa0       ??_G?$ListElement@PAVEQNetworkFragmentGroup@@@@QAEPAXI@Z 0040daa0 f i EQNetwork.obj
 0001:0000caa0       ??_G?$ListElement@PAVEQNetworkPacket@@@@QAEPAXI@Z 0040daa0 f i EQNetwork.obj
 0001:0000caa0       ??_G?$ListElement@PAVEQNetworkConnection@@@@QAEPAXI@Z 0040daa0 f i EQNetwork.obj
 0001:0000caa0       ??_G?$ListElement@PAVTCPConnection@@@@QAEPAXI@Z 0040daa0 f i TCPConnection.obj
 0001:0000cad0       ??1?$ListElement@PAVTCPConnection@@@@QAE@XZ 0040dad0 f i TCPConnection.obj
 0001:0000cad0       ??1?$ListElement@PAVEQNetworkConnection@@@@QAE@XZ 0040dad0 f i EQNetwork.obj
 0001:0000cad0       ??1?$ListElement@PAVEQNetworkFragmentGroup@@@@QAE@XZ 0040dad0 f i EQNetwork.obj
 0001:0000cad0       ??1?$ListElement@PAVEQNetworkPacket@@@@QAE@XZ 0040dad0 f i EQNetwork.obj
 0001:0000cb10       ?NewQueuePop@EQNetworkServer@@QAEPAVEQNetworkConnection@@XZ 0040db10 f   EQNetwork.obj
 0001:0000cb70       ?PopPacket@EQNetworkConnection@@QAEPAVAPPLAYER@@XZ 0040db70 f   EQNetwork.obj
 0001:0000cbd0       ??0EQNetworkPacket@@QAE@PAVEQNetworkConnection@@@Z 0040dbd0 f   EQNetwork.obj
 0001:0000cc20       ??_EEQNetworkPacket@@UAEPAXI@Z 0040dc20 f i EQNetwork.obj
 0001:0000cc20       ??_GEQNetworkPacket@@UAEPAXI@Z 0040dc20 f i EQNetwork.obj
 0001:0000cc60       ??_EEQNetworkFragmentGroup@@UAEPAXI@Z 0040dc60 f i EQNetwork.obj
 0001:0000cc60       ??_GEQNetworkFragmentGroup@@UAEPAXI@Z 0040dc60 f i EQNetwork.obj
 0001:0000cc90       ??1?$MyQueue@VAPPLAYER@@@@QAE@XZ 0040dc90 f i EQNetwork.obj
 0001:0000cca0       ??1?$LinkedList@PAVEQNetworkFragmentGroup@@@@QAE@XZ 0040dca0 f i EQNetwork.obj
 0001:0000cca0       ??1?$LinkedList@PAVEQNetworkPacket@@@@QAE@XZ 0040dca0 f i EQNetwork.obj
 0001:0000ccb0       ?RemoveCurrent@?$LinkedListIterator@PAVEQNetworkFragmentGroup@@@@QAEX_N@Z 0040dcb0 f i EQNetwork.obj
 0001:0000ccb0       ?RemoveCurrent@?$LinkedListIterator@PAVEQNetworkPacket@@@@QAEX_N@Z 0040dcb0 f i EQNetwork.obj
 0001:0000cd50       ??0EQNetworkServer@@QAE@G@Z 0040dd50 f   EQNetwork.obj
 0001:0000ce20       ?Close@EQNetworkConnection@@QAEXXZ 0040de20 f   EQNetwork.obj
 0001:0000cea0       ??1EQNetworkFragmentGroupList@@UAE@XZ 0040dea0 f   EQNetwork.obj
 0001:0000ced0       ??1EQNetworkServer@@UAE@XZ 0040ded0 f   EQNetwork.obj
 0001:0000d000       ??0EQNetworkConnection@@QAE@IG@Z 0040e000 f   EQNetwork.obj
 0001:0000d220       ?Free@EQNetworkConnection@@QAEXXZ 0040e220 f   EQNetwork.obj
 0001:0000d260       ?IncomingARSP@EQNetworkConnection@@AAEXG@Z 0040e260 f   EQNetwork.obj
 0001:0000d350       ?MakeEQPacket@EQNetworkConnection@@AAEXPAVAPPLAYER@@_N@Z 0040e350 f   EQNetwork.obj
 0001:0000d680       ??_GEQNetworkFragmentGroupList@@UAEPAXI@Z 0040e680 f i EQNetwork.obj
 0001:0000d680       ??_EEQNetworkFragmentGroupList@@UAEPAXI@Z 0040e680 f i EQNetwork.obj
 0001:0000d6c0       ?CheckTimers@EQNetworkFragmentGroupList@@QAEXXZ 0040e6c0 f   EQNetwork.obj
 0001:0000d7c0       ?GotPacket@EQNetworkFragmentGroupList@@QAEPAVEQNetworkFragmentGroup@@PAVEQNetworkPacket@@@Z 0040e7c0 f   EQNetwork.obj
 0001:0000d970       ?DeleteGroup@EQNetworkFragmentGroupList@@QAEXG@Z 0040e970 f   EQNetwork.obj
 0001:0000da00       ??_GEQNetworkServer@@UAEPAXI@Z 0040ea00 f i EQNetwork.obj
 0001:0000da00       ??_EEQNetworkServer@@UAEPAXI@Z 0040ea00 f i EQNetwork.obj
 0001:0000da30       ?Process@EQNetworkConnection@@IAEXI@Z 0040ea30 f   EQNetwork.obj
 0001:0000dda0       ?QueuePacket@EQNetworkConnection@@QAEXPBVAPPLAYER@@_N@Z 0040eda0 f   EQNetwork.obj
 0001:0000deb0       ?FastQueuePacket@EQNetworkConnection@@QAEXPAPAVAPPLAYER@@_N@Z 0040eeb0 f   EQNetwork.obj
 0001:0000dff0       ?CloseSock@EQNetworkConnection@@QAEXXZ 0040eff0 f   EQNetwork.obj
 0001:0000e1d0       ?ProcessPacket@EQNetworkConnection@@AAE_NPAVEQNetworkPacket@@_N@Z 0040f1d0 f   EQNetwork.obj
 0001:0000e4a0       ?CheckBufferedPackets@EQNetworkConnection@@AAEXXZ 0040f4a0 f   EQNetwork.obj
 0001:0000e620       ?DecodePacket@EQNetworkPacket@@QAE_NPAEI@Z 0040f620 f   EQNetwork.obj
 0001:0000e790       ??1EQNetworkConnection@@UAE@XZ 0040f790 f   EQNetwork.obj
 0001:0000e9c0       ?RecvData@EQNetworkConnection@@QAEXPAEI@Z 0040f9c0 f   EQNetwork.obj
 0001:0000ed10       ?RecvData@EQNetworkServer@@AAEXPAEIIG@Z 0040fd10 f   EQNetwork.obj
 0001:0000ee60       ??_GEQNetworkConnection@@UAEPAXI@Z 0040fe60 f i EQNetwork.obj
 0001:0000ee60       ??_EEQNetworkConnection@@UAEPAXI@Z 0040fe60 f i EQNetwork.obj
 0001:0000ee90       ?EQNetworkServerLoop@@YAXPAX@Z 0040fe90 f   EQNetwork.obj
 0001:0000f130       ?Open@EQNetworkServer@@QAE_NG@Z 00410130 f   EQNetwork.obj
 0001:0000f2a0       ??BMD5@@QAEPBDXZ           004102a0 f   md5.obj
 0001:0000f310       ?byteSwap@MD5@@CAXPAII@Z   00410310 f   md5.obj
 0001:0000f350       ?Transform@MD5@@CAXQAIQBI@Z 00410350 f   md5.obj
 0001:0000f9e0       ?Update@MD5@@SAXPAUMD5Context@1@PBEI@Z 004109e0 f   md5.obj
 0001:0000fad0       ?Final@MD5@@SAXQAEPAUMD5Context@1@@Z 00410ad0 f   md5.obj
 0001:0000fb90       ??0MD5@@QAE@PBDI@Z         00410b90 f   md5.obj
 0001:0000fc00       ??0Seperator@@QAE@PBDDGG_NDD1@Z 00410c00 f i MiscFunctions.obj
 0001:0000fe70       ??1Seperator@@QAE@XZ       00410e70 f i MiscFunctions.obj
 0001:0000feb0       ?strn0cpy@@YAPADPADPBDI@Z  00410eb0 f   MiscFunctions.obj
 0001:0000fef0       ?MakeAnyLenString@@YAHPAPADPBDZZ 00410ef0 f   MiscFunctions.obj
 0001:0000ff50       ?atobool@@YA_NPAD@Z        00410f50 f   MiscFunctions.obj
 0001:00010060       ??0InitWinsock@@QAE@XZ     00411060 f   MiscFunctions.obj
 0001:000100a0       ??1InitWinsock@@QAE@XZ     004110a0 f   MiscFunctions.obj
 0001:000100b0       ?ResolveIP@@YAIPBDPAD@Z    004110b0 f   MiscFunctions.obj
 0001:000101a0       ?ParseAddress@@YA_NPBDPAIPAGPAD@Z 004111a0 f   MiscFunctions.obj
 0001:00010230       ?IsTryLockSupported@@YA_NXZ 00411230 f   Mutex.obj
 0001:000102d0       ??0Mutex@@QAE@XZ           004112d0 f   Mutex.obj
 0001:000102e0       ??1Mutex@@QAE@XZ           004112e0 f   Mutex.obj
 0001:000102f0       ?lock@Mutex@@QAEXXZ        004112f0 f   Mutex.obj
 0001:00010300       ?trylock@Mutex@@QAE_NXZ    00411300 f   Mutex.obj
 0001:00010320       ?unlock@Mutex@@QAEXXZ      00411320 f   Mutex.obj
 0001:00010330       ??0LockMutex@@QAE@PAVMutex@@_N@Z 00411330 f   Mutex.obj
 0001:00010360       ??1LockMutex@@QAE@XZ       00411360 f   Mutex.obj
 0001:00010370       ?DumpPacketHex@@YAXPBEIII@Z 00411370 f   packet_dump.obj
 0001:00010590       ?DumpPacket@@YAXPBEI@Z     00411590 f   packet_dump.obj
 0001:000105b0       ?DumpPacket@@YAXPBVAPPLAYER@@_N@Z 004115b0 f   packet_dump.obj
 0001:00010690       ?DumpPacket@@YAXPBVServerPacket@@_N@Z 00411690 f   packet_dump.obj
 0001:00010770       ?InflatePacket@@YAIPAEI0I_N@Z 00411770 f   packet_functions.obj
 0001:00010890       ?MakePacket@TCPConnection@@SAPAUTCPNetPacket_Struct@1@PBVServerPacket@@I@Z 00411890 f   TCPConnection.obj
 0001:00010910       ?MakeOldPacket@TCPConnection@@SAPAUSPackSendQueue@@PBVServerPacket@@@Z 00411910 f   TCPConnection.obj
 0001:00010960       ?SetState@TCPConnection@@IAEXE@Z 00411960 f   TCPConnection.obj
 0001:00010990       ?GetState@TCPConnection@@UAEEXZ 00411990 f   TCPConnection.obj
 0001:000109c0       ?ServerSendQueuePushEnd@TCPConnection@@AAEXPBEH@Z 004119c0 f   TCPConnection.obj
 0001:00010a90       ?ServerSendQueuePushEnd@TCPConnection@@AAEXPAPAEH@Z 00411a90 f   TCPConnection.obj
 0001:00010b80       ?ServerSendQueuePushFront@TCPConnection@@AAEXPBEH@Z 00411b80 f   TCPConnection.obj
 0001:00010c50       ?SetAsyncConnect@TCPConnection@@IAE_N_N@Z 00411c50 f   TCPConnection.obj
 0001:00010c80       ?SetEcho@TCPConnection@@QAEX_N@Z 00411c80 f   TCPConnection.obj
 0001:00010cb0       ?SendNetErrorPacket@TCPConnection@@AAEXPBD@Z 00411cb0 f   TCPConnection.obj
 0001:00010da0       ?RemoveRelay@TCPConnection@@IAEXPAV1@_N@Z 00411da0 f   TCPConnection.obj
 0001:00010e80       ?Open@TCPServer@@QAE_NGPAD@Z 00411e80 f   TCPConnection.obj
 0001:00011060       ?IsOpen@TCPServer@@QAE_NXZ 00412060 f   TCPConnection.obj
 0001:00011090       ?clear@?$MyQueue@VServerPacket@@@@QAEXXZ 00412090 f i TCPConnection.obj
 0001:000110e0       ?Clear@?$LinkedList@PAVEQNetworkFragmentGroup@@@@QAEXXZ 004120e0 f i EQNetwork.obj
 0001:000110e0       ?Clear@?$LinkedList@PAVEQNetworkConnection@@@@QAEXXZ 004120e0 f i EQNetwork.obj
 0001:000110e0       ?Clear@?$LinkedList@PAVTCPConnection@@@@QAEXXZ 004120e0 f i TCPConnection.obj
 0001:000110e0       ?Clear@?$LinkedList@PAVEQNetworkPacket@@@@QAEXXZ 004120e0 f i EQNetwork.obj
 0001:00011120       ?PopPacket@TCPConnection@@QAEPAVServerPacket@@XZ 00412120 f   TCPConnection.obj
 0001:00011190       ?ClearBuffers@TCPConnection@@AAEXXZ 00412190 f   TCPConnection.obj
 0001:00011360       ?NewQueuePop@TCPServer@@QAEPAVTCPConnection@@XZ 00412360 f   TCPConnection.obj
 0001:000113c0       ?push@?$MyQueue@VAPPLAYER@@@@QAEXPAVAPPLAYER@@@Z 004123c0 f i EQNetwork.obj
 0001:000113c0       ?push@?$MyQueue@VTCPConnection@@@@QAEXPAVTCPConnection@@@Z 004123c0 f i TCPConnection.obj
 0001:000113c0       ?push@?$MyQueue@UInQueue_Struct@@@@QAEXPAUInQueue_Struct@@@Z 004123c0 f i EQNetwork.obj
 0001:000113c0       ?push@?$MyQueue@UTCPNetPacket_Struct@TCPConnection@@@@QAEXPAUTCPNetPacket_Struct@TCPConnection@@@Z 004123c0 f i TCPConnection.obj
 0001:000113c0       ?push@?$MyQueue@VServerPacket@@@@QAEXPAVServerPacket@@@Z 004123c0 f i TCPConnection.obj
 0001:000113c0       ?push@?$MyQueue@VEQNetworkConnection@@@@QAEXPAVEQNetworkConnection@@@Z 004123c0 f i EQNetwork.obj
 0001:000113c0       ?push@?$MyQueue@D@@QAEXPAD@Z 004123c0 f i TCPConnection.obj
 0001:00011440       ??1?$MyQueue@VServerPacket@@@@QAE@XZ 00412440 f i TCPConnection.obj
 0001:00011450       ??1?$MyQueue@UInQueue_Struct@@@@QAE@XZ 00412450 f i EQNetwork.obj
 0001:00011450       ??1?$MyQueue@D@@QAE@XZ     00412450 f i TCPConnection.obj
 0001:00011450       ??1?$MyQueue@UTCPNetPacket_Struct@TCPConnection@@@@QAE@XZ 00412450 f i TCPConnection.obj
 0001:00011480       ??1?$MyQueue@VTCPConnection@@@@QAE@XZ 00412480 f i TCPConnection.obj
 0001:00011480       ??1?$MyQueue@VEQNetworkConnection@@@@QAE@XZ 00412480 f i EQNetwork.obj
 0001:000114b0       ??0TCPConnection@@QAE@_NPAVTCPServer@@W4eTCPMode@@@Z 004124b0 f   TCPConnection.obj
 0001:00011640       ??0TCPConnection@@QAE@PAVTCPServer@@IIG_N@Z 00412640 f   TCPConnection.obj
 0001:000117e0       ?InModeQueuePush@TCPConnection@@AAEXPAUTCPNetPacket_Struct@1@@Z 004127e0 f   TCPConnection.obj
 0001:00011820       ?LineOutQueuePush@TCPConnection@@AAEXPAD@Z 00412820 f   TCPConnection.obj
 0001:00011940       ?ProcessReceivedDataAsOldPackets@TCPConnection@@AAE_NPAD@Z 00412940 f   TCPConnection.obj
 0001:00011b40       ?Reset@?$LinkedListIterator@PAVLWorld@@@@QAEXXZ 00412b40 f i LWorld.obj
 0001:00011b40       ?Reset@?$LinkedListIterator@PAVEQNetworkFragmentGroup@@@@QAEXXZ 00412b40 f i EQNetwork.obj
 0001:00011b40       ?Reset@?$LinkedListIterator@PAVTCPConnection@@@@QAEXXZ 00412b40 f i TCPConnection.obj
 0001:00011b40       ?Reset@?$LinkedListIterator@PAUPeerInfo@LWorldList@@@@QAEXXZ 00412b40 f i LWorld.obj
 0001:00011b40       ?Reset@?$LinkedListIterator@PAVEQNetworkConnection@@@@QAEXXZ 00412b40 f i EQNetwork.obj
 0001:00011b40       ?Reset@?$LinkedListIterator@PAVClient@@@@QAEXXZ 00412b40 f i client.obj
 0001:00011b40       ?Reset@?$LinkedListIterator@PAVEQNetworkPacket@@@@QAEXXZ 00412b40 f i EQNetwork.obj
 0001:00011bc0       ?SendPacket@TCPConnection@@UAE_NPBVServerPacket@@I@Z 00412bc0 f   TCPConnection.obj
 0001:00011d00       ?SendPacket@TCPConnection@@UAE_NPBUTCPNetPacket_Struct@1@@Z 00412d00 f   TCPConnection.obj
 0001:00011e00       ??1TCPServer@@UAE@XZ       00412e00 f   TCPConnection.obj
 0001:00011f60       ?AddConnection@TCPServer@@IAEXPAVTCPConnection@@@Z 00412f60 f   TCPConnection.obj
 0001:00011fa0       ?GetConnection@TCPServer@@IAEPAVTCPConnection@@I@Z 00412fa0 f   TCPConnection.obj
 0001:00012020       ?CheckInQueue@TCPServer@@AAEXXZ 00413020 f   TCPConnection.obj
 0001:00012100       ??_GTCPServer@@UAEPAXI@Z   00413100 f i TCPConnection.obj
 0001:00012100       ??_ETCPServer@@UAEPAXI@Z   00413100 f i TCPConnection.obj
 0001:00012130       ?ListenNewConnections@TCPServer@@AAEXXZ 00413130 f   TCPConnection.obj
 0001:000122f0       ?Process@TCPServer@@IAEXXZ 004132f0 f   TCPConnection.obj
 0001:00012430       ??0TCPConnection@@QAE@PAVTCPServer@@PAV0@IIG@Z 00413430 f   TCPConnection.obj
 0001:00012610       ?Free@TCPConnection@@QAEXXZ 00413610 f   TCPConnection.obj
 0001:000126d0       ?Connect@TCPConnection@@QAE_NIGPAD@Z 004136d0 f   TCPConnection.obj
 0001:000129f0       ?ProcessNetworkLayerPacket@TCPConnection@@AAEXPAVServerPacket@@@Z 004139f0 f   TCPConnection.obj
 0001:00012c50       ?SendData@TCPConnection@@AAE_NPAD@Z 00413c50 f   TCPConnection.obj
 0001:00012ea0       ?TCPServerLoop@@YAXPAX@Z   00413ea0 f   TCPConnection.obj
 0001:00012fb0       ?Disconnect@TCPConnection@@UAEX_N@Z 00413fb0 f   TCPConnection.obj
 0001:00013070       ?ProcessReceivedDataAsPackets@TCPConnection@@AAE_NPAD@Z 00414070 f   TCPConnection.obj
 0001:00013320       ?TCPConnectionLoop@@YAXPAX@Z 00414320 f   TCPConnection.obj
 0001:000134d0       ??0TCPServer@@QAE@G_N@Z    004144d0 f   TCPConnection.obj
 0001:000135b0       ??1TCPConnection@@UAE@XZ   004145b0 f   TCPConnection.obj
 0001:00013790       ?AsyncConnect@TCPConnection@@QAEXIG@Z 00414790 f   TCPConnection.obj
 0001:000138c0       ?ProcessReceivedData@TCPConnection@@AAE_NPAD@Z 004148c0 f   TCPConnection.obj
 0001:00013bf0       ??_GTCPConnection@@UAEPAXI@Z 00414bf0 f i TCPConnection.obj
 0001:00013bf0       ??_ETCPConnection@@UAEPAXI@Z 00414bf0 f i TCPConnection.obj
 0001:00013c20       ?RecvData@TCPConnection@@AAE_NPAD@Z 00414c20 f   TCPConnection.obj
 0001:00013dc0       ?Process@TCPConnection@@MAE_NXZ 00414dc0 f   TCPConnection.obj
 0001:00013f70       ??0Timer@@QAE@I_N@Z        00414f70 f   timer.obj
 0001:00013fa0       ?gettimeofday@@YAHPAUtimeval@@ZZ 00414fa0 f   timer.obj
 0001:00013ff0       ?Check@Timer@@QAE_N_N@Z    00414ff0 f   timer.obj
 0001:00014050       ?Disable@Timer@@QAEXXZ     00415050 f   timer.obj
 0001:00014060       ?Start@Timer@@QAEXI_N@Z    00415060 f   timer.obj
 0001:00014090       ?Trigger@Timer@@QAEXXZ     00415090 f   timer.obj
 0001:000140b0       ?GetTickCount@Timer@@SAABIXZ 004150b0 f   timer.obj
 0001:000140c0       ?SetCurrentTime@Timer@@SAABIXZ 004150c0 f   timer.obj
 0001:00014122       _ntohs@4                   00415122 f   wsock32:WSOCK32.dll
 0001:00014128       _inet_ntoa@4               00415128 f   wsock32:WSOCK32.dll
 0001:0001412e       _htonl@4                   0041512e f   wsock32:WSOCK32.dll
 0001:00014134       _closesocket@4             00415134 f   wsock32:WSOCK32.dll
 0001:0001413a       _WSAStartup@8              0041513a f   wsock32:WSOCK32.dll
 0001:00014140       _WSACleanup@0              00415140 f   wsock32:WSOCK32.dll
 0001:00014146       _sendto@24                 00415146 f   wsock32:WSOCK32.dll
 0001:0001414c       _ntohl@4                   0041514c f   wsock32:WSOCK32.dll
 0001:00014152       _recv@16                   00415152 f   wsock32:WSOCK32.dll
 0001:00014158       _recvfrom@24               00415158 f   wsock32:WSOCK32.dll
 0001:0001415e       _ioctlsocket@12            0041515e f   wsock32:WSOCK32.dll
 0001:00014164       _connect@12                00415164 f   wsock32:WSOCK32.dll
 0001:0001416a       _socket@12                 0041516a f   wsock32:WSOCK32.dll
 0001:00014170       _htons@4                   00415170 f   wsock32:WSOCK32.dll
 0001:00014176       _bind@12                   00415176 f   wsock32:WSOCK32.dll
 0001:0001417c       _setsockopt@20             0041517c f   wsock32:WSOCK32.dll
 0001:00014182       _WSAGetLastError@0         00415182 f   wsock32:WSOCK32.dll
 0001:00014188       _gethostbyname@4           00415188 f   wsock32:WSOCK32.dll
 0001:0001418e       _listen@8                  0041518e f   wsock32:WSOCK32.dll
 0001:00014194       _accept@12                 00415194 f   wsock32:WSOCK32.dll
 0001:0001419a       _send@16                   0041519a f   wsock32:WSOCK32.dll
 0001:000141a0       _shutdown@8                004151a0 f   wsock32:WSOCK32.dll
 0001:000141a6       _mysql_free_result@4       004151a6 f   libmysql:LIBMYSQL.dll
 0001:000141ac       _mysql_fetch_row@4         004151ac f   libmysql:LIBMYSQL.dll
 0001:000141b2       _mysql_num_rows@4          004151b2 f   libmysql:LIBMYSQL.dll
 0001:000141b8       _mysql_init@4              004151b8 f   libmysql:LIBMYSQL.dll
 0001:000141be       _mysql_close@4             004151be f   libmysql:LIBMYSQL.dll
 0001:000141c4       _mysql_ping@4              004151c4 f   libmysql:LIBMYSQL.dll
 0001:000141ca       _mysql_real_escape_string@16 004151ca f   libmysql:LIBMYSQL.dll
 0001:000141d0       _mysql_error@4             004151d0 f   libmysql:LIBMYSQL.dll
 0001:000141d6       _mysql_errno@4             004151d6 f   libmysql:LIBMYSQL.dll
 0001:000141dc       _mysql_real_connect@32     004151dc f   libmysql:LIBMYSQL.dll
 0001:000141e2       _mysql_insert_id@4         004151e2 f   libmysql:LIBMYSQL.dll
 0001:000141e8       _mysql_affected_rows@4     004151e8 f   libmysql:LIBMYSQL.dll
 0001:000141ee       _mysql_store_result@4      004151ee f   libmysql:LIBMYSQL.dll
 0001:000141f4       _mysql_field_count@4       004151f4 f   libmysql:LIBMYSQL.dll
 0001:000141fa       _mysql_real_query@12       004151fa f   libmysql:LIBMYSQL.dll
 0001:00014e40       _inflateReset              00415e40 f   zlib:inflate.obj
 0001:00014ea0       _inflateInit2_             00415ea0 f   zlib:inflate.obj
 0001:00015080       _inflate                   00416080 f   zlib:inflate.obj
 0001:00016670       _inflateEnd                00417670 f   zlib:inflate.obj
 0001:000166c0       _adler32                   004176c0 f   zlib:adler32.obj
 0001:00017e60       __tr_stored_block          00418e60 f   zlib:trees.obj
 0001:00017f00       __tr_flush_block           00418f00 f   zlib:trees.obj
 0001:000183b0       _crc32                     004193b0 f   zlib:crc32.obj
 0001:000183d0       _zcalloc                   004193d0 f   zlib:zutil.obj
 0001:000183f0       _zcfree                    004193f0 f   zlib:zutil.obj
 0001:00018400       _inflate_fast              00419400 f   zlib:inffast.obj
 0001:000188c0       _inflate_table             004198c0 f   zlib:inftrees.obj
 0001:00018dae       _DES_key_sched             00419dae f   libeay32:LIBEAY32.dll
 0001:00018db4       _DES_ncbc_encrypt          00419db4 f   libeay32:LIBEAY32.dll
 0001:00018dba       __Getcvt                   00419dba f   libcpmt:xwctomb.obj
 0001:00018dd0       ??0_Init_locks@std@@QAE@XZ 00419dd0 f   libcpmt:xlock.obj
 0001:00018e01       ??1_Init_locks@std@@QAE@XZ 00419e01 f   libcpmt:xlock.obj
 0001:00018e2a       ??0_Lockit@std@@QAE@H@Z    00419e2a f   libcpmt:xlock.obj
 0001:00018e52       ??1_Lockit@std@@QAE@XZ     00419e52 f   libcpmt:xlock.obj
 0001:00018e69       ??1_Fac_node@std@@QAE@XZ   00419e69 f i libcpmt:locale0.obj
 0001:00018e7e       ?_Facet_Register@facet@locale@std@@CAXPAV123@@Z 00419e7e f   libcpmt:locale0.obj
 0001:00018ea8       __Deletegloballocale       00419ea8 f   libcpmt:locale0.obj
 0001:00018ef5       ?_Getgloballocale@locale@std@@CAPAV_Locimp@12@XZ 00419ef5 f   libcpmt:locale0.obj
 0001:00018efb       ?_Setgloballocale@locale@std@@CAXPAX@Z 00419efb f   libcpmt:locale0.obj
 0001:00018f25       ?_Locimp_dtor@_Locimp@locale@std@@CAXPAV123@@Z 00419f25 f   libcpmt:locale0.obj
 0001:00018f85       ??1_Fac_tidy_reg_t@std@@QAE@XZ 00419f85 f i libcpmt:locale0.obj
 0001:00018fd3       ?_Locinfo_dtor@_Locinfo@std@@SAXPAV12@@Z 00419fd3 f   libcpmt:locale0.obj
 0001:00018fee       ??4?$_Yarn@D@std@@QAEAAV01@PBD@Z 00419fee f i libcpmt:locale0.obj
 0001:00019046       ?_Locinfo_ctor@_Locinfo@std@@SAXPAV12@PBD@Z 0041a046 f   libcpmt:locale0.obj
 0001:00019093       ??0_Locimp@locale@std@@AAE@_N@Z 0041a093 f i libcpmt:locale0.obj
 0001:000190d2       ??1_Locimp@locale@std@@MAE@XZ 0041a0d2 f i libcpmt:locale0.obj
 0001:00019115       ??_E_Locimp@locale@std@@MAEPAXI@Z 0041a115 f i libcpmt:locale0.obj
 0001:00019115       ??_G_Locimp@locale@std@@MAEPAXI@Z 0041a115 f i libcpmt:locale0.obj
 0001:00019136       ?_Init@locale@std@@CAPAV_Locimp@12@XZ 0041a136 f   libcpmt:locale0.obj
 0001:000191c5       ??8error_condition@std@@QBE_NABV01@@Z 0041a1c5 f i libcpmt:syserror.obj
 0001:000191e6       ?default_error_condition@error_category@std@@UBE?AVerror_condition@2@H@Z 0041a1e6 f i libcpmt:syserror.obj
 0001:000191e6       ?default_error_condition@_System_error_category@std@@UBE?AVerror_condition@2@H@Z 0041a1e6 f i libcpmt:syserror.obj
 0001:000191fa       ?equivalent@error_category@std@@UBE_NHABVerror_condition@2@@Z 0041a1fa f i libcpmt:syserror.obj
 0001:0001921b       ?equivalent@error_category@std@@UBE_NABVerror_code@2@H@Z 0041a21b f i libcpmt:syserror.obj
 0001:0001923a       ?name@_Iostream_error_category@std@@UBEPBDXZ 0041a23a f i libcpmt:syserror.obj
 0001:0001923a       ?name@_Generic_error_category@std@@UBEPBDXZ 0041a23a f i libcpmt:syserror.obj
 0001:0001923e       ?name@_System_error_category@std@@UBEPBDXZ 0041a23e f i libcpmt:syserror.obj
 0001:00019242       ?iostream_category@std@@YAABVerror_category@1@XZ 0041a242 f   libcpmt:syserror.obj
 0001:00019248       ??_G_System_error_category@std@@UAEPAXI@Z 0041a248 f i libcpmt:syserror.obj
 0001:00019248       ??_Eerror_category@std@@UAEPAXI@Z 0041a248 f i libcpmt:syserror.obj
 0001:00019248       ??_E_Iostream_error_category@std@@UAEPAXI@Z 0041a248 f i libcpmt:syserror.obj
 0001:00019248       ??_Gerror_category@std@@UAEPAXI@Z 0041a248 f i libcpmt:syserror.obj
 0001:00019248       ??_G_Generic_error_category@std@@UAEPAXI@Z 0041a248 f i libcpmt:syserror.obj
 0001:00019248       ??_G_Iostream_error_category@std@@UAEPAXI@Z 0041a248 f i libcpmt:syserror.obj
 0001:00019248       ??_E_Generic_error_category@std@@UAEPAXI@Z 0041a248 f i libcpmt:syserror.obj
 0001:00019248       ??_E_System_error_category@std@@UAEPAXI@Z 0041a248 f i libcpmt:syserror.obj
 0001:0001926a       ?message@_Generic_error_category@std@@UBE?AV?$basic_string@DU?$char_traits@D@std@@V?$allocator@D@2@@2@H@Z 0041a26a f i libcpmt:syserror.obj
 0001:0001928d       ?message@_Iostream_error_category@std@@UBE?AV?$basic_string@DU?$char_traits@D@std@@V?$allocator@D@2@@2@H@Z 0041a28d f i libcpmt:syserror.obj
 0001:000192bd       ??_U@YAPAXI@Z              0041a2bd f   libcpmt:newaop.obj
 0001:000192c8       ??1out_of_range@std@@UAE@XZ 0041a2c8 f i libcpmt:xthrow.obj
 0001:000192c8       ??1length_error@std@@UAE@XZ 0041a2c8 f i libcpmt:xthrow.obj
 0001:000192cd       ??0logic_error@std@@QAE@ABV01@@Z 0041a2cd f i libcpmt:xthrow.obj
 0001:000192ea       ?_Xlength_error@std@@YAXPBD@Z 0041a2ea f   libcpmt:xthrow.obj
 0001:0001931a       ??0length_error@std@@QAE@ABV01@@Z 0041a31a f i libcpmt:xthrow.obj
 0001:00019337       ?_Xout_of_range@std@@YAXPBD@Z 0041a337 f   libcpmt:xthrow.obj
 0001:00019367       ??0out_of_range@std@@QAE@ABV01@@Z 0041a367 f i libcpmt:xthrow.obj
 0001:00019384       ??_Glogic_error@std@@UAEPAXI@Z 0041a384 f i libcpmt:xthrow.obj
 0001:00019384       ??_Gout_of_range@std@@UAEPAXI@Z 0041a384 f i libcpmt:xthrow.obj
 0001:00019384       ??_Glength_error@std@@UAEPAXI@Z 0041a384 f i libcpmt:xthrow.obj
 0001:00019384       ??_Eout_of_range@std@@UAEPAXI@Z 0041a384 f i libcpmt:xthrow.obj
 0001:00019384       ??_Elength_error@std@@UAEPAXI@Z 0041a384 f i libcpmt:xthrow.obj
 0001:00019384       ??_Elogic_error@std@@UAEPAXI@Z 0041a384 f i libcpmt:xthrow.obj
 0001:000193a5       ?uncaught_exception@std@@YA_NXZ 0041a3a5 f   libcpmt:uncaught.obj
 0001:000193c0       ?setw@std@@YA?AU?$_Smanip@_J@1@_J@Z 0041a3c0 f   libcpmt:iomanip.obj
 0001:000193dc       ??0locale@std@@QAE@XZ      0041a3dc f i libcpmt:cout.obj
 0001:000193f8       ??1?$basic_ios@DU?$char_traits@D@std@@@std@@UAE@XZ 0041a3f8 f i libcpmt:cout.obj
 0001:00019408       ??_Gios_base@std@@UAEPAXI@Z 0041a408 f i libcpmt:cout.obj
 0001:00019408       ??_Eios_base@std@@UAEPAXI@Z 0041a408 f i libcpmt:cout.obj
 0001:00019408       ??_G?$basic_ios@DU?$char_traits@D@std@@@std@@UAEPAXI@Z 0041a408 f i libcpmt:cout.obj
 0001:00019408       ??_E?$basic_ios@DU?$char_traits@D@std@@@std@@UAEPAXI@Z 0041a408 f i libcpmt:cout.obj
 0001:00019431       ??0?$ctype@D@std@@QAE@ABV_Locinfo@1@I@Z 0041a431 f i libcpmt:cout.obj
 0001:00019466       ?_Tidy@?$ctype@D@std@@IAEXXZ 0041a466 f i libcpmt:cout.obj
 0001:00019483       ?do_tolower@?$ctype@D@std@@MBEDD@Z 0041a483 f i libcpmt:cout.obj
 0001:0001949c       ?do_tolower@?$ctype@D@std@@MBEPBDPADPBD@Z 0041a49c f i libcpmt:cout.obj
 0001:000194ca       ?do_toupper@?$ctype@D@std@@MBEDD@Z 0041a4ca f i libcpmt:cout.obj
 0001:000194e3       ?do_toupper@?$ctype@D@std@@MBEPBDPADPBD@Z 0041a4e3 f i libcpmt:cout.obj
 0001:00019511       ?do_widen@?$ctype@D@std@@MBEDD@Z 0041a511 f i libcpmt:cout.obj
 0001:0001951d       ?do_widen@?$ctype@D@std@@MBEPBDPBD0PAD@Z 0041a51d f i libcpmt:cout.obj
 0001:0001953e       ?do_narrow@?$ctype@D@std@@MBEDDD@Z 0041a53e f i libcpmt:cout.obj
 0001:0001954a       ?do_narrow@?$ctype@D@std@@MBEPBDPBD0DPAD@Z 0041a54a f i libcpmt:cout.obj
 0001:0001956b       ??_G?$ctype@D@std@@MAEPAXI@Z 0041a56b f i libcpmt:cout.obj
 0001:0001956b       ??_E?$ctype@D@std@@MAEPAXI@Z 0041a56b f i libcpmt:cout.obj
 0001:00019598       ?_Init@ios_base@std@@IAEXXZ 0041a598 f i libcpmt:cout.obj
 0001:000195ea       ??_D?$basic_ostream@DU?$char_traits@D@std@@@std@@QAEXXZ 0041a5ea f i libcpmt:cout.obj
 0001:00019609       ??0_Init_cout@std@@QAE@XZ  0041a609 f i libcpmt:cout.obj
 0001:0001965e       ??1?$basic_streambuf@DU?$char_traits@D@std@@@std@@UAE@XZ 0041a65e f i libcpmt:cout.obj
 0001:00019689       ?_Lock@?$basic_streambuf@DU?$char_traits@D@std@@@std@@UAEXXZ 0041a689 f i libcpmt:cout.obj
 0001:00019691       ?_Unlock@?$basic_streambuf@DU?$char_traits@D@std@@@std@@UAEXXZ 0041a691 f i libcpmt:cout.obj
 0001:00019699       ?overflow@?$basic_streambuf@DU?$char_traits@D@std@@@std@@MAEHH@Z 0041a699 f i libcpmt:cout.obj
 0001:00019699       ?pbackfail@?$basic_streambuf@DU?$char_traits@D@std@@@std@@MAEHH@Z 0041a699 f i libcpmt:cout.obj
 0001:0001969f       ?showmanyc@?$basic_streambuf@DU?$char_traits@D@std@@@std@@MAE_JXZ 0041a69f f i libcpmt:cout.obj
 0001:000196a4       ?underflow@?$basic_streambuf@DU?$char_traits@D@std@@@std@@MAEHXZ 0041a6a4 f i libcpmt:cout.obj
 0001:000196a8       ?setbuf@?$basic_streambuf@DU?$char_traits@D@std@@@std@@MAEPAV12@PAD_J@Z 0041a6a8 f i libcpmt:cout.obj
 0001:000196ad       ?imbue@?$basic_streambuf@DU?$char_traits@D@std@@@std@@MAEXABVlocale@2@@Z 0041a6ad f i libcpmt:cout.obj
 0001:000196b0       ?uflow@?$basic_streambuf@DU?$char_traits@D@std@@@std@@MAEHXZ 0041a6b0 f i libcpmt:cout.obj
 0001:000196d7       ?xsgetn@?$basic_streambuf@DU?$char_traits@D@std@@@std@@MAE_JPAD_J@Z 0041a6d7 f i libcpmt:cout.obj
 0001:000197a0       ?xsputn@?$basic_streambuf@DU?$char_traits@D@std@@@std@@MAE_JPBD_J@Z 0041a7a0 f i libcpmt:cout.obj
 0001:0001986b       ?seekoff@?$basic_streambuf@DU?$char_traits@D@std@@@std@@MAE?AV?$fpos@H@2@_JHH@Z 0041a86b f i libcpmt:cout.obj
 0001:00019893       ?seekpos@?$basic_streambuf@DU?$char_traits@D@std@@@std@@MAE?AV?$fpos@H@2@V32@H@Z 0041a893 f i libcpmt:cout.obj
 0001:000198bb       ??_G?$basic_ostream@DU?$char_traits@D@std@@@std@@UAEPAXI@Z 0041a8bb f i libcpmt:cout.obj
 0001:000198bb       ??_E?$basic_ostream@DU?$char_traits@D@std@@@std@@UAEPAXI@Z 0041a8bb f i libcpmt:cout.obj
 0001:000198df       ??_E?$basic_streambuf@DU?$char_traits@D@std@@@std@@UAEPAXI@Z 0041a8df f i libcpmt:cout.obj
 0001:000198df       ??_G?$basic_streambuf@DU?$char_traits@D@std@@@std@@UAEPAXI@Z 0041a8df f i libcpmt:cout.obj
 0001:00019900       ?_Reset_back@?$basic_filebuf@DU?$char_traits@D@std@@@std@@AAEXXZ 0041a900 f i libcpmt:cout.obj
 0001:00019921       ?_Init@?$basic_streambuf@DU?$char_traits@D@std@@@std@@IAEXXZ 0041a921 f i libcpmt:cout.obj
 0001:00019963       ?_Getcat@?$ctype@D@std@@SAIPAPBVfacet@locale@2@PBV42@@Z 0041a963 f i libcpmt:cout.obj
 0001:000199dd       ??0?$basic_streambuf@DU?$char_traits@D@std@@@std@@IAE@XZ 0041a9dd f i libcpmt:cout.obj
 0001:00019a29       ?_Init@?$basic_filebuf@DU?$char_traits@D@std@@@std@@IAEXPAU_iobuf@@W4_Initfl@12@@Z 0041aa29 f i libcpmt:cout.obj
 0001:00019a77       ??$use_facet@V?$ctype@D@std@@@std@@YAABV?$ctype@D@0@ABVlocale@0@@Z 0041aa77 f i libcpmt:cout.obj
 0001:00019b14       ?do_always_noconv@codecvt_base@std@@MBE_NXZ 0041ab14 f i libcpmt:cout.obj
 0001:00019b17       ?do_max_length@codecvt_base@std@@MBEHXZ 0041ab17 f i libcpmt:cout.obj
 0001:00019b17       ?do_encoding@codecvt_base@std@@MBEHXZ 0041ab17 f i libcpmt:cout.obj
 0001:00019b1b       ??$_Fgetc@D@std@@YA_NAADPAU_iobuf@@@Z 0041ab1b f i libcpmt:cout.obj
 0001:00019b3b       ??$_Fputc@D@std@@YA_NDPAU_iobuf@@@Z 0041ab3b f i libcpmt:cout.obj
 0001:00019b59       ??$_Ungetc@D@std@@YA_NABDPAU_iobuf@@@Z 0041ab59 f i libcpmt:cout.obj
 0001:00019b79       ?_Lock@?$basic_filebuf@DU?$char_traits@D@std@@@std@@UAEXXZ 0041ab79 f i libcpmt:cout.obj
 0001:00019b88       ?_Unlock@?$basic_filebuf@DU?$char_traits@D@std@@@std@@UAEXXZ 0041ab88 f i libcpmt:cout.obj
 0001:00019b97       ?sync@?$basic_filebuf@DU?$char_traits@D@std@@@std@@MAEHXZ 0041ab97 f i libcpmt:cout.obj
 0001:00019bc4       ?underflow@?$basic_filebuf@DU?$char_traits@D@std@@@std@@MAEHXZ 0041abc4 f i libcpmt:cout.obj
 0001:00019c02       ?_Set_back@?$basic_filebuf@DU?$char_traits@D@std@@@std@@AAEXXZ 0041ac02 f i libcpmt:cout.obj
 0001:00019c36       ?do_out@?$codecvt@DDH@std@@MBEHAAHPBD1AAPBDPAD3AAPAD@Z 0041ac36 f i libcpmt:cout.obj
 0001:00019c36       ?do_in@?$codecvt@DDH@std@@MBEHAAHPBD1AAPBDPAD3AAPAD@Z 0041ac36 f i libcpmt:cout.obj
 0001:00019c52       ?do_unshift@?$codecvt@DDH@std@@MBEHAAHPAD1AAPAD@Z 0041ac52 f i libcpmt:cout.obj
 0001:00019c66       ?do_length@?$codecvt@DDH@std@@MBEHABHPBD1I@Z 0041ac66 f i libcpmt:cout.obj
 0001:00019c7d       ??_G?$codecvt@DDH@std@@MAEPAXI@Z 0041ac7d f i libcpmt:cout.obj
 0001:00019c7d       ??_E?$codecvt@DDH@std@@MAEPAXI@Z 0041ac7d f i libcpmt:cout.obj
 0001:00019c9f       ?pbackfail@?$basic_filebuf@DU?$char_traits@D@std@@@std@@MAEHH@Z 0041ac9f f i libcpmt:cout.obj
 0001:00019d24       ?_Initcvt@?$basic_filebuf@DU?$char_traits@D@std@@@std@@IAEXPBV?$codecvt@DDH@2@@Z 0041ad24 f i libcpmt:cout.obj
 0001:00019d51       ?_Getcat@?$codecvt@DDH@std@@SAIPAPBVfacet@locale@2@PBV42@@Z 0041ad51 f i libcpmt:cout.obj
 0001:00019dd0       ?setbuf@?$basic_filebuf@DU?$char_traits@D@std@@@std@@MAEPAV?$basic_streambuf@DU?$char_traits@D@std@@@2@PAD_J@Z 0041add0 f i libcpmt:cout.obj
 0001:00019e1c       ?widen@?$basic_ios@DU?$char_traits@D@std@@@std@@QBEDD@Z 0041ae1c f i libcpmt:cout.obj
 0001:00019e5c       ??$use_facet@V?$codecvt@DDH@std@@@std@@YAABV?$codecvt@DDH@0@ABVlocale@0@@Z 0041ae5c f i libcpmt:cout.obj
 0001:00019ef9       ?imbue@?$basic_filebuf@DU?$char_traits@D@std@@@std@@MAEXABVlocale@2@@Z 0041aef9 f i libcpmt:cout.obj
 0001:00019f17       ?init@?$basic_ios@DU?$char_traits@D@std@@@std@@IAEXPAV?$basic_streambuf@DU?$char_traits@D@std@@@2@_N@Z 0041af17 f i libcpmt:cout.obj
 0001:00019f62       ?assign@?$basic_string@DU?$char_traits@D@std@@V?$allocator@D@2@@std@@QAEAAV12@ID@Z 0041af62 f i libcpmt:cout.obj
 0001:00019fb1       ??0?$basic_ostream@DU?$char_traits@D@std@@@std@@QAE@PAV?$basic_streambuf@DU?$char_traits@D@std@@@1@_N@Z 0041afb1 f i libcpmt:cout.obj
 0001:0001a00b       ?uflow@?$basic_filebuf@DU?$char_traits@D@std@@@std@@MAEHXZ 0041b00b f i libcpmt:cout.obj
 0001:0001a17c       ?_Endwrite@?$basic_filebuf@DU?$char_traits@D@std@@@std@@IAE_NXZ 0041b17c f i libcpmt:cout.obj
 0001:0001a274       ?overflow@?$basic_filebuf@DU?$char_traits@D@std@@@std@@MAEHH@Z 0041b274 f i libcpmt:cout.obj
 0001:0001a3cf       ?seekoff@?$basic_filebuf@DU?$char_traits@D@std@@@std@@MAE?AV?$fpos@H@2@_JHH@Z 0041b3cf f i libcpmt:cout.obj
 0001:0001a487       ?seekpos@?$basic_filebuf@DU?$char_traits@D@std@@@std@@MAE?AV?$fpos@H@2@V32@H@Z 0041b487 f i libcpmt:cout.obj
 0001:0001a53f       ?close@?$basic_filebuf@DU?$char_traits@D@std@@@std@@QAEPAV12@XZ 0041b53f f i libcpmt:cout.obj
 0001:0001a58a       ??1?$basic_filebuf@DU?$char_traits@D@std@@@std@@UAE@XZ 0041b58a f i libcpmt:cout.obj
 0001:0001a5ce       ??_G?$basic_filebuf@DU?$char_traits@D@std@@@std@@UAEPAXI@Z 0041b5ce f i libcpmt:cout.obj
 0001:0001a5ce       ??_E?$basic_filebuf@DU?$char_traits@D@std@@@std@@UAEPAXI@Z 0041b5ce f i libcpmt:cout.obj
 0001:0001a5ef       ??0_Init_cerr@std@@QAE@XZ  0041b5ef f i libcpmt:cerr.obj
 0001:0001a675       __Mtxinit                  0041b675 f   libcpmt:xmtx.obj
 0001:0001a685       __Mtxdst                   0041b685 f   libcpmt:xmtx.obj
 0001:0001a695       __Mtxlock                  0041b695 f   libcpmt:xmtx.obj
 0001:0001a6a5       __Mtxunlock                0041b6a5 f   libcpmt:xmtx.obj
 0001:0001a6b5       ?_Atexit@@YAXP6AXXZ@Z      0041b6b5 f   libcpmt:iosptrs.obj
 0001:0001a6e7       ??1_Init_atexit@@QAE@XZ    0041b6e7 f i libcpmt:iosptrs.obj
 0001:0001a712       __Tolower                  0041b712 f   libcpmt:_tolower.obj
 0001:0001a81f       __Getctype                 0041b81f f   libcpmt:_tolower.obj
 0001:0001a87f       ?_Callfns@ios_base@std@@AAEXW4event@12@@Z 0041b87f f i libcpmt:ios.obj
 0001:0001a8a6       ?_Tidy@ios_base@std@@AAEXXZ 0041b8a6 f i libcpmt:ios.obj
 0001:0001a8ea       ?_Addstd@ios_base@std@@SAXPAV12@@Z 0041b8ea f   libcpmt:ios.obj
 0001:0001a93f       ?_Ios_base_dtor@ios_base@std@@CAXPAV12@@Z 0041b93f f   libcpmt:ios.obj
 0001:0001a97d       __Toupper                  0041b97d f   libcpmt:_toupper.obj
 0001:0001aa8f       ??0_Mutex@std@@QAE@XZ      0041ba8f f   libcpmt:xmutex.obj
 0001:0001aaa9       ??1_Mutex@std@@QAE@XZ      0041baa9 f   libcpmt:xmutex.obj
 0001:0001aac0       ?_Lock@_Mutex@std@@QAEXXZ  0041bac0 f   libcpmt:xmutex.obj
 0001:0001aac9       ?_Unlock@_Mutex@std@@QAEXXZ 0041bac9 f   libcpmt:xmutex.obj
 0001:0001aad2       ??0exception@std@@QAE@ABQBDH@Z 0041bad2 f   LIBCMT:stdexcpt.obj
 0001:0001aaef       ?what@exception@std@@UBEPBDXZ 0041baef f   LIBCMT:stdexcpt.obj
 0001:0001aafc       ?_Copy_str@exception@std@@AAEXPBD@Z 0041bafc f   LIBCMT:stdexcpt.obj
 0001:0001ab3c       ?_Tidy@exception@std@@AAEXXZ 0041bb3c f   LIBCMT:stdexcpt.obj
 0001:0001ab5a       ??0exception@std@@QAE@ABQBD@Z 0041bb5a f   LIBCMT:stdexcpt.obj
 0001:0001ab81       ??4exception@std@@QAEAAV01@ABV01@@Z 0041bb81 f   LIBCMT:stdexcpt.obj
 0001:0001abb6       ??0bad_cast@std@@QAE@PBD@Z 0041bbb6 f   LIBCMT:stdexcpt.obj
 0001:0001abd4       ??1bad_cast@std@@UAE@XZ    0041bbd4 f   LIBCMT:stdexcpt.obj
 0001:0001abd4       ??1exception@std@@UAE@XZ   0041bbd4 f   LIBCMT:stdexcpt.obj
 0001:0001abdf       ??0exception@std@@QAE@ABV01@@Z 0041bbdf f   LIBCMT:stdexcpt.obj
 0001:0001ac04       ??_Gexception@std@@UAEPAXI@Z 0041bc04 f i LIBCMT:stdexcpt.obj
 0001:0001ac04       ??_Ebad_cast@std@@UAEPAXI@Z 0041bc04 f i LIBCMT:stdexcpt.obj
 0001:0001ac04       ??_Gbad_cast@std@@UAEPAXI@Z 0041bc04 f i LIBCMT:stdexcpt.obj
 0001:0001ac04       ??_Eexception@std@@UAEPAXI@Z 0041bc04 f i LIBCMT:stdexcpt.obj
 0001:0001ac2b       ??0bad_cast@std@@QAE@ABV01@@Z 0041bc2b f   LIBCMT:stdexcpt.obj
 0001:0001ac48       ??1type_info@@UAE@XZ       0041bc48 f   LIBCMT:typinfo.obj
 0001:0001ac58       ??_Gtype_info@@UAEPAXI@Z   0041bc58 f i LIBCMT:typinfo.obj
 0001:0001ac58       ??_Etype_info@@UAEPAXI@Z   0041bc58 f i LIBCMT:typinfo.obj
 0001:0001ac79       ??8type_info@@QBE_NABV0@@Z 0041bc79 f   LIBCMT:typinfo.obj
 0001:0001ac99       ??3@YAXPAX@Z               0041bc99 f   LIBCMT:delete.obj
 0001:0001acb0       _memset                    0041bcb0 f   LIBCMT:memset.obj
 0001:0001ad2a       ??_V@YAXPAX@Z              0041bd2a f   LIBCMT:delete2.obj
 0001:0001ad35       ??2@YAPAXI@Z               0041bd35 f   LIBCMT:new.obj
 0001:0001adb5       ?_JumpToContinuation@@YGXPAXPAUEHRegistrationNode@@@Z 0041bdb5 f   LIBCMT:_trnsctrl_.obj
 0001:0001ade7       ?_CallMemberFunction0@@YGXPAX0@Z 0041bde7 f   LIBCMT:_trnsctrl_.obj
 0001:0001ade7       ?_CallMemberFunction2@@YGXPAX00H@Z 0041bde7 f   LIBCMT:_trnsctrl_.obj
 0001:0001ade7       ?_CallMemberFunction1@@YGXPAX00@Z 0041bde7 f   LIBCMT:_trnsctrl_.obj
 0001:0001adee       ?_UnwindNestedFrames@@YGXPAUEHRegistrationNode@@PAUEHExceptionRecord@@@Z 0041bdee f   LIBCMT:_trnsctrl_.obj
 0001:0001ae42       ___CxxFrameHandler3        0041be42 f   LIBCMT:_trnsctrl_.obj
 0001:0001aeab       ?_CallSETranslator@@YAHPAUEHExceptionRecord@@PAUEHRegistrationNode@@PAX2PBU_s_FuncInfo@@H1@Z 0041beab f   LIBCMT:_trnsctrl_.obj
 0001:0001b021       ?_GetRangeOfTrysToCheck@@YAPBU_s_TryBlockMapEntry@@PBU_s_FuncInfo@@HHPAI1@Z 0041c021 f   LIBCMT:_trnsctrl_.obj
 0001:0001b094       __CreateFrameInfo          0041c094 f   LIBCMT:_trnsctrl_.obj
 0001:0001b0c0       __IsExceptionObjectToBeDestroyed 0041c0c0 f   LIBCMT:_trnsctrl_.obj
 0001:0001b0e7       __FindAndUnlinkFrame       0041c0e7 f   LIBCMT:_trnsctrl_.obj
 0001:0001b139       ?_CallCatchBlock2@@YAPAXPAUEHRegistrationNode@@PBU_s_FuncInfo@@PAXHK@Z 0041c139 f   LIBCMT:_trnsctrl_.obj
 0001:0001b199       @__security_check_cookie@4 0041c199 f   LIBCMT:secchk.obj
 0001:0001b1a8       _free                      0041c1a8 f   LIBCMT:free.obj
 0001:0001b1e2       __CxxThrowException@8      0041c1e2 f   LIBCMT:throw.obj
 0001:0001b230       _memcpy                    0041c230 f   LIBCMT:memcpy.obj
 0001:0001b5a0       _memmove                   0041c5a0 f   LIBCMT:memmove.obj
 0001:0001b901       _localeconv                0041c901 f   LIBCMT:lconv.obj
 0001:0001b930       _memchr                    0041c930 f   LIBCMT:memchr.obj
 0001:0001b9e0       _strcspn                   0041c9e0 f   LIBCMT:strcspn.obj
 0001:0001ba26       _memmove_s                 0041ca26 f   LIBCMT:memmove_s.obj
 0001:0001ba80       _strncpy                   0041ca80 f   LIBCMT:strncpy.obj
 0001:0001bba4       _sprintf                   0041cba4 f   LIBCMT:sprintf.obj
 0001:0001bc28       _sprintf_s                 0041cc28 f   LIBCMT:sprintf.obj
 0001:0001bc46       __cfltcvt_init             0041cc46 f   LIBCMT:_fpinit_.obj
 0001:0001bca6       __fpmath                   0041cca6 f   LIBCMT:_fpinit_.obj
 0001:0001bcbf       _srand                     0041ccbf f   LIBCMT:rand.obj
 0001:0001bcd1       _rand                      0041ccd1 f   LIBCMT:rand.obj
 0001:0001bcf2       __snprintf                 0041ccf2 f   LIBCMT:snprintf.obj
 0001:0001bd9e       _printf                    0041cd9e f   LIBCMT:printf.obj
 0001:0001be45       __get_printf_count_output  0041ce45 f   LIBCMT:printf.obj
 0001:0001be5b       _atol                      0041ce5b f   LIBCMT:atox.obj
 0001:0001be71       _atoi                      0041ce71 f   LIBCMT:atox.obj
 0001:0001be7c       ??0_LocaleUpdate@@QAE@PAUlocaleinfo_struct@@@Z 0041ce7c f i LIBCMT:stricmp.obj
 0001:0001bf03       ___ascii_stricmp           0041cf03 f   LIBCMT:stricmp.obj
 0001:0001bf3c       __stricmp_l                0041cf3c f   LIBCMT:stricmp.obj
 0001:0001bffc       __stricmp                  0041cffc f   LIBCMT:stricmp.obj
 0001:0001c050       _strstr                    0041d050 f   LIBCMT:strstr.obj
 0001:0001c0d6       __time64                   0041d0d6 f   LIBCMT:time64.obj
 0001:0001c127       __fclose_nolock            0041d127 f   LIBCMT:fclose.obj
 0001:0001c194       _fclose                    0041d194 f   LIBCMT:fclose.obj
 0001:0001c208       _vfscanf                   0041d208 f   LIBCMT:fscanf.obj
 0001:0001c302       _fscanf                    0041d302 f   LIBCMT:fscanf.obj
 0001:0001c322       __strnicmp_l               0041d322 f   LIBCMT:strnicmp.obj
 0001:0001c404       __strnicmp                 0041d404 f   LIBCMT:strnicmp.obj
 0001:0001c457       _feof                      0041d457 f   LIBCMT:feoferr.obj
 0001:0001c47f       _fgets                     0041d47f f   LIBCMT:fgets.obj
 0001:0001c5b7       __fsopen                   0041d5b7 f   LIBCMT:fopen.obj
 0001:0001c673       _fopen                     0041d673 f   LIBCMT:fopen.obj
 0001:0001c68a       __initp_misc_winsig        0041d68a f   LIBCMT:winsig.obj
 0001:0001c77b       ___get_sigabrt             0041d77b f   LIBCMT:winsig.obj
 0001:0001c788       _signal                    0041d788 f   LIBCMT:winsig.obj
 0001:0001c9c8       _raise                     0041d9c8 f   LIBCMT:winsig.obj
 0001:0001cc21       ___onexitinit              0041dc21 f   LIBCMT:onexit.obj
 0001:0001cc52       __onexit                   0041dc52 f   LIBCMT:onexit.obj
 0001:0001cc8e       _atexit                    0041dc8e f   LIBCMT:onexit.obj
 0001:0001cca5       ___crtCorExitProcess       0041dca5 f   LIBCMT:crt0dat.obj
 0001:0001ccd0       ___crtExitProcess          0041dcd0 f   LIBCMT:crt0dat.obj
 0001:0001cce8       __lockexit                 0041dce8 f   LIBCMT:crt0dat.obj
 0001:0001ccf1       __unlockexit               0041dcf1 f   LIBCMT:crt0dat.obj
 0001:0001ccfa       __init_pointers            0041dcfa f   LIBCMT:crt0dat.obj
 0001:0001cd2d       __initterm_e               0041dd2d f   LIBCMT:crt0dat.obj
 0001:0001cd51       __cinit                    0041dd51 f   LIBCMT:crt0dat.obj
 0001:0001cf28       _exit                      0041df28 f   LIBCMT:crt0dat.obj
 0001:0001cf3e       __exit                     0041df3e f   LIBCMT:crt0dat.obj
 0001:0001cf54       __cexit                    0041df54 f   LIBCMT:crt0dat.obj
 0001:0001cf63       __c_exit                   0041df63 f   LIBCMT:crt0dat.obj
 0001:0001cf72       __amsg_exit                0041df72 f   LIBCMT:crt0dat.obj
 0001:0001cf90       __chkstk                   0041df90 f   LIBCMT:chkstk.obj
 0001:0001cf90       __alloca_probe             0041df90     LIBCMT:chkstk.obj
 0001:0001cfbb       __tolower_l                0041dfbb f   LIBCMT:tolower.obj
 0001:0001d0d0       _tolower                   0041e0d0 f   LIBCMT:tolower.obj
 0001:0001d100       __ftol2_sse                0041e100 f   LIBCMT:ftol2.obj
 0001:0001d109       __ftol2_pentium4           0041e109 f   LIBCMT:ftol2.obj
 0001:0001d11c       __ftol2_sse_excpt          0041e11c f   LIBCMT:ftol2.obj
 0001:0001d136       __ftol2                    0041e136 f   LIBCMT:ftol2.obj
 0001:0001d1ab       __endthread                0041e1ab f   LIBCMT:thread.obj
 0001:0001d272       __beginthread              0041e272 f   LIBCMT:thread.obj
 0001:0001d319       __localtime64_s            0041e319 f   LIBCMT:loctim64.obj
 0001:0001d5a1       __localtime64              0041e5a1 f   LIBCMT:loctim64.obj
 0001:0001d5c8       ___iob_func                0041e5c8 f   LIBCMT:_file.obj
 0001:0001d5ce       ___initstdio               0041e5ce f   LIBCMT:_file.obj
 0001:0001d67f       ___endstdio                0041e67f f   LIBCMT:_file.obj
 0001:0001d69f       __lock_file                0041e69f f   LIBCMT:_file.obj
 0001:0001d6e0       __lock_file2               0041e6e0 f   LIBCMT:_file.obj
 0001:0001d712       __unlock_file              0041e712 f   LIBCMT:_file.obj
 0001:0001d74e       __unlock_file2             0041e74e f   LIBCMT:_file.obj
 0001:0001d77d       _vfprintf_helper           0041e77d f   LIBCMT:vfprintf.obj
 0001:0001d888       _vfprintf                  0041e888 f   LIBCMT:vfprintf.obj
 0001:0001d8a7       _fputs                     0041e8a7 f   LIBCMT:fputs.obj
 0001:0001d9ad       __flush                    0041e9ad f   LIBCMT:fflush.obj
 0001:0001da15       __fflush_nolock            0041ea15 f   LIBCMT:fflush.obj
 0001:0001db37       _fflush                    0041eb37 f   LIBCMT:fflush.obj
 0001:0001db8a       __flushall                 0041eb8a f   LIBCMT:fflush.obj
 0001:0001db93       _fprintf                   0041eb93 f   LIBCMT:fprintf.obj
 0001:0001dc9f       __gmtime64_s               0041ec9f f   LIBCMT:gmtime64.obj
 0001:0001ded8       __fileno                   0041eed8 f   LIBCMT:fileno.obj
 0001:0001df00       __allshl                   0041ef00 f   LIBCMT:llshl.obj
 0001:0001df20       __aullshr                  0041ef20 f   LIBCMT:ullshr.obj
 0001:0001df3f       __ftime64_s                0041ef3f f   LIBCMT:ftime64.obj
 0001:0001e0af       __ftime64                  0041f0af f   LIBCMT:ftime64.obj
 0001:0001e244       _mainCRTStartup            0041f244 f   LIBCMT:crt0.obj
 0001:0001e24e       _malloc                    0041f24e f   LIBCMT:malloc.obj
 0001:0001e2e2       __get_errno_from_oserr     0041f2e2 f   LIBCMT:dosmap.obj
 0001:0001e324       __errno                    0041f324 f   LIBCMT:dosmap.obj
 0001:0001e337       ___doserrno                0041f337 f   LIBCMT:dosmap.obj
 0001:0001e34a       __dosmaperr                0041f34a f   LIBCMT:dosmap.obj
 0001:0001e36d       ___init_ctype              0041f36d f   LIBCMT:initctyp.obj
 0001:0001e714       ____lc_codepage_func       0041f714 f   LIBCMT:initctyp.obj
 0001:0001e73a       ____lc_handle_func         0041f73a f   LIBCMT:initctyp.obj
 0001:0001e760       __EH_prolog3               0041f760 f   LIBCMT:ehprolg3.obj
 0001:0001e793       __EH_prolog3_catch         0041f793 f   LIBCMT:ehprolg3.obj
 0001:0001e7c9       __EH_prolog3_GS            0041f7c9 f   LIBCMT:ehprolg3.obj
 0001:0001e7ff       __EH_epilog3               0041f7ff f   LIBCMT:ehprolg3.obj
 0001:0001e813       __EH_epilog3_GS            0041f813 f   LIBCMT:ehprolg3.obj
 0001:0001e848       __free_locale              0041f848 f   LIBCMT:setlocal.obj
 0001:0001e90a       ?sync@?$basic_streambuf@DU?$char_traits@D@std@@@std@@MAEHXZ 0041f90a f   libcpmt:cout.obj
 0001:0001e90a       ___init_collate            0041f90a f   LIBCMT:initcoll.obj
 0001:0001e90a       ___init_dummy              0041f90a f   LIBCMT:setlocal.obj
 0001:0001e90d       __strcats                  0041f90d f   LIBCMT:setlocal.obj
 0001:0001e94e       ___lc_strtolc              0041f94e f   LIBCMT:setlocal.obj
 0001:0001ea6d       ___lc_lctostr              0041fa6d f   LIBCMT:setlocal.obj
 0001:0001ec3d       __expandlocale             0041fc3d f   LIBCMT:setlocal.obj
 0001:0001f3b4       _setlocale                 004203b4 f   LIBCMT:setlocal.obj
 0001:0001f528       __purecall                 00420528 f   LIBCMT:purevirt.obj
 0001:0001f560       _strlen                    00420560 f   LIBCMT:strlen.obj
 0001:0001f5eb       __get_sys_err_msg          004205eb f i LIBCMT:strerror.obj
 0001:0001f613       _strerror                  00420613 f   LIBCMT:strerror.obj
 0001:0001f67d       ??1bad_exception@std@@UAE@XZ 0042067d f i LIBCMT:frame.obj
 0001:0001f688       ??_Gbad_exception@std@@UAEPAXI@Z 00420688 f i LIBCMT:frame.obj
 0001:0001f688       ??_Ebad_exception@std@@UAEPAXI@Z 00420688 f i LIBCMT:frame.obj
 0001:0001f6af       ___TypeMatch               004206af f   LIBCMT:frame.obj
 0001:0001f70e       ___FrameUnwindFilter       0042070e f   LIBCMT:frame.obj
 0001:0001f75d       ___FrameUnwindToState      0042075d f   LIBCMT:frame.obj
 0001:0001f87e       ___DestructExceptionObject 0042087e f   LIBCMT:frame.obj
 0001:0001f8d3       ___AdjustPointer           004208d3 f   LIBCMT:frame.obj
 0001:0001f8fc       ?__uncaught_exception@@YA_NXZ 004208fc f   LIBCMT:frame.obj
 0001:0001fb68       ___BuildCatchObjectHelper  00420b68 f   LIBCMT:frame.obj
 0001:0001fce7       ___BuildCatchObject        00420ce7 f   LIBCMT:frame.obj
 0001:00020263       ??0bad_exception@std@@QAE@ABV01@@Z 00421263 f i LIBCMT:frame.obj
 0001:00020280       ___InternalCxxFrameHandler 00421280 f   LIBCMT:frame.obj
 0001:00020366       _fgetc                     00421366 f   LIBCMT:fgetc.obj
 0001:0002045a       _fputc                     0042145a f   LIBCMT:fputc.obj
 0001:00020556       __ungetc_nolock            00421556 f   LIBCMT:ungetc.obj
 0001:00020639       _ungetc                    00421639 f   LIBCMT:ungetc.obj
 0001:000206a2       _setvbuf                   004216a2 f   LIBCMT:setvbuf.obj
 0001:00020798       _memcpy_s                  00421798 f   LIBCMT:memcpy_s.obj
 0001:0002080d       __fwrite_nolock            0042180d f   LIBCMT:fwrite.obj
 0001:00020964       _fwrite                    00421964 f   LIBCMT:fwrite.obj
 0001:000209de       _fgetpos                   004219de f   LIBCMT:fgetpos.obj
 0001:00020a39       __fseeki64_nolock          00421a39 f   LIBCMT:fseeki64.obj
 0001:00020ad5       __fseeki64                 00421ad5 f   LIBCMT:fseeki64.obj
 0001:00020b54       _fsetpos                   00421b54 f   LIBCMT:fsetpos.obj
 0001:00020c49       __itoa_s                   00421c49 f   LIBCMT:xtoas.obj
 0001:00020c73       __malloc_crt               00421c73 f   LIBCMT:crtheap.obj
 0001:00020cb8       __calloc_crt               00421cb8 f   LIBCMT:crtheap.obj
 0001:00020d04       __realloc_crt              00421d04 f   LIBCMT:crtheap.obj
 0001:00020d52       __recalloc_crt             00421d52 f   LIBCMT:crtheap.obj
 0001:00020da4       ___pctype_func             00421da4 f   LIBCMT:ctype.obj
 0001:00020dcd       _abort                     00421dcd f   LIBCMT:abort.obj
 0001:00020e00       __set_abort_behavior       00421e00 f   LIBCMT:abort.obj
 0001:00020e21       __freea                    00421e21 f i LIBCMT:a_map.obj
 0001:00021028       ___crtLCMapStringA         00422028 f   LIBCMT:a_map.obj
 0001:0002106e       __isupper_l                0042206e f i LIBCMT:_ctype.obj
 0001:000210bf       _isupper                   004220bf f i LIBCMT:_ctype.obj
 0001:000210ed       __islower_l                004220ed f i LIBCMT:_ctype.obj
 0001:0002113e       _islower                   0042213e f i LIBCMT:_ctype.obj
 0001:0002116c       __isdigit_l                0042216c f i LIBCMT:_ctype.obj
 0001:000211bd       _isdigit                   004221bd f i LIBCMT:_ctype.obj
 0001:000211eb       __isxdigit_l               004221eb f i LIBCMT:_ctype.obj
 0001:00021241       _isxdigit                  00422241 f i LIBCMT:_ctype.obj
 0001:00021271       __isspace_l                00422271 f i LIBCMT:_ctype.obj
 0001:000212c2       _isspace                   004222c2 f i LIBCMT:_ctype.obj
 0001:000212f0       _strcpy_s                  004222f0 f   LIBCMT:strcpy_s.obj
 0001:0002134f       ?_Type_info_dtor@type_info@@CAXPAV1@@Z 0042234f f   LIBCMT:typname.obj
 0001:000213c0       _strcmp                    004223c0 f   LIBCMT:strcmp.obj
 0001:00021448       __VEC_memzero              00422448 f   LIBCMT:p4_memset.obj
 0001:00021502       ___sse2_available_init     00422502 f   LIBCMT:cpu_disp.obj
 0001:00021512       __initp_heap_handler       00422512 f   LIBCMT:handler.obj
 0001:00021521       __callnewh                 00422521 f   LIBCMT:handler.obj
 0001:00021549       __encoded_null             00422549 f   LIBCMT:tidtable.obj
 0001:00021552       ___crtTlsAlloc@4           00422552 f   LIBCMT:tidtable.obj
 0001:0002155b       ___fls_getvalue@4          0042255b f   LIBCMT:tidtable.obj
 0001:00021575       ___get_flsindex            00422575 f   LIBCMT:tidtable.obj
 0001:0002157b       ___set_flsgetvalue         0042257b f   LIBCMT:tidtable.obj
 0001:000215af       ___fls_setvalue@8          004225af f   LIBCMT:tidtable.obj
 0001:000215cc       __mtterm                   004225cc f   LIBCMT:tidtable.obj
 0001:00021609       __initptd                  00422609 f   LIBCMT:tidtable.obj
 0001:000216bd       __getptd_noexit            004226bd f   LIBCMT:tidtable.obj
 0001:00021736       __getptd                   00422736 f   LIBCMT:tidtable.obj
 0001:00021750       __freefls@4                00422750 f   LIBCMT:tidtable.obj
 0001:0002187f       __freeptd                  0042287f f   LIBCMT:tidtable.obj
 0001:000218ed       __mtinit                   004228ed f   LIBCMT:tidtable.obj
 0001:00021a68       ?terminate@@YAXXZ          00422a68 f   LIBCMT:hooks.obj
 0001:00021aa1       ?unexpected@@YAXXZ         00422aa1 f   LIBCMT:hooks.obj
 0001:00021ab4       ?_inconsistency@@YAXXZ     00422ab4 f   LIBCMT:hooks.obj
 0001:00021aec       __initp_eh_hooks           00422aec f   LIBCMT:hooks.obj
 0001:00021b00       __CallSettingFrame@12      00422b00 f   LIBCMT:lowhelpr.obj
 0001:00021b27       __NLG_Return               00422b27     LIBCMT:lowhelpr.obj
 0001:00021b4c       ___report_gsfailure        00422b4c f   LIBCMT:gs_report.obj
 0001:00021c52       __heap_init                00422c52 f   LIBCMT:heapinit.obj
 0001:00021c70       __VEC_memcpy               00422c70 f   LIBCMT:p4_memcpy.obj
 0001:00021d73       ___addlocaleref            00422d73 f   LIBCMT:localref.obj
 0001:00021e02       ___removelocaleref         00422e02 f   LIBCMT:localref.obj
 0001:00021e9b       ___freetlocinfo            00422e9b f   LIBCMT:localref.obj
 0001:00021fe6       __updatetlocinfoEx_nolock  00422fe6 f   LIBCMT:localref.obj
 0001:00022033       ___updatetlocinfo          00423033 f   LIBCMT:localref.obj
 0001:000220ac       __initp_misc_invarg        004230ac f   LIBCMT:invarg.obj
 0001:000220bb       __call_reportfault         004230bb f   LIBCMT:invarg.obj
 0001:000221e4       __invoke_watson            004231e4 f   LIBCMT:invarg.obj
 0001:00022209       __invalid_parameter        00423209 f   LIBCMT:invarg.obj
 0001:00022236       __invalid_parameter_noinfo 00423236 f   LIBCMT:invarg.obj
 0001:00022246       __flsbuf                   00423246 f   LIBCMT:_flsbuf.obj
 0001:0002242a       __output_l                 0042342a f   LIBCMT:output.obj
 0001:00022fd6       __vsnprintf_helper         00423fd6 f   LIBCMT:vsnprnc.obj
 0001:000230a0       __vsprintf_s_l             004240a0 f   LIBCMT:vsnprnc.obj
 0001:00023117       __forcdecpt_l              00424117 f   LIBCMT:cvt.obj
 0001:0002318b       __cropzeros_l              0042418b f   LIBCMT:cvt.obj
 0001:0002320d       __positive                 0042420d f   LIBCMT:cvt.obj
 0001:00023229       __fassign_l                00424229 f   LIBCMT:cvt.obj
 0001:0002326b       __fassign                  0042426b f   LIBCMT:cvt.obj
 0001:000232a4       __forcdecpt                004242a4 f   LIBCMT:cvt.obj
 0001:000232b7       __cropzeros                004242b7 f   LIBCMT:cvt.obj
 0001:0002342b       __cftoe_l                  0042442b f   LIBCMT:cvt.obj
 0001:000234f2       __cftoe                    004244f2 f   LIBCMT:cvt.obj
 0001:00023512       __cftoa_l                  00424512 f   LIBCMT:cvt.obj
 0001:0002398b       __cftof_l                  0042498b f   LIBCMT:cvt.obj
 0001:00023a4c       __cftog_l                  00424a4c f   LIBCMT:cvt.obj
 0001:00023b39       __cfltcvt_l                00424b39 f   LIBCMT:cvt.obj
 0001:00023bc1       __cfltcvt                  00424bc1 f   LIBCMT:cvt.obj
 0001:00023be4       __initp_misc_cfltcvt_tab   00424be4 f   LIBCMT:cmiscdat.obj
 0001:00023c07       __setdefaultprecision      00424c07 f   LIBCMT:fp8.obj
 0001:00023c2f       __vsnprintf_l              00424c2f f   LIBCMT:vsnprint.obj
 0001:00023cdb       _vsnprintf                 00424cdb f   LIBCMT:vsnprint.obj
 0001:00023cdb       __vsnprintf                00424cdb f   LIBCMT:vsnprint.obj
 0001:00023cf8       __stbuf                    00424cf8 f   LIBCMT:_sftbuf.obj
 0001:00023d94       __ftbuf                    00424d94 f   LIBCMT:_sftbuf.obj
 0001:00023dd0       __SEH_prolog4              00424dd0 f   LIBCMT:sehprolg4.obj
 0001:00023e15       __SEH_epilog4              00424e15 f   LIBCMT:sehprolg4.obj
 0001:00023e30       __except_handler4          00424e30 f   LIBCMT:chandler4.obj
 0001:000241ea       _strtol                    004251ea f   LIBCMT:strtol.obj
 0001:00024438       ___updatetmbcinfo          00425438 f   LIBCMT:mbctype.obj
 0001:00024558       __setmbcp_nolock           00425558 f   LIBCMT:mbctype.obj
 0001:00024741       __setmbcp                  00425741 f   LIBCMT:mbctype.obj
 0001:000248db       ___initmbctable            004258db f   LIBCMT:mbctype.obj
 0001:00024910       _strchr                    00425910 f   LIBCMT:strchr.obj
 0001:00024916       ___from_strstr_to_strchr   00425916     LIBCMT:strchr.obj
 0001:000249d0       __aulldiv                  004259d0 f   LIBCMT:ulldiv.obj
 0001:00024a38       __close_nolock             00425a38 f   LIBCMT:close.obj
 0001:00024ad4       __close                    00425ad4 f   LIBCMT:close.obj
 0001:00024b98       __freebuf                  00425b98 f   LIBCMT:_freebuf.obj
 0001:00024bc9       __ioinit                   00425bc9 f   LIBCMT:ioinit.obj
 0001:00024ec5       __input_l                  00425ec5 f   LIBCMT:input.obj
 0001:00025ed0       ___ascii_strnicmp          00426ed0 f   LIBCMT:_strnicm.obj
 0001:00025f31       __filbuf                   00426f31 f   LIBCMT:_filbuf.obj
 0001:00026053       __openfile                 00427053 f   LIBCMT:_open.obj
 0001:000262ea       __getstream                004272ea f   LIBCMT:stream.obj
 0001:00026420       __local_unwind4            00427420 f   LIBCMT:exsup4.obj
 0001:000264f6       __seh_longjmp_unwind4@4    004274f6 f   LIBCMT:exsup4.obj
 0001:00026512       @_EH4_CallFilterFunc@8     00427512 f   LIBCMT:exsup4.obj
 0001:00026529       @_EH4_TransferToHandler@8  00427529 f   LIBCMT:exsup4.obj
 0001:00026542       @_EH4_GlobalUnwind2@8      00427542 f   LIBCMT:exsup4.obj
 0001:0002655b       @_EH4_LocalUnwind@16       0042755b f   LIBCMT:exsup4.obj
 0001:00026572       __mtinitlocks              00427572 f   LIBCMT:mlock.obj
 0001:000265bc       __mtdeletelocks            004275bc f   LIBCMT:mlock.obj
 0001:00026613       __unlock                   00427613 f   LIBCMT:mlock.obj
 0001:0002662a       __mtinitlocknum            0042762a f   LIBCMT:mlock.obj
 0001:000266ec       __lock                     004276ec f   LIBCMT:mlock.obj
 0001:0002671f       __XcptFilter               0042771f f   LIBCMT:winxfltr.obj
 0001:00026869       __msize                    00427869 f   LIBCMT:msize.obj
 0001:0002689c       __initp_misc_rand_s        0042789c f   LIBCMT:rand_s.obj
 0001:000268ab       ___getlocaleinfo           004278ab f   LIBCMT:inithelp.obj
 0001:00026a57       __initp_misc_purevirt      00427a57 f   LIBCMT:inithelp.obj
 0001:00026a66       __RTC_Initialize           00427a66 f   LIBCMT:_initsect_.obj
 0001:00026a8c       __RTC_Terminate            00427a8c f   LIBCMT:_initsect_.obj
 0001:00026ac0       __ValidateImageBase        00427ac0 f   LIBCMT:pesect.obj
 0001:00026b00       __FindPESection            00427b00 f   LIBCMT:pesect.obj
 0001:00026b50       __IsNonwritableInCurrentImage 00427b50 f   LIBCMT:pesect.obj
 0001:00026c0c       __GET_RTERRMSG             00427c0c f   LIBCMT:crt0msg.obj
 0001:00026c32       __NMSG_WRITE               00427c32 f   LIBCMT:crt0msg.obj
 0001:00026de1       __FF_MSGBANNER             00427de1 f   LIBCMT:crt0msg.obj
 0001:00026e1a       __isleadbyte_l             00427e1a f i LIBCMT:_wctype.obj
 0001:00026e52       _isleadbyte                00427e52 f i LIBCMT:_wctype.obj
 0001:00026e65       __isctype_l                00427e65 f   LIBCMT:isctype.obj
 0001:00026f1d       ___strgtold12_l            00427f1d f   LIBCMT:_strgtold_.obj
 0001:00027cda       ___tzset                   00428cda f   LIBCMT:tzset.obj
 0001:00027d29       __isindst                  00428d29 f   LIBCMT:tzset.obj
 0001:00027d6a       __get_daylight             00428d6a f   LIBCMT:timeset.obj
 0001:00027d97       __get_dstbias              00428d97 f   LIBCMT:timeset.obj
 0001:00027dc4       __get_timezone             00428dc4 f   LIBCMT:timeset.obj
 0001:00027df1       ___daylight                00428df1 f   LIBCMT:timeset.obj
 0001:00027df7       ___dstbias                 00428df7 f   LIBCMT:timeset.obj
 0001:00027dfd       ___timezone                00428dfd f   LIBCMT:timeset.obj
 0001:00027e03       ___tzname                  00428e03 f   LIBCMT:timeset.obj
 0001:00027e10       __alldiv                   00428e10 f   LIBCMT:lldiv.obj
 0001:00027ec0       __allrem                   00428ec0 f   LIBCMT:llrem.obj
 0001:00027f72       ___getgmtimebuf            00428f72 f   LIBCMT:gmtime.obj
 0001:00027fa9       __fcloseall                00428fa9 f   LIBCMT:closeall.obj
 0001:00028045       __output_s_l               00429045 f   LIBCMT:outputs.obj
 0001:00028c15       __write_nolock             00429c15 f   LIBCMT:write.obj
 0001:00029312       __write                    0042a312 f   LIBCMT:write.obj
 0001:000293e6       __commit                   0042a3e6 f   LIBCMT:commit.obj
 0001:000294c0       __allmul                   0042a4c0 f   LIBCMT:llmul.obj
 0001:000294f4       __set_osfhnd               0042a4f4 f   LIBCMT:osfinfo.obj
 0001:00029575       __free_osfhnd              0042a575 f   LIBCMT:osfinfo.obj
 0001:000295fb       __get_osfhandle            0042a5fb f   LIBCMT:osfinfo.obj
 0001:00029664       ___lock_fhandle            0042a664 f   LIBCMT:osfinfo.obj
 0001:00029703       __unlock_fhandle           0042a703 f   LIBCMT:osfinfo.obj
 0001:0002972a       __alloc_osfhnd             0042a72a f   LIBCMT:osfinfo.obj
 0001:000298c3       __lseek_nolock             0042a8c3 f   LIBCMT:lseek.obj
 0001:00029940       __aullrem                  0042a940 f   LIBCMT:ullrem.obj
 0001:000299b5       ?__CxxUnhandledExceptionFilter@@YGJPAU_EXCEPTION_POINTERS@@@Z 0042a9b5 f   LIBCMT:unhandld.obj
 0001:000299f7       ___CxxSetUnhandledExceptionFilter 0042a9f7 f   LIBCMT:unhandld.obj
 0001:00029a05       __setenvp                  0042aa05 f   LIBCMT:stdenvp.obj
 0001:00029c7b       __setargv                  0042ac7b f   LIBCMT:stdargv.obj
 0001:00029d36       ___crtGetEnvironmentStringsA 0042ad36 f   LIBCMT:a_env.obj
 0001:00029dcd       ___security_init_cookie    0042adcd f   LIBCMT:gs_support.obj
 0001:00029f4f       ___crtGetStringTypeA       0042af4f f   LIBCMT:a_str.obj
 0001:0002a78e       ___free_lc_time            0042b78e f   LIBCMT:inittime.obj
 0001:0002ab05       ___init_time               0042bb05 f   LIBCMT:inittime.obj
 0001:0002ab82       ___free_lconv_num          0042bb82 f   LIBCMT:initnum.obj
 0001:0002abeb       ___init_numeric            0042bbeb f   LIBCMT:initnum.obj
 0001:0002addb       ___free_lconv_mon          0042bddb f   LIBCMT:initmon.obj
 0001:0002aed9       ___init_monetary           0042bed9 f   LIBCMT:initmon.obj
 0001:0002b239       _strcat_s                  0042c239 f   LIBCMT:strcat_s.obj
 0001:0002b2a6       _strncpy_s                 0042c2a6 f   LIBCMT:strncpy_s.obj
 0001:0002b8e8       ___get_qualified_locale    0042c8e8 f   LIBCMT:getqloc.obj
 0001:0002bad9       _memcmp                    0042cad9 f   LIBCMT:memcmp.obj
 0001:0002d02d       _strncmp                   0042e02d f   LIBCMT:strncmp.obj
 0001:0002d0f0       _strpbrk                   0042e0f0 f   LIBCMT:strpbrk.obj
 0001:0002d130       ___sys_nerr                0042e130 f   LIBCMT:syserr.obj
 0001:0002d136       ___sys_errlist             0042e136 f   LIBCMT:syserr.obj
 0001:0002d13c       ?_ValidateRead@@YAHPBXI@Z  0042e13c f   LIBCMT:validate.obj
 0001:0002d13c       ?_ValidateWrite@@YAHPAXI@Z 0042e13c f   LIBCMT:validate.obj
 0001:0002d13c       ?_ValidateExecute@@YAHP6GHXZ@Z 0042e13c f   LIBCMT:validate.obj
 0001:0002d14e       __getbuf                   0042e14e f   LIBCMT:_getbuf.obj
 0001:0002d197       __ftelli64_nolock          0042e197 f   LIBCMT:ftelli64.obj
 0001:0002d4e1       __ftelli64                 0042e4e1 f   LIBCMT:ftelli64.obj
 0001:0002d54e       __lseeki64_nolock          0042e54e f   LIBCMT:lseeki64.obj
 0001:0002d5d3       __lseeki64                 0042e5d3 f   LIBCMT:lseeki64.obj
 0001:0002d6c0       __aulldvrm                 0042e6c0 f   LIBCMT:ulldvrm.obj
 0001:0002d755       __calloc_impl              0042e755 f   LIBCMT:calloc_impl.obj
 0001:0002d7d7       _realloc                   0042e7d7 f   LIBCMT:realloc.obj
 0001:0002d884       __recalloc                 0042e884 f   LIBCMT:recalloc.obj
 0001:0002d900       __alloca_probe_16          0042e900 f   LIBCMT:alloca16.obj
 0001:0002d916       __alloca_probe_8           0042e916     LIBCMT:alloca16.obj
 0001:0002d930       __global_unwind2           0042e930 f   LIBCMT:exsup.obj
 0001:0002d995       __local_unwind2            0042e995 f   LIBCMT:exsup.obj
 0001:0002da19       __abnormal_termination     0042ea19 f   LIBCMT:exsup.obj
 0001:0002da3c       __NLG_Notify1              0042ea3c f   LIBCMT:exsup.obj
 0001:0002da45       __NLG_Notify               0042ea45 f   LIBCMT:exsup.obj
 0001:0002da5c       __NLG_Dispatch             0042ea5c     LIBCMT:exsup.obj
 0001:0002da5c       __NLG_Dispatch2            0042ea5c     LIBCMT:exsup.obj
 0001:0002da64       __NLG_Call                 0042ea64 f   LIBCMT:exsup.obj
 0001:0002da66       __NLG_Return2              0042ea66     LIBCMT:exsup.obj
 0001:0002da67       __crt_debugger_hook        0042ea67 f   LIBCMT:dbghook.obj
 0001:0002da6f       __isatty                   0042ea6f f   LIBCMT:isatty.obj
 0001:0002dac5       __wctomb_s_l               0042eac5 f   LIBCMT:wctomb.obj
 0001:0002dc1a       _wctomb_s                  0042ec1a f   LIBCMT:wctomb.obj
 0001:0002dc40       _strrchr                   0042ec40 f   LIBCMT:strrchr.obj
 0001:0002dc6d       __atodbl_l                 0042ec6d f   LIBCMT:atodbl.obj
 0001:0002dd15       __atoflt_l                 0042ed15 f   LIBCMT:atodbl.obj
 0001:0002ddbd       __fptostr                  0042edbd f   LIBCMT:_fptostr.obj
 0001:0002de70       ___dtold                   0042ee70 f   LIBCMT:_cfout_.obj
 0001:0002df23       __fltout2                  0042ef23 f   LIBCMT:_cfout_.obj
 0001:0002dfc0       __alldvrm                  0042efc0 f   LIBCMT:lldvrm.obj
 0001:0002e09f       __fptrap                   0042f09f f   LIBCMT:crt0fp.obj
 0001:0002e0a8       __controlfp_s              0042f0a8 f   LIBCMT:_contrlfp_.obj
 0001:0002e107       __mbtowc_l                 0042f107 f   LIBCMT:mbtowc.obj
 0001:0002e21d       _mbtowc                    0042f21d f   LIBCMT:mbtowc.obj
 0001:0002e237       __read_nolock              0042f237 f   LIBCMT:read.obj
 0001:0002e7ee       __read                     0042f7ee f   LIBCMT:read.obj
 0001:0002f018       __sopen_helper             00430018 f   LIBCMT:open.obj
 0001:0002f0dc       __sopen_s                  004300dc f   LIBCMT:open.obj
 0001:0002f0fc       __mbsnbicmp_l              004300fc f   LIBCMT:mbsnbicm.obj
 0001:0002f300       __mbsnbicmp                00430300 f   LIBCMT:mbsnbicm.obj
 0001:0002f31a       __mbsnbcmp_l               0043031a f   LIBCMT:mbsnbcmp.obj
 0001:0002f466       __mbsnbcmp                 00430466 f   LIBCMT:mbsnbcmp.obj
 0001:0002f55a       ___crtGetLocaleInfoA       0043055a f   LIBCMT:a_loc.obj
 0001:0002f594       ___crtMessageBoxW          00430594 f   LIBCMT:crtmboxw.obj
 0001:0002f700       _wcscat_s                  00430700 f   LIBCMT:wcscat_s.obj
 0001:0002f775       _wcsncpy_s                 00430775 f   LIBCMT:wcsncpy_s.obj
 0001:0002f842       _wcslen                    00430842 f   LIBCMT:wcslen.obj
 0001:0002f85d       _wcscpy_s                  0043085d f   LIBCMT:wcscpy_s.obj
 0001:0002f8c0       __set_error_mode           004308c0 f   LIBCMT:errmode.obj
 0001:0002f8ff       __ld12tod                  004308ff f   LIBCMT:_intrncvt_.obj
 0001:0002fe50       __ld12tof                  00430e50 f   LIBCMT:_intrncvt_.obj
 0001:000303a1       ___mtold12                 004313a1 f   LIBCMT:_mantold_.obj
 0001:00030585       __getenv_helper_nolock     00431585 f   LIBCMT:getenv.obj
 0001:0003060c       __putwch_nolock            0043160c f   LIBCMT:putwch.obj
 0001:000306a1       __ismbblead                004316a1 f   LIBCMT:ismbbyte.obj
 0001:000306b9       _$I10_OUTPUT               004316b9 f   LIBCMT:_x10fout_.obj
 0001:000310df       __control87                004320df f i LIBCMT:_ieee87_.obj
 0001:000313f1       __chsize_nolock            004323f1 f   LIBCMT:chsize.obj
 0001:000315a7       __setmode_nolock           004325a7 f   LIBCMT:setmode.obj
 0001:00031662       __get_fmode                00432662 f   LIBCMT:setmode.obj
 0001:0003168f       __mbsnbicoll_l             0043268f f   LIBCMT:mbsnbico.obj
 0001:0003176d       __mbsnbicoll               0043276d f   LIBCMT:mbsnbico.obj
 0001:00031787       ___wtomb_environ           00432787 f   LIBCMT:wtombenv.obj
 0001:0003181e       ___initconout              0043281e f   LIBCMT:initcon.obj
 0001:0003183d       ___termconout              0043283d f   LIBCMT:initcon.obj
 0001:00031854       ___set_fpsr_sse2           00432854 f   LIBCMT:_fpctrl_.obj
 0001:00031b34       ___crtCompareStringA       00432b34 f   LIBCMT:a_cmp.obj
 0001:00031b76       __strnicoll_l              00432b76 f   LIBCMT:strnicol.obj
 0001:00031d12       ___crtsetenv               00432d12 f   LIBCMT:setenv.obj
 0001:00031f54       __strdup                   00432f54 f   LIBCMT:strdup.obj
 0001:00031fa6       __mbschr_l                 00432fa6 f   LIBCMT:mbschr.obj
 0001:00032056       __mbschr                   00433056 f   LIBCMT:mbschr.obj
 0001:0003206e       _RtlUnwind@16              0043306e f   kernel32:KERNEL32.dll
 0001:00032074       __getextendedkeycode       00433074 f   LIBCMT:getch.obj
 0001:00032127       __getch_nolock             00433127 f   LIBCMT:getch.obj
 0001:00032200       __kbhit_nolock             00433200 f   LIBCMT:getch.obj
 0001:00032328       __getch                    00433328 f   LIBCMT:getch.obj
 0001:00032328       _getch                     00433328 f   LIBCMT:getch.obj
 0001:00032366       _kbhit                     00433366 f   LIBCMT:getch.obj
 0001:00032366       __kbhit                    00433366 f   LIBCMT:getch.obj
 0001:000323a4       __getpid                   004333a4 f   LIBCMT:getpid.obj
 0001:000323a4       _getpid                    004333a4 f   LIBCMT:getpid.obj
 0001:000323aa       ___initconin               004333aa f   LIBCMT:initconin.obj
 0001:000323c9       ___termconin               004333c9 f   LIBCMT:initconin.obj
 0002:00000000       __imp__ExitProcess@4       00435000     kernel32:KERNEL32.dll
 0002:00000004       __imp__PeekConsoleInputA@16 00435004     kernel32:KERNEL32.dll
 0002:00000008       __imp__SetConsoleMode@8    00435008     kernel32:KERNEL32.dll
 0002:0000000c       __imp__ReadConsoleInputA@16 0043500c     kernel32:KERNEL32.dll
 0002:00000010       __imp__SetEnvironmentVariableA@8 00435010     kernel32:KERNEL32.dll
 0002:00000014       __imp__CompareStringW@24   00435014     kernel32:KERNEL32.dll
 0002:00000018       __imp__CreateFileW@28      00435018     kernel32:KERNEL32.dll
 0002:0000001c       __imp__GetProcessHeap@0    0043501c     kernel32:KERNEL32.dll
 0002:00000020       __imp__SetEndOfFile@4      00435020     kernel32:KERNEL32.dll
 0002:00000024       __imp__WriteConsoleW@20    00435024     kernel32:KERNEL32.dll
 0002:00000028       __imp__CreateFileA@28      00435028     kernel32:KERNEL32.dll
 0002:0000002c       __imp__HeapReAlloc@16      0043502c     kernel32:KERNEL32.dll
 0002:00000030       __imp__ReadFile@20         00435030     kernel32:KERNEL32.dll
 0002:00000034       __imp__IsValidLocale@8     00435034     kernel32:KERNEL32.dll
 0002:00000038       __imp__EnumSystemLocalesA@8 00435038     kernel32:KERNEL32.dll
 0002:0000003c       __imp__GetLocaleInfoA@16   0043503c     kernel32:KERNEL32.dll
 0002:00000040       __imp__GetUserDefaultLCID@0 00435040     kernel32:KERNEL32.dll
 0002:00000044       __imp__GetStringTypeW@16   00435044     kernel32:KERNEL32.dll
 0002:00000048       __imp__GetCurrentProcessId@0 00435048     kernel32:KERNEL32.dll
 0002:0000004c       __imp__GetTickCount@0      0043504c     kernel32:KERNEL32.dll
 0002:00000050       __imp__QueryPerformanceCounter@4 00435050     kernel32:KERNEL32.dll
 0002:00000054       __imp__GetEnvironmentStringsW@0 00435054     kernel32:KERNEL32.dll
 0002:00000058       __imp__FreeEnvironmentStringsW@4 00435058     kernel32:KERNEL32.dll
 0002:0000005c       __imp__GetModuleFileNameA@12 0043505c     kernel32:KERNEL32.dll
 0002:00000060       __imp__SetFilePointer@16   00435060     kernel32:KERNEL32.dll
 0002:00000064       __imp__SetStdHandle@8      00435064     kernel32:KERNEL32.dll
 0002:00000068       __imp__FlushFileBuffers@4  00435068     kernel32:KERNEL32.dll
 0002:0000006c       __imp__GetConsoleMode@8    0043506c     kernel32:KERNEL32.dll
 0002:00000070       __imp__GetConsoleCP@0      00435070     kernel32:KERNEL32.dll
 0002:00000074       __imp__GetModuleFileNameW@12 00435074     kernel32:KERNEL32.dll
 0002:00000078       __imp__WriteFile@20        00435078     kernel32:KERNEL32.dll
 0002:0000007c       __imp__GetLocaleInfoW@16   0043507c     kernel32:KERNEL32.dll
 0002:00000080       __imp__LoadLibraryW@4      00435080     kernel32:KERNEL32.dll
 0002:00000084       __imp__HeapSize@12         00435084     kernel32:KERNEL32.dll
 0002:00000088       __imp__GetStartupInfoW@4   00435088     kernel32:KERNEL32.dll
 0002:0000008c       __imp__GetFileType@4       0043508c     kernel32:KERNEL32.dll
 0002:00000090       __imp__InitializeCriticalSectionAndSpinCount@8 00435090     kernel32:KERNEL32.dll
 0002:00000094       __imp__GetStdHandle@4      00435094     kernel32:KERNEL32.dll
 0002:00000098       __imp__SetHandleCount@4    00435098     kernel32:KERNEL32.dll
 0002:0000009c       __imp__IsValidCodePage@4   0043509c     kernel32:KERNEL32.dll
 0002:000000a0       __imp__GetOEMCP@0          004350a0     kernel32:KERNEL32.dll
 0002:000000a4       __imp__Sleep@4             004350a4     kernel32:KERNEL32.dll
 0002:000000a8       __imp__SetThreadPriority@8 004350a8     kernel32:KERNEL32.dll
 0002:000000ac       __imp__GetCurrentThread@0  004350ac     kernel32:KERNEL32.dll
 0002:000000b0       __imp__GetVersionExA@4     004350b0     kernel32:KERNEL32.dll
 0002:000000b4       __imp__InitializeCriticalSection@4 004350b4     kernel32:KERNEL32.dll
 0002:000000b8       __imp__DeleteCriticalSection@4 004350b8     kernel32:KERNEL32.dll
 0002:000000bc       __imp__EnterCriticalSection@4 004350bc     kernel32:KERNEL32.dll
 0002:000000c0       __imp__TryEnterCriticalSection@4 004350c0     kernel32:KERNEL32.dll
 0002:000000c4       __imp__LeaveCriticalSection@4 004350c4     kernel32:KERNEL32.dll
 0002:000000c8       __imp__WideCharToMultiByte@32 004350c8     kernel32:KERNEL32.dll
 0002:000000cc       __imp__InterlockedIncrement@4 004350cc     kernel32:KERNEL32.dll
 0002:000000d0       __imp__InterlockedDecrement@4 004350d0     kernel32:KERNEL32.dll
 0002:000000d4       __imp__InterlockedExchange@8 004350d4     kernel32:KERNEL32.dll
 0002:000000d8       __imp__MultiByteToWideChar@24 004350d8     kernel32:KERNEL32.dll
 0002:000000dc       __imp__EncodePointer@4     004350dc     kernel32:KERNEL32.dll
 0002:000000e0       __imp__DecodePointer@4     004350e0     kernel32:KERNEL32.dll
 0002:000000e4       __imp__RtlUnwind@16        004350e4     kernel32:KERNEL32.dll
 0002:000000e8       __imp__GetLastError@0      004350e8     kernel32:KERNEL32.dll
 0002:000000ec       __imp__HeapFree@12         004350ec     kernel32:KERNEL32.dll
 0002:000000f0       __imp__RaiseException@16   004350f0     kernel32:KERNEL32.dll
 0002:000000f4       __imp__GetSystemTimeAsFileTime@4 004350f4     kernel32:KERNEL32.dll
 0002:000000f8       __imp__SetConsoleCtrlHandler@8 004350f8     kernel32:KERNEL32.dll
 0002:000000fc       __imp__GetProcAddress@8    004350fc     kernel32:KERNEL32.dll
 0002:00000100       __imp__GetModuleHandleW@4  00435100     kernel32:KERNEL32.dll
 0002:00000104       __imp__GetNumberOfConsoleInputEvents@8 00435104     kernel32:KERNEL32.dll
 0002:00000108       __imp__ExitThread@4        00435108     kernel32:KERNEL32.dll
 0002:0000010c       __imp__CloseHandle@4       0043510c     kernel32:KERNEL32.dll
 0002:00000110       __imp__ResumeThread@4      00435110     kernel32:KERNEL32.dll
 0002:00000114       __imp__CreateThread@24     00435114     kernel32:KERNEL32.dll
 0002:00000118       __imp__GetTimeZoneInformation@4 00435118     kernel32:KERNEL32.dll
 0002:0000011c       __imp__GetCommandLineA@0   0043511c     kernel32:KERNEL32.dll
 0002:00000120       __imp__HeapSetInformation@16 00435120     kernel32:KERNEL32.dll
 0002:00000124       __imp__HeapAlloc@12        00435124     kernel32:KERNEL32.dll
 0002:00000128       __imp__GetCPInfo@8         00435128     kernel32:KERNEL32.dll
 0002:0000012c       __imp__LCMapStringW@24     0043512c     kernel32:KERNEL32.dll
 0002:00000130       __imp__IsProcessorFeaturePresent@4 00435130     kernel32:KERNEL32.dll
 0002:00000134       __imp__TlsAlloc@0          00435134     kernel32:KERNEL32.dll
 0002:00000138       __imp__TlsGetValue@4       00435138     kernel32:KERNEL32.dll
 0002:0000013c       __imp__TlsSetValue@8       0043513c     kernel32:KERNEL32.dll
 0002:00000140       __imp__TlsFree@4           00435140     kernel32:KERNEL32.dll
 0002:00000144       __imp__SetLastError@4      00435144     kernel32:KERNEL32.dll
 0002:00000148       __imp__GetCurrentThreadId@0 00435148     kernel32:KERNEL32.dll
 0002:0000014c       __imp__TerminateProcess@8  0043514c     kernel32:KERNEL32.dll
 0002:00000150       __imp__GetCurrentProcess@0 00435150     kernel32:KERNEL32.dll
 0002:00000154       __imp__UnhandledExceptionFilter@4 00435154     kernel32:KERNEL32.dll
 0002:00000158       __imp__SetUnhandledExceptionFilter@4 00435158     kernel32:KERNEL32.dll
 0002:0000015c       __imp__IsDebuggerPresent@0 0043515c     kernel32:KERNEL32.dll
 0002:00000160       __imp__HeapCreate@12       00435160     kernel32:KERNEL32.dll
 0002:00000164       __imp__GetACP@0            00435164     kernel32:KERNEL32.dll
 0002:00000168       \177KERNEL32_NULL_THUNK_DATA 00435168     kernel32:KERNEL32.dll
 0002:0000016c       __imp__DES_ncbc_encrypt    0043516c     libeay32:LIBEAY32.dll
 0002:00000170       __imp__DES_key_sched       00435170     libeay32:LIBEAY32.dll
 0002:00000174       \177LIBEAY32_NULL_THUNK_DATA 00435174     libeay32:LIBEAY32.dll
 0002:00000178       __imp__mysql_real_query@12 00435178     libmysql:LIBMYSQL.dll
 0002:0000017c       __imp__mysql_field_count@4 0043517c     libmysql:LIBMYSQL.dll
 0002:00000180       __imp__mysql_store_result@4 00435180     libmysql:LIBMYSQL.dll
 0002:00000184       __imp__mysql_affected_rows@4 00435184     libmysql:LIBMYSQL.dll
 0002:00000188       __imp__mysql_insert_id@4   00435188     libmysql:LIBMYSQL.dll
 0002:0000018c       __imp__mysql_real_connect@32 0043518c     libmysql:LIBMYSQL.dll
 0002:00000190       __imp__mysql_errno@4       00435190     libmysql:LIBMYSQL.dll
 0002:00000194       __imp__mysql_error@4       00435194     libmysql:LIBMYSQL.dll
 0002:00000198       __imp__mysql_real_escape_string@16 00435198     libmysql:LIBMYSQL.dll
 0002:0000019c       __imp__mysql_ping@4        0043519c     libmysql:LIBMYSQL.dll
 0002:000001a0       __imp__mysql_close@4       004351a0     libmysql:LIBMYSQL.dll
 0002:000001a4       __imp__mysql_init@4        004351a4     libmysql:LIBMYSQL.dll
 0002:000001a8       __imp__mysql_num_rows@4    004351a8     libmysql:LIBMYSQL.dll
 0002:000001ac       __imp__mysql_fetch_row@4   004351ac     libmysql:LIBMYSQL.dll
 0002:000001b0       __imp__mysql_free_result@4 004351b0     libmysql:LIBMYSQL.dll
 0002:000001b4       \177LIBMYSQL_NULL_THUNK_DATA 004351b4     libmysql:LIBMYSQL.dll
 0002:000001b8       __imp__shutdown@8          004351b8     wsock32:WSOCK32.dll
 0002:000001bc       __imp__send@16             004351bc     wsock32:WSOCK32.dll
 0002:000001c0       __imp__accept@12           004351c0     wsock32:WSOCK32.dll
 0002:000001c4       __imp__listen@8            004351c4     wsock32:WSOCK32.dll
 0002:000001c8       __imp__gethostbyname@4     004351c8     wsock32:WSOCK32.dll
 0002:000001cc       __imp__WSAGetLastError@0   004351cc     wsock32:WSOCK32.dll
 0002:000001d0       __imp__setsockopt@20       004351d0     wsock32:WSOCK32.dll
 0002:000001d4       __imp__bind@12             004351d4     wsock32:WSOCK32.dll
 0002:000001d8       __imp__htons@4             004351d8     wsock32:WSOCK32.dll
 0002:000001dc       __imp__socket@12           004351dc     wsock32:WSOCK32.dll
 0002:000001e0       __imp__connect@12          004351e0     wsock32:WSOCK32.dll
 0002:000001e4       __imp__ioctlsocket@12      004351e4     wsock32:WSOCK32.dll
 0002:000001e8       __imp__recvfrom@24         004351e8     wsock32:WSOCK32.dll
 0002:000001ec       __imp__recv@16             004351ec     wsock32:WSOCK32.dll
 0002:000001f0       __imp__ntohl@4             004351f0     wsock32:WSOCK32.dll
 0002:000001f4       __imp__sendto@24           004351f4     wsock32:WSOCK32.dll
 0002:000001f8       __imp__WSACleanup@0        004351f8     wsock32:WSOCK32.dll
 0002:000001fc       __imp__WSAStartup@8        004351fc     wsock32:WSOCK32.dll
 0002:00000200       __imp__closesocket@4       00435200     wsock32:WSOCK32.dll
 0002:00000204       __imp__htonl@4             00435204     wsock32:WSOCK32.dll
 0002:00000208       __imp__inet_ntoa@4         00435208     wsock32:WSOCK32.dll
 0002:0000020c       __imp__ntohs@4             0043520c     wsock32:WSOCK32.dll
 0002:00000210       \177WSOCK32_NULL_THUNK_DATA 00435210     wsock32:WSOCK32.dll
 0002:00000214       ___xc_a                    00435214     LIBCMT:crt0init.obj
 0002:00000280       ___xc_z                    00435280     LIBCMT:crt0init.obj
 0002:00000284       ___xi_a                    00435284     LIBCMT:crt0init.obj
 0002:000002a0       ___xi_z                    004352a0     LIBCMT:crt0init.obj
 0002:000002a4       ___xp_a                    004352a4     LIBCMT:crt0init.obj
 0002:000002b4       ___xp_z                    004352b4     LIBCMT:crt0init.obj
 0002:000002b8       ___xt_a                    004352b8     LIBCMT:crt0init.obj
 0002:000002bc       ___xt_z                    004352bc     LIBCMT:crt0init.obj
 0002:000002c4       ??_7runtime_error@std@@6B@ 004352c4     client.obj
 0002:000002d0       ??_7facet@locale@std@@6B@  004352d0     client.obj
 0002:000002d8       ??_7system_error@std@@6B@  004352d8     client.obj
 0002:000002e4       ??_7failure@ios_base@std@@6B@ 004352e4     client.obj
 0002:000002ec       ??_C@_0BF@OOHOMBOF@ios_base?3?3eofbit?5set?$AA@ 004352ec     client.obj
 0002:00000304       ??_C@_0BG@FMKFHCIL@ios_base?3?3failbit?5set?$AA@ 00435304     client.obj
 0002:0000031c       ??_C@_0BF@PHHKMMFD@ios_base?3?3badbit?5set?$AA@ 0043531c     client.obj
 0002:00000338       ??_7?$num_put@DV?$ostreambuf_iterator@DU?$char_traits@D@std@@@std@@@std@@6B@ 00435338     client.obj
 0002:00000360       ??_7bad_alloc@std@@6B@     00435360     client.obj
 0002:00000368       ??_C@_05LAPONLG@false?$AA@ 00435368     client.obj
 0002:00000370       ??_C@_04LOAJBDKD@true?$AA@ 00435370     client.obj
 0002:00000378       ??_C@_0BI@CFPLBAOH@invalid?5string?5position?$AA@ 00435378     client.obj
 0002:00000390       ??_C@_0BA@JFNIOLAK@string?5too?5long?$AA@ 00435390     client.obj
 0002:000003a0       ??_C@_00CNPNBAHC@?$AA@     004353a0     client.obj
 0002:000003a4       ??_C@_0BA@ELKIONDK@bad?5locale?5name?$AA@ 004353a4     client.obj
 0002:000003b8       ??_7?$numpunct@D@std@@6B@  004353b8     client.obj
 0002:000003d0       ??_C@_08EPJLHIJG@bad?5cast?$AA@ 004353d0     client.obj
 0002:000003dc       ??_C@_01KGKMHCOC@e?$AA@    004353dc     client.obj
 0002:000003e0       ??_C@_01DDCIFGEA@E?$AA@    004353e0     client.obj
 0002:000003e4       ??_C@_06NLINOEAE@?5size?3?$AA@ 004353e4     client.obj
 0002:000003ec       ??_C@_0BB@FLAPKLHN@?5Sent?5opcode?3?50x?$AA@ 004353ec     client.obj
 0002:00000400       ??_C@_0O@NPFKCNOE@Unknown?5Error?$AA@ 00435400     client.obj
 0002:00000410       ??_C@_07KAJBENLI@Error?3?5?$AA@ 00435410     client.obj
 0002:00000418       ??_C@_02EAOCLKAK@ld?$AA@   00435418     client.obj
 0002:0000041c       ??_C@_02BDDLJJBK@lu?$AA@   0043541c     client.obj
 0002:00000420       ??_C@_02HIKPPMOK@Ld?$AA@   00435420     client.obj
 0002:00000424       ??_C@_02CLHGNPPK@Lu?$AA@   00435424     client.obj
 0002:00000428       __real@38aa95a5b7f87a0f    00435428     client.obj
 0002:00000430       __real@4202a05f20000000    00435430     client.obj
 0002:00000438       __real@4733426172c74d82    00435438     client.obj
 0002:00000440       __real@3fe0000000000000    00435440     client.obj
 0002:00000448       ??_C@_02BBAHNLBA@?$CFp?$AA@ 00435448     client.obj
 0002:00000450       ??_C@_0HC@EGEOABAI@The?5world?5server?5?$CFs?5is?5full?5and?5@ 00435450     client.obj
 0002:000004c8       ??_C@_0EK@CHFKDNCB@You?5have?5been?5banned?5from?5the?5wo@ 004354c8     client.obj
 0002:00000518       ??_C@_0EN@NKKDILDI@You?5have?5been?5suspended?5from?5the@ 00435518     client.obj
 0002:00000568       ??_C@_0BB@FDLILBAA@World?5is?5locked?4?$AA@ 00435568     client.obj
 0002:0000057c       ??_C@_0P@JFFOGACA@World?5is?5down?4?$AA@ 0043557c     client.obj
 0002:0000058c       ??_C@_0BN@EMLLGPFE@?5Received?5unknown?5opcode?3?50x?$AA@ 0043558c     client.obj
 0002:000005ac       ??_C@_0BA@HJPBKAHK@8?909?92001?514?325?$AA@ 004355ac     client.obj
 0002:000005bc       ??_C@_0N@BECEJAI@LoginVersion?$AA@ 004355bc     client.obj
 0002:000005d0       ??_C@_0IG@LIGAELM@Error?51018?3?5You?5currently?5have?5a@ 004355d0     client.obj
 0002:00000658       ??_C@_02FIDLOBHM@me?$AA@   00435658     client.obj
 0002:0000065c       ??_C@_0CB@KBMIAOID@Malformed?5OP_Reg_ChangeAcctLogin@ 0043565c     client.obj
 0002:00000680       ??_C@_0BC@NBGBAGDL@Welcome?5to?5EQEmu?$CB?$AA@ 00435680     client.obj
 0002:00000694       ??_C@_0M@MKCHNIGM@LoginBanner?$AA@ 00435694     client.obj
 0002:000006a0       ??_C@_0BH@IEJJOAB@Worldserver?5not?5found?4?$AA@ 004356a0     client.obj
 0002:000006b8       ??_C@_0CJ@IJDAKKMD@ERROR?3?5OP_SessionKey?5while?5not?5l@ 004356b8     client.obj
 0002:000006e4       ??_C@_04HJMOFLDF@Free?$AA@ 004356e4     client.obj
 0002:000006f0       ??_C@_0EB@CGKGCIKK@Error?531337?3?5Can?8t?5change?5your?5p@ 004356f0     client.obj
 0002:00000734       ??_C@_06OJAIHGIC@unused?$AA@ 00435734     client.obj
 0002:0000073c       ??_C@_05HBCKHFGF@LS?$CD?$CFi?$AA@ 0043573c     client.obj
 0002:00000748       ??_C@_0GH@IAEGHMEE@This?5account?5has?5been?5SUSPENDED?4@ 00435748     client.obj
 0002:000007b0       ??_C@_0HC@PMDFFKKE@Your?5account?5has?5not?5been?5verifi@ 004357b0     client.obj
 0002:00000828       ??_C@_0GP@GIMOBPDA@Login?5requests?5from?5this?5IP?5addr@ 00435828     client.obj
 0002:00000898       ??_C@_0FE@CHBDGMKP@Login?5requests?5from?5this?5IP?5addr@ 00435898     client.obj
 0002:000008ec       ??_C@_0CA@ODPPMCDK@Incorrect?5username?5or?5password?4?$AA@ 004358ec     client.obj
 0002:00000910       ??_C@_0GE@IHDPEDEK@This?5account?5has?5been?5BANNED?4?5To@ 00435910     client.obj
 0002:00000974       ??_C@_0BH@OGHCDCIJ@Malformed?5OP_LoginInfo?$AA@ 00435974     client.obj
 0002:0000098c       ??_C@_0DA@BCEGGMPK@Wrong?5size?3?5OP_LoginInfo?0?5size?$DN?$CF@ 0043598c     client.obj
 0002:000009bc       ??_C@_0BF@BPENLCO@?5Received?5opcode?3?50x?$AA@ 004359bc     client.obj
 0002:000009d4       ??_C@_0N@CGNLBCCG@?5WHERE?5id?$DN?$CFi?$AA@ 004359d4     logindatabase.obj
 0002:000009e4       ??_C@_0CE@IINGMEKN@UPDATE?5login_worldservers?5SET?5na@ 004359e4     logindatabase.obj
 0002:00000a08       ??_C@_0ED@MAEEHABF@INSERT?5into?5login_stats?5?$CIplayers@ 00435a08     logindatabase.obj
 0002:00000a4c       ??_C@_0CA@LOEMOFPP@Error?5in?5GetLSLoginInfo?5query?5?8?$AA@ 00435a4c     logindatabase.obj
 0002:00000a6c       ??_C@_02KIDIFCCK@?8?5?$AA@ 00435a6c     logindatabase.obj
 0002:00000a70       ??_C@_0GO@EOCHFNDH@SELECT?5id?0?5name?0?5password?0?5lsadm@ 00435a70     logindatabase.obj
 0002:00000ae0       ??_C@_0CC@GLCGAIJI@Error?5in?5GetLSAccountName?5query?5@ 00435ae0     logindatabase.obj
 0002:00000b08       ??_C@_0EP@BDNCOIEF@Select?5id?0?5name?0?5lsadmin?0?5lsstat@ 00435b08     logindatabase.obj
 0002:00000b58       ??_C@_0CA@FPJFCAGN@Error?5in?5CheckWorldAuth?5query?5?8?$AA@ 00435b58     logindatabase.obj
 0002:00000b78       ??_C@_0GJ@MIJGAPHE@Select?5id?0?5password?0?5admin_id?0?5g@ 00435b78     logindatabase.obj
 0002:00000be4       ??_C@_0DE@JNALBMAK@SELECT?5id?5FROM?5active_accounts?5W@ 00435be4     logindatabase.obj
 0002:00000c18       ??_C@_0BM@IJGPOGIB@Error?5in?5CountUsers?5query?5?8?$AA@ 00435c18     logindatabase.obj
 0002:00000c34       ??_C@_0DE@CKNKHELI@SELECT?5id?5FROM?5active_accounts?5W@ 00435c34     logindatabase.obj
 0002:00000c68       ??_C@_0CC@EAKGMEHD@Invalid?5username?1password?5length@ 00435c68     logindatabase.obj
 0002:00000c8c       ??_C@_0P@FBNCNPPG@?$FLINVALID?5PASS?$FN?$AA@ 00435c8c     logindatabase.obj
 0002:00000c9c       ??_C@_07HEBIJBG@?5Typed?3?$AA@ 00435c9c     logindatabase.obj
 0002:00000ca4       ??_C@_0M@LLDFHANM@?5Expecting?3?$AA@ 00435ca4     logindatabase.obj
 0002:00000cb0       ??_C@_04CGFJFPFD@none?$AA@ 00435cb0     LWorld.obj
 0002:00000cb8       ??_C@_0L@KOLHEMGH@ChatServer?$AA@ 00435cb8     LWorld.obj
 0002:00000cc4       ??_C@_0BC@LLPNPGCF@?$CFi?5worlds?5listed?4?$AA@ 00435cc4     LWorld.obj
 0002:00000cd8       ??_C@_0BB@KFAAONBH@?5?5?5Address?3?7?7?7?$CFs?$AA@ 00435cd8     LWorld.obj
 0002:00000cec       ??_C@_0BJ@KBKCAHPA@?5?5?5IP?3?5?5?5?5?5?5?5?5?5?5?5?5?5?5?5?5?$CFs?$AA@ 00435cec     LWorld.obj
 0002:00000d08       ??_C@_0BJ@KGMDAPID@?5?5?5Number?5of?5Players?3?5?$CFi?$AA@ 00435d08     LWorld.obj
 0002:00000d24       ??_C@_0BJ@DJDJNMD@?5?5?5Number?5of?5Zones?3?5?5?5?$CFi?$AA@ 00435d24     LWorld.obj
 0002:00000d40       ??_C@_0BJ@MPHFLOEB@?5?5?5Account?3?5?5?5?5?5?5?5?5?5?5?5?$CFs?$AA@ 00435d40     LWorld.obj
 0002:00000d5c       ??_C@_08NAIIIBAK@Name?3?5?$CFs?$AA@ 00435d5c     LWorld.obj
 0002:00000d68       ??_C@_0O@GIGKLOHH@Ghost?5IP?5kick?$AA@ 00435d68     LWorld.obj
 0002:00000d78       ??_C@_06PJGIPCKE@NotMe?$CI?$AA@ 00435d78     LWorld.obj
 0002:00000d80       ??_C@_04OMAJLIMI@?$CJ?5?$DN?5?$AA@ 00435d80     LWorld.obj
 0002:00000d88       ??_C@_01JLIPDDHJ@?3?$AA@   00435d88     LWorld.obj
 0002:00000d8c       ??_C@_02GFKOMOKH@?5?$CI?$AA@ 00435d8c     LWorld.obj
 0002:00000d90       ??_C@_01PKGAHCOL@?$CJ?$AA@ 00435d90     LWorld.obj
 0002:00000d94       ??_C@_0BG@HDPJBECD@?5?$CIit?5wasnt?5connected?$CJ?$AA@ 00435d94     LWorld.obj
 0002:00000dac       ??_C@_0BJ@DKCAIACM@Removing?5GhostIP?5LWorld?$CI?$AA@ 00435dac     LWorld.obj
 0002:00000dc8       ??_C@_0M@CCOBKDAK@?$CJ?5from?5ip?3?5?$AA@ 00435dc8     LWorld.obj
 0002:00000dd4       ??_C@_07KNFGOPOE@?5port?3?5?$AA@ 00435dd4     LWorld.obj
 0002:00000ddc       ??_C@_08MFJCKJJO@softkick?$AA@ 00435ddc     LWorld.obj
 0002:00000de8       ??_C@_0P@DCEJJCDI@Ghost?5Acc?5Kick?$AA@ 00435de8     LWorld.obj
 0002:00000df8       ??_C@_0BK@HBBANFJM@Removing?5GhostAcc?5LWorld?$CI?$AA@ 00435df8     LWorld.obj
 0002:00000e14       ??_C@_0BI@HEAIHGK@Thown?5Error?3?5?$CFs?5?$CI?$CFs?3?$CFi?$CJ?$AA@ 00435e14     LWorld.obj
 0002:00000e2c       ??_C@_0O@HIFMKDPC@Fatal?5error?3?5?$AA@ 00435e2c     LWorld.obj
 0002:00000e3c       ??_C@_0DJ@IAAILCOH@LWorldList?3?3ConnectUplink?5called@ 00435e3c     LWorld.obj
 0002:00000e78       ??_C@_0L@INJCDDGB@LWorld?4cpp?$AA@ 00435e78     LWorld.obj
 0002:00000e84       ??_C@_07BAMMBJFH@?0?5line?5?$AA@ 00435e84     LWorld.obj
 0002:00000e8c       ??_C@_06KLNFECJK@0?43?410?$AA@ 00435e8c     LWorld.obj
 0002:00000e94       ??_C@_0CD@JKDNGIED@Connected?5to?5Master?5Login?5server@ 00435e94     LWorld.obj
 0002:00000eb8       ??_C@_0CE@JMLEKCNI@LWorldList?3?3ConnectUplink?5failed@ 00435eb8     LWorld.obj
 0002:00000edc       ??_C@_01GEODFPGF@?8?$AA@   00435edc     LWorld.obj
 0002:00000ee0       ??_C@_0N@KMIFEDED@Adding?5Peer?$CI?$AA@ 00435ee0     LWorld.obj
 0002:00000ef0       ??_C@_03LPPJIELD@?$CJ?3?5?$AA@ 00435ef0     LWorld.obj
 0002:00000ef4       ??_C@_0CH@PFGBNGKJ@Error?3?5AddPeer?$CIchar?$CK?$CJ?3?5?$CBParseAdd@ 00435ef4     LWorld.obj
 0002:00000f1c       ??_C@_0BH@OLGHFPHB@?0?5Unknown?5Type?0?5Name?3?5?$AA@ 00435f1c     LWorld.obj
 0002:00000f34       ??_C@_0BK@BDKKFGFB@?0?5Login?5Server?5?$CIin?$CJ?0?5IP?3?5?$AA@ 00435f34     LWorld.obj
 0002:00000f50       ??_C@_0L@JCNNMGPF@?$CJ?0?5AccID?3?5?$AA@ 00435f50     LWorld.obj
 0002:00000f5c       ??_C@_0BK@DJKKHP@?0?5Login?5Server?5?$CInc?$CJ?0?5IP?3?5?$AA@ 00435f5c     LWorld.obj
 0002:00000f78       ??_C@_0BL@LFHMAHFL@?0?5Login?5Server?5?$CIout?$CJ?0?5IP?3?5?$AA@ 00435f78     LWorld.obj
 0002:00000f94       ??_C@_0BE@IAPJDKPJ@?0?5Chat?5Server?0?5IP?3?5?$AA@ 00435f94     LWorld.obj
 0002:00000fa8       ??_C@_0N@MPHGDENJ@?0?5RemoteID?3?5?$AA@ 00435fa8     LWorld.obj
 0002:00000fb8       ??_C@_0BA@GPNJKFED@?0?5LinkWorldID?3?5?$AA@ 00435fb8     LWorld.obj
 0002:00000fc8       ??_C@_06EPLEAHCB@?0?5IP?3?5?$AA@ 00435fc8     LWorld.obj
 0002:00000fd0       ??_C@_04MEDALJFE@ID?3?5?$AA@ 00435fd0     LWorld.obj
 0002:00000fd8       ??_C@_08ICPLNKEC@?0?5Name?3?5?$AA@ 00435fd8     LWorld.obj
 0002:00000fe4       ??_C@_0O@FHEFAEHH@?0?5Local?0?5IP?3?5?$AA@ 00435fe4     LWorld.obj
 0002:00000ff4       ??_C@_0L@HNNEJOKF@?0?5Status?3?5?$AA@ 00435ff4     LWorld.obj
 0002:00001000       ??_C@_09OHABKODN@?0?5AccID?3?5?$AA@ 00436000     LWorld.obj
 0002:0000100c       ??_C@_0BN@LNBJDKDH@?$DN?$DN?$DN?$DN?$DN?$DN?$DN?$DN?$DN?$DN?$DN?$DN?$DN?$DN?$DN?$DN?$DN?$DN?$DN?$DN?$DN?$DN?$DN?$DN?$DN?$DN?$DN?$DN?$AA@ 0043600c     LWorld.obj
 0002:0000102c       ??_C@_0M@DPHBJGIJ@World?5List?3?$AA@ 0043602c     LWorld.obj
 0002:00001038       ??_C@_0BP@HMJAHGNB@Error?5in?5LoadWorldList?5query?5?8?$AA@ 00436038     LWorld.obj
 0002:00001058       ??_C@_07LHPMHBFD@?5Server?$AA@ 00436058     LWorld.obj
 0002:00001060       ??_C@_06LGMEBDBC@Server?$AA@ 00436060     LWorld.obj
 0002:00001068       ??_C@_02DKCKIIND@?$CFs?$AA@ 00436068     LWorld.obj
 0002:00001070       ??_C@_0FH@LMJIDENC@Select?5id?0?5account?0?5name?0?5admin_@ 00436070     LWorld.obj
 0002:000010c8       ??_C@_0BF@EADKLOJP@LWorld?5login?5error?0?5?$AA@ 004360c8     LWorld.obj
 0002:000010e0       ??_C@_0M@KLHMFCDJ@?4?5Account?$DN?8?$AA@ 004360e0     LWorld.obj
 0002:000010ec       ??_C@_0BD@CCFEDNIP@Chat?5login?5error?0?5?$AA@ 004360ec     LWorld.obj
 0002:00001100       ??_C@_0BK@MMLNFOMP@LoginServer?5login?5error?0?5?$AA@ 00436100     LWorld.obj
 0002:0000111c       ??_C@_0BI@JKKIEECN@?3?5Peer?5connected?3?5?$CIin?$CJ?5?$AA@ 0043611c     LWorld.obj
 0002:00001134       ??_C@_0CH@DINNHJFP@TCP?5Init?$CI?$CJ?5called?5when?5already?5i@ 00436134     LWorld.obj
 0002:0000115c       ??_C@_0BM@FKMANEN@?3?5Attempting?5peer?5connect?3?5?$AA@ 0043615c     LWorld.obj
 0002:00001178       ??_C@_0CG@DEIOOEEG@?3?5Giving?5up?5on?5peer?5reconnect?3?5?$CI@ 00436178     LWorld.obj
 0002:000011a0       ??_C@_0EC@NKHHGHEO@Error?3?5ServerOP_UsertoWorldReq?5r@ 004361a0     LWorld.obj
 0002:000011e4       ??_C@_0DM@JEOKPMMB@Error?3?5ServerOP_UsertoWorldReq?5r@ 004361e4     LWorld.obj
 0002:00001220       ??_C@_0BJ@EOMFHJNH@Unknown?5LoginSOPcode?3?50x?$AA@ 00436220     LWorld.obj
 0002:0000123c       ??_C@_0L@HDOBBGDD@Ghost?5kick?$AA@ 0043623c     LWorld.obj
 0002:00001248       ??_C@_0CP@JICOKLEB@Server?5?$CIfrom?5linked?5login?$CJ?5faile@ 00436248     LWorld.obj
 0002:00001278       ??_C@_0CO@EFJHIDIL@Wrong?5size?5on?5ServerOP_WorldList@ 00436278     LWorld.obj
 0002:000012a8       ??_C@_0EC@FLBOPJOP@Error?3?5ServerOP_WorldListUpdate?5@ 004362a8     LWorld.obj
 0002:000012ec       ??_C@_0CO@NEGOEHBD@Error?3?5ServerOP_WorldListRemove?3@ 004362ec     LWorld.obj
 0002:0000131c       ??_C@_0CO@ECFIPNCI@Wrong?5size?5on?5ServerOP_WorldList@ 0043631c     LWorld.obj
 0002:00001350       ??_C@_0EC@IELLFMCI@Error?3?5ServerOP_WorldListRemove?5@ 00436350     LWorld.obj
 0002:00001394       ??_C@_0DO@MGPLLEIK@Error?3?5ServerOP_EncapPacket?5from@ 00436394     LWorld.obj
 0002:000013d4       ??_C@_0DH@BGMPPELM@Error?3?5ServerOP_ListWorlds?3?5Pack@ 004363d4     LWorld.obj
 0002:0000140c       ??_C@_0CK@DLCPLONI@Wrong?5size?5on?5ServerOP_PeerConne@ 0043640c     LWorld.obj
 0002:00001438       ??_C@_0N@JIFEEIGC@?0?5Expected?3?5?$AA@ 00436438     LWorld.obj
 0002:00001448       ??_C@_0DN@DJEGFDEC@Error?3?5ServerOP_PeerConnect?5from@ 00436448     LWorld.obj
 0002:00001488       ??_C@_0DO@CEANKHND@Error?3?5ServerOP_PeerConnect?5from@ 00436488     LWorld.obj
 0002:000014c8       ??_C@_0EJ@BBNPCMAL@Error?3?5ServerOP_SystemwideMessag@ 004364c8     LWorld.obj
 0002:00001514       ??_C@_0BB@CCLHECDD@Error?5message?3?5?8?$AA@ 00436514     LWorld.obj
 0002:00001528       ??_C@_0CK@IEGLPGBE@?3?5World?5server?5responded?5with?5Fa@ 00436528     LWorld.obj
 0002:00001554       ??_C@_0BG@IOLJNLNF@Bad?5Login?5Password?3?5?$CD?$AA@ 00436554     LWorld.obj
 0002:0000156c       ??_C@_0DF@DIAHOHFP@Login?5tried?5to?5connect?0?5but?5i?8m?5@ 0043656c     LWorld.obj
 0002:000015a4       ??_C@_0BC@CADKPAMI@Not?5a?5mesh?5server?$AA@ 004365a4     LWorld.obj
 0002:000015b8       ??_C@_0DH@OLGDDCEN@Login?5tried?5to?5connect?0?5but?5i?8m?5@ 004365b8     LWorld.obj
 0002:000015f0       ??_C@_0BE@PJNMBCCP@Not?5a?5master?5server?$AA@ 004365f0     LWorld.obj
 0002:00001604       ??_C@_0DN@GHDMCBFF@Unnamed?5servers?5not?5allowed?5to?5c@ 00436604     LWorld.obj
 0002:00001644       ??_C@_0BA@PGGAJAAG@Bad?5Password?3?5?$CD?$AA@ 00436644     LWorld.obj
 0002:00001658       ??_C@_0EJ@BPKOAKLC@Bad?5server?5name?0?5name?5may?5not?5co@ 00436658     LWorld.obj
 0002:000016a4       ??_C@_0CB@LJPGBKOG@Bad?5server?5name?4?5Unknown?5reason?4@ 004366a4     LWorld.obj
 0002:000016c8       ??_C@_0BL@MHMGCBLM@Server?5failed?5name?5check?3?5?$AA@ 004366c8     LWorld.obj
 0002:000016e4       ??_C@_0BB@PIOANFGO@Server?5Name?5Here?$AA@ 004366e4     LWorld.obj
 0002:000016f8       ??_C@_0P@NKALCGHL@Unnamed?5server?$AA@ 004366f8     LWorld.obj
 0002:00001708       ??_C@_0BH@IJKMAHCN@Unknown?5Server?5Type?3?5?$CD?$AA@ 00436708     LWorld.obj
 0002:00001720       ??_C@_0BE@GPJAMPDN@Unknown?5Server?5Type?$AA@ 00436720     LWorld.obj
 0002:00001734       ??_C@_0BF@FFNJHFKM@Bad?5Chat?5Password?3?5?$CD?$AA@ 00436734     LWorld.obj
 0002:0000174c       ??_C@_0N@PDHKEEKO@Bad?5password?$AA@ 0043674c     LWorld.obj
 0002:0000175c       ??_C@_0BH@PGNICPGL@Bad?5Version?5?$CIproto?$CJ?3?5?$CD?$AA@ 0043675c     LWorld.obj
 0002:00001774       ??_C@_0BM@JDADCBKJ@Bad?5Version?5?$CIwrong?5size?$CJ?3?5?$CD?$AA@ 00436774     LWorld.obj
 0002:00001790       ??_C@_01CLKCMJKC@?5?$AA@   00436790     LWorld.obj
 0002:00001794       ??_C@_0BC@IOFLAFNG@Incorrect?5version?$AA@ 00436794     LWorld.obj
 0002:000017a8       ??_C@_0M@MFACMHKH@Pack?5size?3?5?$AA@ 004367a8     LWorld.obj
 0002:000017b4       ??_C@_02IKAHHCAI@?$CFi?$AA@ 004367b4     LWorld.obj
 0002:000017b8       ??_C@_0BJ@CHBOHJON@?3?5Peer?5connected?3?5?$CIout?$CJ?5?$AA@ 004367b8     LWorld.obj
 0002:000017d4       ??_C@_0BD@PJADBLG@?$CJ?5?$CIChat?$CJ?5from?5ip?3?5?$AA@ 004367d4     LWorld.obj
 0002:000017e8       ??_C@_0BB@BCFLGAKP@Removing?5LWorld?$CI?$AA@ 004367e8     LWorld.obj
 0002:000017fc       ??_C@_0BE@KIGGCIFJ@?$CJ?5?$CILogin?$CJ?5from?5ip?3?5?$AA@ 004367fc     LWorld.obj
 0002:00001810       ??_C@_08EKLIFFJE@?0?5port?3?5?$AA@ 00436810     LWorld.obj
 0002:0000181c       ??_C@_0BC@NDBFDJDN@Invalid?5Command?4?6?$AA@ 0043681c     net.obj
 0002:00001830       ??_C@_0BD@FPNAFONN@v?5?$DN?5Login?5Version?6?$AA@ 00436830     net.obj
 0002:00001844       ??_C@_0BO@PKPOCCAC@l?5?$DN?5Listing?5of?5World?5Servers?6?$AA@ 00436844     net.obj
 0002:00001864       ??_C@_0BF@FLLOAPGH@Available?5Commands?3?6?$AA@ 00436864     net.obj
 0002:0000187c       ??_C@_0BO@ECOPFELP@?$DN?$DN?$DN?$DN?$DN?$DN?$DN?$DN?$DN?$DN?$DN?$DN?$DN?$DN?$DN?$DN?$DN?$DN?$DN?$DN?$DN?$DN?$DN?$DN?$DN?$DN?$DN?$DN?6?$AA@ 0043687c     net.obj
 0002:0000189c       ??_C@_0M@CGHPENFL@Got?5signal?5?$AA@ 0043689c     net.obj
 0002:000018a8       ??_C@_0CB@MAJONLDF@Incomplete?5LoginServer?4INI?5file?4@ 004368a8     net.obj
 0002:000018cc       ??_C@_0BG@FCLLFLAN@LoginServer?4ini?5read?4?$AA@ 004368cc     net.obj
 0002:000018e4       ??_C@_0L@GJMJAOEP@serverport?$AA@ 004368e4     net.obj
 0002:000018f0       ??_C@_0BG@GOBOFGLJ@Stats?5writing?5enabled?$AA@ 004368f0     net.obj
 0002:00001908       ??_C@_0M@HBJHMMND@enablestats?$AA@ 00436908     net.obj
 0002:00001914       ??_C@_0P@DPAIEDMB@uplinkpassword?$AA@ 00436914     net.obj
 0002:00001924       ??_C@_0O@ILEDOEFJ@uplinkaccount?$AA@ 00436924     net.obj
 0002:00001934       ??_C@_0L@KHLMDDGN@uplinkport?$AA@ 00436934     net.obj
 0002:00001940       ??_C@_0O@MADHEICH@uplinkaddress?$AA@ 00436940     net.obj
 0002:00001950       ??_C@_0FA@NFIKBNEF@?5?5?5?5?5?5?5Make?5sure?5your?5?8ServerMod@ 00436950     net.obj
 0002:000019a0       ??_C@_0EG@LMDKMDCH@Error?3?5?8uplinkpeer?8?5found?5in?5Log@ 004369a0     net.obj
 0002:000019e8       ??_C@_0L@IHDCMBHK@uplinkpeer?$AA@ 004369e8     net.obj
 0002:000019f4       ??_C@_04GONFKEIN@Mesh?$AA@ 004369f4     net.obj
 0002:000019fc       ??_C@_05FDIJKFCP@Slave?$AA@ 004369fc     net.obj
 0002:00001a04       ??_C@_06INNNFHKM@Master?$AA@ 00436a04     net.obj
 0002:00001a0c       ??_C@_0DD@GLFCGEEG@?$FLLoginConfig?$FN?5block?5not?5found?5in@ 00436a0c     net.obj
 0002:00001a40       ??_C@_0L@NNOKEHGC@Standalone?$AA@ 00436a40     net.obj
 0002:00001a4c       ??_C@_0L@LKMLKBKO@servermode?$AA@ 00436a4c     net.obj
 0002:00001a58       ??_C@_0O@LMALBNE@?$CF?$FL?$FO?$DN?$FN?$DN?$CF?$FL?$FO?6?$FN?$AN?6?$AA@ 00436a58     net.obj
 0002:00001a68       ??_C@_0BA@ELBOJHN@?$FLLoginConfig?$FN?$AN?6?$AA@ 00436a68     net.obj
 0002:00001a78       ??_C@_0P@MFFLBHFP@?$FLLoginConfig?$FN?6?$AA@ 00436a78     net.obj
 0002:00001a88       ??_C@_0CJ@GFEMODFO@Couldn?8t?5open?5the?5LoginServer?4in@ 00436a88     net.obj
 0002:00001ab4       ??_C@_0BA@BOIOIKFK@LoginServer?4ini?$AA@ 00436ab4     net.obj
 0002:00001ac4       ??_C@_01KDCPPGHE@r?$AA@    00436ac4     net.obj
 0002:00001ac8       ??_C@_0BF@EMOAHFKE@Server?5mode?3?5Unknown?$AA@ 00436ac8     net.obj
 0002:00001ae0       ??_C@_0BN@ODOMEABD@EQNetworkServer?4Open?$CI?$CJ?5error?$AA@ 00436ae0     net.obj
 0002:00001b00       ??_C@_0CA@FKFLHPJL@Login?5server?5listening?5on?5port?3?$AA@ 00436b00     net.obj
 0002:00001b20       ??_C@_0BC@KJBPLIIN@Server?5mode?3?5Mesh?$AA@ 00436b20     net.obj
 0002:00001b34       ??_C@_0BD@FDEOGPDD@Server?5mode?3?5Slave?$AA@ 00436b34     net.obj
 0002:00001b48       ??_C@_0BE@JJNMMMCJ@Server?5mode?3?5Master?$AA@ 00436b48     net.obj
 0002:00001b5c       ??_C@_0BI@PFOKLDEG@Server?5mode?3?5Standalone?$AA@ 00436b5c     net.obj
 0002:00001b74       ??_C@_0BN@IBPHJBFK@Could?5not?5set?5signal?5handler?$AA@ 00436b74     net.obj
 0002:00001b94       ??_C@_06BIBHMBFB@qeynos?$AA@ 00436b94     database.obj
 0002:00001b9c       ??_C@_0CE@GJBHIPOL@Could?5not?5connect?5to?5mysql?5serve@ 00436b9c     database.obj
 0002:00001bc0       ??_C@_0CI@KBPDOHDF@Access?5to?5the?5mysql?5server?5was?5d@ 00436bc0     database.obj
 0002:00001be8       ??_C@_0N@LEPKIKBG@?$CF?$FL?$FO?$DN?$FN?$DN?$CF?$FL?$FO?6?$FN?6?$AA@ 00436be8     database.obj
 0002:00001bf8       ??_C@_0BF@HNJDOOPP@Couldn?8t?5open?5?8?$CFs?8?4?6?$AA@ 00436bf8     database.obj
 0002:00001c10       ??_C@_0FG@ODHEIDAL@SELECT?5varname?0?5value?0?5unix_time@ 00436c10     database.obj
 0002:00001c68       ??_C@_0BJ@KMGHDFBC@Incomplete?5DB?4INI?5file?4?6?$AA@ 00436c68     database.obj
 0002:00001c84       ??_C@_0BB@IGBJMGOH@Using?5database?5?8?$AA@ 00436c84     database.obj
 0002:00001c98       ??_C@_05NALDDAJO@?8?5at?5?$AA@ 00436c98     database.obj
 0002:00001ca0       ??_C@_0CH@INHBIBOJ@Failed?5to?5connect?5to?5database?3?5E@ 00436ca0     database.obj
 0002:00001cc8       ??_C@_0EB@NKLPEMPJ@Unknown?5?8compression?8?5setting?5in@ 00436cc8     database.obj
 0002:00001d0c       ??_C@_03MCADLMAF@off?$AA@  00436d0c     database.obj
 0002:00001d10       ??_C@_0CH@FMAAFLDO@?$FLDatabase?$FN?5block?5not?5found?5in?5DB@ 00436d10     database.obj
 0002:00001d38       ??_C@_0BD@NGHCJDLI@DB?5Compression?5on?4?$AA@ 00436d38     database.obj
 0002:00001d4c       ??_C@_02LIELOMNJ@on?$AA@   00436d4c     database.obj
 0002:00001d50       ??_C@_0M@DGJEMLOB@compression?$AA@ 00436d50     database.obj
 0002:00001d5c       ??_C@_04PJOLNDGD@data?$AA@ 00436d5c     database.obj
 0002:00001d64       ??_C@_04BBDAIEHH@pass?$AA@ 00436d64     database.obj
 0002:00001d6c       ??_C@_04CCHAHKJA@user?$AA@ 00436d6c     database.obj
 0002:00001d74       ??_C@_04OODOLJMA@host?$AA@ 00436d74     database.obj
 0002:00001d7c       ??_C@_0N@KAHGIPLO@?$FLDatabase?$FN?$AN?6?$AA@ 00436d7c     database.obj
 0002:00001d8c       ??_C@_0M@NDPJLJDJ@?$FLDatabase?$FN?6?$AA@ 00436d8c     database.obj
 0002:00001d98       ??_C@_0BC@JEIKFDPB@Read?5README?4TXT?$CB?6?$AA@ 00436d98     database.obj
 0002:00001dac       ??_C@_06JGPPPJAO@db?4ini?$AA@ 00436dac     database.obj
 0002:00001db4       ??_C@_0BP@BAGGMNOE@Error?5in?5LoadVariables?5query?5?8?$AA@ 00436db4     database.obj
 0002:00001dd4       ??_C@_07COGNKMKN@?$CD?$CFi?3?5?$CFs?$AA@ 00436dd4     dbcore.obj
 0002:00001ddc       ??_C@_0BM@HMIBIHPL@DBcore?3?3RunQuery?3?5No?5Result?$AA@ 00436ddc     dbcore.obj
 0002:00001df8       ??_C@_0BB@LKFIIAJC@DB?5Query?5Error?5?$CD?$AA@ 00436df8     dbcore.obj
 0002:00001e0c       ??_C@_02LMMGGCAJ@?3?5?$AA@ 00436e0c     dbcore.obj
 0002:00001e10       ??_C@_0DL@NCDAFNKH@Database?5Error?3?5Lost?5connection?0@ 00436e10     dbcore.obj
 0002:00001e4c       ??_C@_05GCIPIGEI@Debug?$AA@ 00436e4c     debug.obj
 0002:00001e54       ??_C@_05NAOIJFC@Error?$AA@ 00436e54     debug.obj
 0002:00001e5c       ??_C@_06EFAGIKOH@Normal?$AA@ 00436e5c     debug.obj
 0002:00001e64       ??_C@_06PGDKHFME@Status?$AA@ 00436e64     debug.obj
 0002:00001e6c       ??_C@_0BB@LDPFHNGD@logs?1eqemu_debug?$AA@ 00436e6c     debug.obj
 0002:00001e80       ??_C@_0BB@NMHEHCHJ@logs?1eqemu_error?$AA@ 00436e80     debug.obj
 0002:00001e94       ??_C@_0L@EPEGKDBN@logs?1eqemu?$AA@ 00436e94     debug.obj
 0002:00001ea0       ??_C@_0BB@MPNKKKEG@Starting?5Log?3?5?$CFs?$AA@ 00436ea0     debug.obj
 0002:00001eb4       ??_C@_0CP@EGFLNOHK@?9?9?9?9?9?9?9?9?9?9?9?9?9?9?9?9?9?9?9?9?9?9?9?9?9?9?9?9?9?9?9?9@ 00436eb4     debug.obj
 0002:00001ee4       ??_C@_0BK@IAJGGLNK@Failed?5to?5open?5log?5file?3?5?$AA@ 00436ee4     debug.obj
 0002:00001f00       ??_C@_01MCMALHOG@a?$AA@    00436f00     debug.obj
 0002:00001f04       ??_C@_0O@JHLKCGPJ@?$CFs?$CFs_?$CF04i?4log?$AA@ 00436f04     debug.obj
 0002:00001f14       ??_C@_01EEMJAFIK@?6?$AA@   00436f14     debug.obj
 0002:00001f18       ??_C@_05KJDPJACP@?$FL?$CFs?$FN?5?$AA@ 00436f18     debug.obj
 0002:00001f20       ??_C@_0BP@GHFFCBEA@?$FL?$CF02d?4?$CF02d?4?5?9?5?$CF02d?3?$CF02d?3?$CF02d?$FN?5?$AA@ 00436f20     debug.obj
 0002:00001f40       ??_C@_03NDEAONJP@?5?5?5?$AA@ 00436f40     debug.obj
 0002:00001f44       ??_C@_02KNHHEEKP@?5?5?$AA@ 00436f44     debug.obj
 0002:00001f48       ??_C@_05BFHEBJNP@?$CF02X?5?$AA@ 00436f48     debug.obj
 0002:00001f50       ??_C@_02KFKPNHPM@?9?5?$AA@ 00436f50     debug.obj
 0002:00001f58       ??_7EQNetworkPacket@@6B@   00436f58     EQNetwork.obj
 0002:00001f60       ??_7EQNetworkFragmentGroup@@6B@ 00436f60     EQNetwork.obj
 0002:00001f68       ??_7EQNetworkServer@@6B@   00436f68     EQNetwork.obj
 0002:00001f70       ??_7EQNetworkFragmentGroupList@@6B@ 00436f70     EQNetwork.obj
 0002:00001f78       ??_7EQNetworkConnection@@6B@ 00436f78     EQNetwork.obj
 0002:00001f7c       ??_C@_0CN@IEFMLMNI@EQNetworkConnection?3?3QueuePacket@ 00436f7c     EQNetwork.obj
 0002:00001fac       ??_C@_0BI@HDKCIHMG@?4?4?2common?2EQNetwork?4cpp?$AA@ 00436fac     EQNetwork.obj
 0002:00001fc4       ??_C@_0DC@IIEPIBOM@EQNetworkConnection?3?3FastQueuePa@ 00436fc4     EQNetwork.obj
 0002:00001ff8       ??_C@_0EB@FPHCMOOJ@EQNetworkConnection?3?3Connect?$CI?$CJ?5c@ 00436ff8     EQNetwork.obj
 0002:0000203c       ??_C@_0BG@DGCBBBEI@Illegal?5packet?5length?$AA@ 0043703c     EQNetwork.obj
 0002:00002058       ??_C@_0EB@JIFDHAA@?$CF02x?$CF02x?$CF02x?$CF02x?$CF02x?$CF02x?$CF02x?$CF02x@ 00437058     md5.obj
 0002:0000209c       ??_C@_01EFFIKLCJ@n?$AA@    0043709c     MiscFunctions.obj
 0002:000020a0       ??_C@_01EANLCPLP@y?$AA@    004370a0     MiscFunctions.obj
 0002:000020a4       ??_C@_08BEHKFNNO@disabled?$AA@ 004370a4     MiscFunctions.obj
 0002:000020b0       ??_C@_07MHHIKOPA@enabled?$AA@ 004370b0     MiscFunctions.obj
 0002:000020b8       ??_C@_07DBNODEFN@disable?$AA@ 004370b8     MiscFunctions.obj
 0002:000020c0       ??_C@_06OFNJOBDK@enable?$AA@ 004370c0     MiscFunctions.obj
 0002:000020c8       ??_C@_02KAJCLHKP@no?$AA@   004370c8     MiscFunctions.obj
 0002:000020cc       ??_C@_03ICICOMAL@yes?$AA@  004370cc     MiscFunctions.obj
 0002:000020d0       ??_C@_0CH@FCAOFEHD@Unable?5to?5get?5the?5host?5name?4?5Err@ 004370d0     MiscFunctions.obj
 0002:000020f8       ??_C@_0BL@FCHGMHHG@ResolveIP?$CI?$CJ?3?5hostname?5?$DN?$DN?50?$AA@ 004370f8     MiscFunctions.obj
 0002:00002114       ??_C@_01LFCBOECM@?4?$AA@   00437114     MiscFunctions.obj
 0002:00002118       ??_C@_01KMDKNFGN@?1?$AA@   00437118     MiscFunctions.obj
 0002:0000211c       ??_C@_03LGOGDKEL@?5?$HM?5?$AA@ 0043711c     packet_dump.obj
 0002:00002120       ??_C@_0BF@KIEKEKPI@Dumping?5Applayer?3?50x?$AA@ 00437120     packet_dump.obj
 0002:00002138       ??_C@_0BJ@KPNMCCPI@Dumping?5ServerPacket?3?50x?$AA@ 00437138     packet_dump.obj
 0002:00002154       ??_C@_05GDHACFMB@1?42?43?$AA@ 00437154     packet_functions.obj
 0002:0000215c       ??_C@_0BB@EELAPGFL@Packet?5contents?3?$AA@ 0043715c     packet_functions.obj
 0002:00002170       ??_C@_0CK@KIPBEPJF@Error?3?5InflatePacket?3?5inflate?$CI?$CJ?5@ 00437170     packet_functions.obj
 0002:0000219c       ??_C@_02OCDGNCGI@?5?8?$AA@ 0043719c     packet_functions.obj
 0002:000021a0       ??_C@_0BL@MOLBKPNH@listen?$CI?$CJ?5failed?0?5Error?3?5?$CFd?$AA@ 004371a0     TCPConnection.obj
 0002:000021bc       ??_C@_0L@BEFHLMDM@bind?$CI?$CJ?3?5?$DM0?$AA@ 004371bc     TCPConnection.obj
 0002:000021c8       ??_C@_0BJ@JDCGJPAD@socket?$CI?$CJ?3?5INVALID_SOCKET?$AA@ 004371c8     TCPConnection.obj
 0002:000021e4       ??_C@_0BO@HBPBPDCP@Listening?5socket?5already?5open?$AA@ 004371e4     TCPConnection.obj
 0002:00002208       ??_7TCPConnection@@6B@     00437208     TCPConnection.obj
 0002:00002220       ??_C@_0BB@NDAFJHND@?$AA?$CK?$CKPACKETMODE?$CK?$CK?$AN?$AA@ 00437220     TCPConnection.obj
 0002:00002234       ??_C@_0P@JGLKBMGI@?$CK?$CKPACKETMODE?$CK?$CK?$AA@ 00437234     TCPConnection.obj
 0002:00002248       ??_C@_0FA@OHPOAEAC@TCPConnection?3?3ProcessReceivedDa@ 00437248     TCPConnection.obj
 0002:0000229c       ??_7TCPServer@@6B@         0043729c     TCPConnection.obj
 0002:000022a0       ??_C@_0DN@EIDEALPO@Error?3?5TCPConnection?3?5RemoteID?5?$DN@ 004372a0     TCPConnection.obj
 0002:000022e0       ??_C@_0BM@GLJKHFIK@?4?4?2common?2TCPConnection?4cpp?$AA@ 004372e0     TCPConnection.obj
 0002:000022fc       ??_C@_0DH@PIINFCEJ@TCPConnection?3?3Free?$CI?$CJ?5called?5on?5@ 004372fc     TCPConnection.obj
 0002:00002334       ??_C@_0DO@CIIFGKAP@TCPConnection?3?3Connect?$CI?$CJ?3?5Alloca@ 00437334     TCPConnection.obj
 0002:00002374       ??_C@_0DG@LAHIGJLP@TCPConnection?3?3Connect?$CI?$CJ?3?5connec@ 00437374     TCPConnection.obj
 0002:000023b0       ??_C@_0EA@FHCCHOMH@TCPConnection?3?3Connect?$CI?$CJ?5call?5on@ 004373b0     TCPConnection.obj
 0002:000023f0       ??_C@_0DC@JINBPJOF@Switch?5to?5RelayServer?5mode?5on?5ou@ 004373f0     TCPConnection.obj
 0002:00002424       ??_C@_0CN@OKBGGIBF@Switch?5to?5RelayServer?5mode?5by?5a?5@ 00437424     TCPConnection.obj
 0002:00002454       ??_C@_0DM@DGAMMPEL@Switch?5to?5RelayServer?5mode?5when?5@ 00437454     TCPConnection.obj
 0002:00002490       ??_C@_0CI@IMFDLAEP@New?5RelayClient?3?5wrong?5size?0?5exp@ 00437490     TCPConnection.obj
 0002:000024b8       ??_C@_0DA@CCKJOIAM@New?5RelayClient?3?5illegal?5on?5outg@ 004374b8     TCPConnection.obj
 0002:000024e8       ??_C@_0CJ@CALCAIAD@New?5RelayClient?3?5wrong?5size?0?5exp@ 004374e8     TCPConnection.obj
 0002:00002514       ??_C@_0CN@KKHAKOIA@New?5RelayClient?5when?5not?5in?5Rela@ 00437514     TCPConnection.obj
 0002:00002544       ??_C@_0CG@CEBFCC@Delete?5RelayClient?3?5RelayLink?5?$CB?$DN@ 00437544     TCPConnection.obj
 0002:0000256c       ??_C@_0CL@INGFOIAK@Delete?5RelayClient?3?5wrong?5size?0?5@ 0043756c     TCPConnection.obj
 0002:00002598       ??_C@_0DA@PJGINCIE@Delete?5RelayClient?5when?5not?5in?5R@ 00437598     TCPConnection.obj
 0002:000025c8       ??_C@_0DB@IKFHBNBN@TCPConnection?3?3SendData?$CI?$CJ?3?5send?$CI@ 004375c8     TCPConnection.obj
 0002:000025fc       ??_C@_0CO@JCOALCHE@TCPConnection?3?3SendData?$CI?$CJ?3?5WTF?$CB?5@ 004375fc     TCPConnection.obj
 0002:0000262c       ??_C@_0BK@JAGMJMLJ@TCPServerLoop?$CI?$CJ?3?5tmp?5?$DN?50?$CB?$AA@ 0043762c     TCPConnection.obj
 0002:00002648       ??_C@_0BO@IGEJOJI@TCPConnectionLoop?$CI?$CJ?3?5tmp?5?$DN?50?$CB?$AA@ 00437648     TCPConnection.obj
 0002:00002668       ??_C@_0EF@CIMPLLNP@TCPConnection?3?3AsyncConnect?$CI?$CJ?5ca@ 00437668     TCPConnection.obj
 0002:000026b0       ??_C@_0CO@JEKLODDB@TCPConnection?3?3RecvData?$CI?$CJ?3?5Conne@ 004376b0     TCPConnection.obj
 0002:000026e0       ??_C@_0CF@DCHHHEHM@TCPConnection?3?3RecvData?$CI?$CJ?3?5Error@ 004376e0     TCPConnection.obj
 0002:00002708       ??_C@_0EE@GGHMLKEF@TCPConnection?3?3RecvData?$CI?$CJ?3?5recvb@ 00437708     TCPConnection.obj
 0002:00002750       _deflate_copyright         00437750     zlib:deflate.obj
 0002:000030b0       ??_C@_0BH@FGKKJGOC@incorrect?5length?5check?$AA@ 004380b0     zlib:inflate.obj
 0002:000030c8       ??_C@_0BF@MEIGEHBE@incorrect?5data?5check?$AA@ 004380c8     zlib:inflate.obj
 0002:000030e0       ??_C@_0BO@ECPMAOGG@invalid?5distance?5too?5far?5back?$AA@ 004380e0     zlib:inflate.obj
 0002:00003100       ??_C@_0BG@LBKINIKP@invalid?5distance?5code?$AA@ 00438100     zlib:inflate.obj
 0002:00003118       ??_C@_0BM@FFFLPBBC@invalid?5literal?1length?5code?$AA@ 00438118     zlib:inflate.obj
 0002:00003134       ??_C@_0BG@GMDFCBGP@invalid?5distances?5set?$AA@ 00438134     zlib:inflate.obj
 0002:0000314c       ??_C@_0BK@BMMPFBBH@invalid?5bit?5length?5repeat?$AA@ 0043814c     zlib:inflate.obj
 0002:00003168       ??_C@_0BM@IIMGAINC@invalid?5literal?1lengths?5set?$AA@ 00438168     zlib:inflate.obj
 0002:00003184       ??_C@_0CE@GMIGFPBB@too?5many?5length?5or?5distance?5symb@ 00438184     zlib:inflate.obj
 0002:000031a8       ??_C@_0BJ@HDEPPGOH@invalid?5code?5lengths?5set?$AA@ 004381a8     zlib:inflate.obj
 0002:000031c4       ??_C@_0BN@LGAADGOK@invalid?5stored?5block?5lengths?$AA@ 004381c4     zlib:inflate.obj
 0002:000031e4       ??_C@_0BD@PJCBIDD@invalid?5block?5type?$AA@ 004381e4     zlib:inflate.obj
 0002:000031f8       ??_C@_0BE@GONKLEPM@header?5crc?5mismatch?$AA@ 004381f8     zlib:inflate.obj
 0002:0000320c       ??_C@_0BJ@BLBBCOMO@unknown?5header?5flags?5set?$AA@ 0043820c     zlib:inflate.obj
 0002:00003228       ??_C@_0BH@LIBMMIGA@incorrect?5header?5check?$AA@ 00438228     zlib:inflate.obj
 0002:00003240       ??_C@_0BE@EMOGCLGO@invalid?5window?5size?$AA@ 00438240     zlib:inflate.obj
 0002:00003254       ??_C@_0BL@IHKGDAEE@unknown?5compression?5method?$AA@ 00438254     zlib:inflate.obj
 0002:000038b8       __dist_code                004388b8     zlib:trees.obj
 0002:00003ab8       __length_code              00438ab8     zlib:trees.obj
 0002:00005ca8       ??_C@_0BF@CJFPCCEG@incompatible?5version?$AA@ 0043aca8     zlib:zutil.obj
 0002:00005cc0       ??_C@_0N@DFPGLBGC@buffer?5error?$AA@ 0043acc0     zlib:zutil.obj
 0002:00005cd0       ??_C@_0BE@OGGJBMCE@insufficient?5memory?$AA@ 0043acd0     zlib:zutil.obj
 0002:00005ce4       ??_C@_0L@HAHMBNLP@data?5error?$AA@ 0043ace4     zlib:zutil.obj
 0002:00005cf0       ??_C@_0N@MKKNPMJD@stream?5error?$AA@ 0043acf0     zlib:zutil.obj
 0002:00005d00       ??_C@_0L@KIJFAKBJ@file?5error?$AA@ 0043ad00     zlib:zutil.obj
 0002:00005d0c       ??_C@_0L@FNAOCBOG@stream?5end?$AA@ 0043ad0c     zlib:zutil.obj
 0002:00005d18       ??_C@_0BA@MOKMMFOD@need?5dictionary?$AA@ 0043ad18     zlib:zutil.obj
 0002:00005d28       _z_errmsg                  0043ad28     zlib:zutil.obj
 0002:00005d50       _inflate_copyright         0043ad50     zlib:inftrees.obj
 0002:00005e80       ??_C@_01NBENCBCI@?$CK?$AA@ 0043ae80     libcpmt:locale0.obj
 0002:00005e88       ??_7_Locimp@locale@std@@6B@ 0043ae88     libcpmt:locale0.obj
 0002:00005e8c       ??_C@_01GFHCPBMG@C?$AA@    0043ae8c     libcpmt:locale0.obj
 0002:00005e94       ??_7error_category@std@@6B@ 0043ae94     libcpmt:syserror.obj
 0002:00005eac       ??_C@_07DCLBNMLN@generic?$AA@ 0043aeac     libcpmt:syserror.obj
 0002:00005eb8       ??_7_Generic_error_category@std@@6B@ 0043aeb8     libcpmt:syserror.obj
 0002:00005ed0       ??_C@_08LLGCOLLL@iostream?$AA@ 0043aed0     libcpmt:syserror.obj
 0002:00005ee0       ??_7_Iostream_error_category@std@@6B@ 0043aee0     libcpmt:syserror.obj
 0002:00005ef8       ??_C@_06FHFOAHML@system?$AA@ 0043aef8     libcpmt:syserror.obj
 0002:00005f04       ??_7_System_error_category@std@@6B@ 0043af04     libcpmt:syserror.obj
 0002:00005f1c       ??_C@_0BG@PADBLCHM@iostream?5stream?5error?$AA@ 0043af1c     libcpmt:syserror.obj
 0002:00005f38       ??_7logic_error@std@@6B@   0043af38     libcpmt:xthrow.obj
 0002:00005f44       ??_7length_error@std@@6B@  0043af44     libcpmt:xthrow.obj
 0002:00005f50       ??_7out_of_range@std@@6B@  0043af50     libcpmt:xthrow.obj
 0002:00005f5c       ??_7ios_base@std@@6B@      0043af5c     libcpmt:cout.obj
 0002:00005f64       ??_7?$basic_ostream@DU?$char_traits@D@std@@@std@@6B@ 0043af64     libcpmt:cout.obj
 0002:00005f6c       ??_7?$basic_ios@DU?$char_traits@D@std@@@std@@6B@ 0043af6c     libcpmt:cout.obj
 0002:00005f74       ??_7?$ctype@D@std@@6B@     0043af74     libcpmt:cout.obj
 0002:00005f9c       ??_7?$basic_streambuf@DU?$char_traits@D@std@@@std@@6B@ 0043af9c     libcpmt:cout.obj
 0002:00005fdc       ??_7?$basic_filebuf@DU?$char_traits@D@std@@@std@@6B@ 0043afdc     libcpmt:cout.obj
 0002:0000601c       ??_7?$codecvt@DDH@std@@6B@ 0043b01c     libcpmt:cout.obj
 0002:0000603c       ??_8?$basic_ostream@DU?$char_traits@D@std@@@std@@7B@ 0043b03c     libcpmt:cout.obj
 0002:00006048       ?_BADOFF@std@@3_JB         0043b048     libcpmt:ios.obj
 0002:00006054       ??_7exception@std@@6B@     0043b054     LIBCMT:stdexcpt.obj
 0002:0000605c       ??_C@_0BC@EOODALEL@Unknown?5exception?$AA@ 0043b05c     LIBCMT:stdexcpt.obj
 0002:00006074       ??_7bad_cast@std@@6B@      0043b074     LIBCMT:stdexcpt.obj
 0002:00006080       ??_7type_info@@6B@         0043b080     LIBCMT:typinfo.obj
 0002:00006084       ??_C@_0P@GHFPNOJB@bad?5allocation?$AA@ 0043b084     LIBCMT:new.obj
 0002:000060b4       __FPinit                   0043b0b4     LIBCMT:_fpinit_.obj
 0002:000060b8       ??_C@_0P@MIGLKIOC@CorExitProcess?$AA@ 0043b0b8     LIBCMT:crt0dat.obj
 0002:000060c8       ??_C@_1BI@BGOHAHKC@?$AAm?$AAs?$AAc?$AAo?$AAr?$AAe?$AAe?$AA?4?$AAd?$AAl?$AAl?$AA?$AA@ 0043b0c8     LIBCMT:crt0dat.obj
 0002:000060e0       ??_C@_07LCBHPJJN@LC_TIME?$AA@ 0043b0e0     LIBCMT:setlocal.obj
 0002:000060e8       ??_C@_0L@DLHIECNL@LC_NUMERIC?$AA@ 0043b0e8     LIBCMT:setlocal.obj
 0002:000060f4       ??_C@_0M@MIENIKLA@LC_MONETARY?$AA@ 0043b0f4     LIBCMT:setlocal.obj
 0002:00006100       ??_C@_08EADHIDAD@LC_CTYPE?$AA@ 0043b100     LIBCMT:setlocal.obj
 0002:0000610c       ??_C@_0L@KFJHEKIK@LC_COLLATE?$AA@ 0043b10c     LIBCMT:setlocal.obj
 0002:00006118       ??_C@_06NEFDFEKB@LC_ALL?$AA@ 0043b118     LIBCMT:setlocal.obj
 0002:00006120       ___lc_category             0043b120     LIBCMT:setlocal.obj
 0002:000061e8       ??_C@_03EGDHDPFD@_?4?0?$AA@ 0043b1e8     LIBCMT:setlocal.obj
 0002:000061ec       ??_C@_01IDAFKMJL@_?$AA@    0043b1ec     LIBCMT:setlocal.obj
 0002:000061f0       ??_C@_01ICJEACDI@?$DL?$AA@ 0043b1f0     LIBCMT:setlocal.obj
 0002:000061f4       ??_C@_01NEMOKFLO@?$DN?$AA@ 0043b1f4     LIBCMT:setlocal.obj
 0002:000061f8       ??_C@_02BALPLPBG@?$DN?$DL?$AA@ 0043b1f8     LIBCMT:setlocal.obj
 0002:00006200       ??_C@_0EA@FCLIIPNN@Visual?5C?$CL?$CL?5CRT?3?5Not?5enough?5memor@ 0043b200     LIBCMT:strerror.obj
 0002:00006240       __pDestructExceptionObject 0043b240     LIBCMT:frame.obj
 0002:00006248       ??_7bad_exception@std@@6B@ 0043b248     LIBCMT:frame.obj
 0002:00006250       ??_C@_0O@DPKOEFFH@bad?5exception?$AA@ 0043b250     LIBCMT:frame.obj
 0002:00006260       ___newctype                0043b260     LIBCMT:ctype.obj
 0002:00006560       __wctype                   0043b560     LIBCMT:ctype.obj
 0002:00006768       ___newclmap                0043b768     LIBCMT:ctype.obj
 0002:000068e8       ___newcumap                0043b8e8     LIBCMT:ctype.obj
 0002:00006a68       ??_C@_1BK@DBDEIDLH@?$AAK?$AAE?$AAR?$AAN?$AAE?$AAL?$AA3?$AA2?$AA?4?$AAD?$AAL?$AAL?$AA?$AA@ 0043ba68     LIBCMT:tidtable.obj
 0002:00006a84       ??_C@_07PEJMOBNF@FlsFree?$AA@ 0043ba84     LIBCMT:tidtable.obj
 0002:00006a8c       ??_C@_0M@JCPCPOEF@FlsSetValue?$AA@ 0043ba8c     LIBCMT:tidtable.obj
 0002:00006a98       ??_C@_0M@GDNOONDI@FlsGetValue?$AA@ 0043ba98     LIBCMT:tidtable.obj
 0002:00006aa4       ??_C@_08KNHFBNJ@FlsAlloc?$AA@ 0043baa4     LIBCMT:tidtable.obj
 0002:00006ab8       ??_C@_1BC@GDGBMEMK@?$AAH?$AAH?$AA?3?$AAm?$AAm?$AA?3?$AAs?$AAs?$AA?$AA@ 0043bab8     LIBCMT:nlsdata2.obj
 0002:00006acc       ??_C@_1CI@KNAKOEBC@?$AAd?$AAd?$AAd?$AAd?$AA?0?$AA?5?$AAM?$AAM?$AAM?$AAM?$AA?5?$AAd?$AAd?$AA?0?$AA?5?$AAy?$AAy?$AAy?$AAy?$AA?$AA@ 0043bacc     LIBCMT:nlsdata2.obj
 0002:00006af4       ??_C@_1BC@IEBCMHCM@?$AAM?$AAM?$AA?1?$AAd?$AAd?$AA?1?$AAy?$AAy?$AA?$AA@ 0043baf4     LIBCMT:nlsdata2.obj
 0002:00006b08       ??_C@_15CLMNNGEL@?$AAP?$AAM?$AA?$AA@ 0043bb08     LIBCMT:nlsdata2.obj
 0002:00006b10       ??_C@_15ODEHAHHF@?$AAA?$AAM?$AA?$AA@ 0043bb10     LIBCMT:nlsdata2.obj
 0002:00006b18       ??_C@_1BC@FEMKIFH@?$AAD?$AAe?$AAc?$AAe?$AAm?$AAb?$AAe?$AAr?$AA?$AA@ 0043bb18     LIBCMT:nlsdata2.obj
 0002:00006b2c       ??_C@_1BC@BGLIFPF@?$AAN?$AAo?$AAv?$AAe?$AAm?$AAb?$AAe?$AAr?$AA?$AA@ 0043bb2c     LIBCMT:nlsdata2.obj
 0002:00006b40       ??_C@_1BA@EPANDLNG@?$AAO?$AAc?$AAt?$AAo?$AAb?$AAe?$AAr?$AA?$AA@ 0043bb40     LIBCMT:nlsdata2.obj
 0002:00006b50       ??_C@_1BE@DKAAMBJL@?$AAS?$AAe?$AAp?$AAt?$AAe?$AAm?$AAb?$AAe?$AAr?$AA?$AA@ 0043bb50     LIBCMT:nlsdata2.obj
 0002:00006b64       ??_C@_1O@PAHLKOAC@?$AAA?$AAu?$AAg?$AAu?$AAs?$AAt?$AA?$AA@ 0043bb64     LIBCMT:nlsdata2.obj
 0002:00006b74       ??_C@_19BIFMLPCD@?$AAJ?$AAu?$AAl?$AAy?$AA?$AA@ 0043bb74     LIBCMT:nlsdata2.obj
 0002:00006b80       ??_C@_19EPFLPGAP@?$AAJ?$AAu?$AAn?$AAe?$AA?$AA@ 0043bb80     LIBCMT:nlsdata2.obj
 0002:00006b8c       ??_C@_1M@GJNLMHFD@?$AAA?$AAp?$AAr?$AAi?$AAl?$AA?$AA@ 0043bb8c     LIBCMT:nlsdata2.obj
 0002:00006b98       ??_C@_1M@IKEENEDF@?$AAM?$AAa?$AAr?$AAc?$AAh?$AA?$AA@ 0043bb98     LIBCMT:nlsdata2.obj
 0002:00006ba4       ??_C@_1BC@JGDDFFAM@?$AAF?$AAe?$AAb?$AAr?$AAu?$AAa?$AAr?$AAy?$AA?$AA@ 0043bba4     LIBCMT:nlsdata2.obj
 0002:00006bb8       ??_C@_1BA@EFMEIEBA@?$AAJ?$AAa?$AAn?$AAu?$AAa?$AAr?$AAy?$AA?$AA@ 0043bbb8     LIBCMT:nlsdata2.obj
 0002:00006bc8       ??_C@_17EGKACKIF@?$AAD?$AAe?$AAc?$AA?$AA@ 0043bbc8     LIBCMT:nlsdata2.obj
 0002:00006bd0       ??_C@_17BBDMLCIG@?$AAN?$AAo?$AAv?$AA?$AA@ 0043bbd0     LIBCMT:nlsdata2.obj
 0002:00006bd8       ??_C@_17FNLKOI@?$AAO?$AAc?$AAt?$AA?$AA@ 0043bbd8     LIBCMT:nlsdata2.obj
 0002:00006be0       ??_C@_17HCHCOKMG@?$AAS?$AAe?$AAp?$AA?$AA@ 0043bbe0     LIBCMT:nlsdata2.obj
 0002:00006be8       ??_C@_17ICPELBCN@?$AAA?$AAu?$AAg?$AA?$AA@ 0043bbe8     LIBCMT:nlsdata2.obj
 0002:00006bf0       ??_C@_17IJPCKHK@?$AAJ?$AAu?$AAl?$AA?$AA@ 0043bbf0     LIBCMT:nlsdata2.obj
 0002:00006bf8       ??_C@_17KCJGOCPB@?$AAJ?$AAu?$AAn?$AA?$AA@ 0043bbf8     LIBCMT:nlsdata2.obj
 0002:00006c00       ??_C@_17PNNKMEED@?$AAM?$AAa?$AAy?$AA?$AA@ 0043bc00     LIBCMT:nlsdata2.obj
 0002:00006c08       ??_C@_17LFPOIHDD@?$AAA?$AAp?$AAr?$AA?$AA@ 0043bc08     LIBCMT:nlsdata2.obj
 0002:00006c10       ??_C@_17CKNLEDEC@?$AAM?$AAa?$AAr?$AA?$AA@ 0043bc10     LIBCMT:nlsdata2.obj
 0002:00006c18       ??_C@_17LMDJEKJN@?$AAF?$AAe?$AAb?$AA?$AA@ 0043bc18     LIBCMT:nlsdata2.obj
 0002:00006c20       ??_C@_17DKNBKCHM@?$AAJ?$AAa?$AAn?$AA?$AA@ 0043bc20     LIBCMT:nlsdata2.obj
 0002:00006c28       ??_C@_1BC@ENMNNPAJ@?$AAS?$AAa?$AAt?$AAu?$AAr?$AAd?$AAa?$AAy?$AA?$AA@ 0043bc28     LIBCMT:nlsdata2.obj
 0002:00006c3c       ??_C@_1O@PDICJHAG@?$AAF?$AAr?$AAi?$AAd?$AAa?$AAy?$AA?$AA@ 0043bc3c     LIBCMT:nlsdata2.obj
 0002:00006c4c       ??_C@_1BC@HHMNLIHE@?$AAT?$AAh?$AAu?$AAr?$AAs?$AAd?$AAa?$AAy?$AA?$AA@ 0043bc4c     LIBCMT:nlsdata2.obj
 0002:00006c60       ??_C@_1BE@EBOGMDOH@?$AAW?$AAe?$AAd?$AAn?$AAe?$AAs?$AAd?$AAa?$AAy?$AA?$AA@ 0043bc60     LIBCMT:nlsdata2.obj
 0002:00006c74       ??_C@_1BA@ENFBFFEK@?$AAT?$AAu?$AAe?$AAs?$AAd?$AAa?$AAy?$AA?$AA@ 0043bc74     LIBCMT:nlsdata2.obj
 0002:00006c84       ??_C@_1O@MMNBFLIA@?$AAM?$AAo?$AAn?$AAd?$AAa?$AAy?$AA?$AA@ 0043bc84     LIBCMT:nlsdata2.obj
 0002:00006c94       ??_C@_1O@IHNHDHPB@?$AAS?$AAu?$AAn?$AAd?$AAa?$AAy?$AA?$AA@ 0043bc94     LIBCMT:nlsdata2.obj
 0002:00006ca4       ??_C@_17GGIBDPIH@?$AAS?$AAa?$AAt?$AA?$AA@ 0043bca4     LIBCMT:nlsdata2.obj
 0002:00006cac       ??_C@_17HFOLPPLP@?$AAF?$AAr?$AAi?$AA?$AA@ 0043bcac     LIBCMT:nlsdata2.obj
 0002:00006cb4       ??_C@_17PDPHAADD@?$AAT?$AAh?$AAu?$AA?$AA@ 0043bcb4     LIBCMT:nlsdata2.obj
 0002:00006cbc       ??_C@_17CJEDCEPE@?$AAW?$AAe?$AAd?$AA?$AA@ 0043bcbc     LIBCMT:nlsdata2.obj
 0002:00006cc4       ??_C@_17BMKGEGOJ@?$AAT?$AAu?$AAe?$AA?$AA@ 0043bcc4     LIBCMT:nlsdata2.obj
 0002:00006ccc       ??_C@_17KBOMKBF@?$AAM?$AAo?$AAn?$AA?$AA@ 0043bccc     LIBCMT:nlsdata2.obj
 0002:00006cd4       ??_C@_17MBGCMIPB@?$AAS?$AAu?$AAn?$AA?$AA@ 0043bcd4     LIBCMT:nlsdata2.obj
 0002:00006cdc       ??_C@_08JCCMCCIL@HH?3mm?3ss?$AA@ 0043bcdc     LIBCMT:nlsdata2.obj
 0002:00006ce8       ??_C@_0BE@CKGJFCPC@dddd?0?5MMMM?5dd?0?5yyyy?$AA@ 0043bce8     LIBCMT:nlsdata2.obj
 0002:00006cfc       ??_C@_08BPBNCDIB@MM?1dd?1yy?$AA@ 0043bcfc     LIBCMT:nlsdata2.obj
 0002:00006d08       ??_C@_02CJNFDJBF@PM?$AA@   0043bd08     LIBCMT:nlsdata2.obj
 0002:00006d0c       ??_C@_02DEDBPAFC@AM?$AA@   0043bd0c     LIBCMT:nlsdata2.obj
 0002:00006d10       ??_C@_08EDHMEBNP@December?$AA@ 0043bd10     LIBCMT:nlsdata2.obj
 0002:00006d1c       ??_C@_08HCHEGEOA@November?$AA@ 0043bd1c     LIBCMT:nlsdata2.obj
 0002:00006d28       ??_C@_07JJNFCEND@October?$AA@ 0043bd28     LIBCMT:nlsdata2.obj
 0002:00006d30       ??_C@_09BHHEALKD@September?$AA@ 0043bd30     LIBCMT:nlsdata2.obj
 0002:00006d3c       ??_C@_06LBBHFDDG@August?$AA@ 0043bd3c     LIBCMT:nlsdata2.obj
 0002:00006d44       ??_C@_04MIEPOIFP@July?$AA@ 0043bd44     LIBCMT:nlsdata2.obj
 0002:00006d4c       ??_C@_04CNLMGBGM@June?$AA@ 0043bd4c     LIBCMT:nlsdata2.obj
 0002:00006d54       ??_C@_05DMJDNLEJ@April?$AA@ 0043bd54     LIBCMT:nlsdata2.obj
 0002:00006d5c       ??_C@_05HPCKOFNC@March?$AA@ 0043bd5c     LIBCMT:nlsdata2.obj
 0002:00006d64       ??_C@_08GNJGEPFN@February?$AA@ 0043bd64     LIBCMT:nlsdata2.obj
 0002:00006d70       ??_C@_07CGJPFGJA@January?$AA@ 0043bd70     LIBCMT:nlsdata2.obj
 0002:00006d78       ??_C@_03MKABNOCG@Dec?$AA@  0043bd78     LIBCMT:nlsdata2.obj
 0002:00006d7c       ??_C@_03JPJOFNIA@Nov?$AA@  0043bd7c     LIBCMT:nlsdata2.obj
 0002:00006d80       ??_C@_03BMAOKBAD@Oct?$AA@  0043bd80     LIBCMT:nlsdata2.obj
 0002:00006d84       ??_C@_03GGCAPAJC@Sep?$AA@  0043bd84     LIBCMT:nlsdata2.obj
 0002:00006d88       ??_C@_03IFJFEIGA@Aug?$AA@  0043bd88     LIBCMT:nlsdata2.obj
 0002:00006d8c       ??_C@_03LBGABGKK@Jul?$AA@  0043bd8c     LIBCMT:nlsdata2.obj
 0002:00006d90       ??_C@_03IDFGHECI@Jun?$AA@  0043bd90     LIBCMT:nlsdata2.obj
 0002:00006d94       ??_C@_03CNMDKL@May?$AA@    0043bd94     LIBCMT:nlsdata2.obj
 0002:00006d98       ??_C@_03LEOLGMJP@Apr?$AA@  0043bd98     LIBCMT:nlsdata2.obj
 0002:00006d9c       ??_C@_03ODNJBKGA@Mar?$AA@  0043bd9c     LIBCMT:nlsdata2.obj
 0002:00006da0       ??_C@_03HJBDCHOM@Feb?$AA@  0043bda0     LIBCMT:nlsdata2.obj
 0002:00006da4       ??_C@_03JIHJHPIE@Jan?$AA@  0043bda4     LIBCMT:nlsdata2.obj
 0002:00006da8       ??_C@_08INBOOONO@Saturday?$AA@ 0043bda8     LIBCMT:nlsdata2.obj
 0002:00006db4       ??_C@_06JECMNKMI@Friday?$AA@ 0043bdb4     LIBCMT:nlsdata2.obj
 0002:00006dbc       ??_C@_08HACCIKIA@Thursday?$AA@ 0043bdbc     LIBCMT:nlsdata2.obj
 0002:00006dc8       ??_C@_09DLIGFAKA@Wednesday?$AA@ 0043bdc8     LIBCMT:nlsdata2.obj
 0002:00006dd4       ??_C@_07BAAGCFCM@Tuesday?$AA@ 0043bdd4     LIBCMT:nlsdata2.obj
 0002:00006ddc       ??_C@_06JLEDEDGH@Monday?$AA@ 0043bddc     LIBCMT:nlsdata2.obj
 0002:00006de4       ??_C@_06OOPIFAJ@Sunday?$AA@ 0043bde4     LIBCMT:nlsdata2.obj
 0002:00006dec       ??_C@_03FEFJNEK@Sat?$AA@   0043bdec     LIBCMT:nlsdata2.obj
 0002:00006df0       ??_C@_03IDIOELNC@Fri?$AA@  0043bdf0     LIBCMT:nlsdata2.obj
 0002:00006df4       ??_C@_03IOFIKPDN@Thu?$AA@  0043bdf4     LIBCMT:nlsdata2.obj
 0002:00006df8       ??_C@_03MHOMLAJA@Wed?$AA@  0043bdf8     LIBCMT:nlsdata2.obj
 0002:00006dfc       ??_C@_03NAGEINEP@Tue?$AA@  0043bdfc     LIBCMT:nlsdata2.obj
 0002:00006e00       ??_C@_03PDAGKDH@Mon?$AA@   0043be00     LIBCMT:nlsdata2.obj
 0002:00006e04       ??_C@_03KOEHGMDN@Sun?$AA@  0043be04     LIBCMT:nlsdata2.obj
 0002:00006e08       ??_C@_1O@CEDCILHN@?$AA?$CI?$AAn?$AAu?$AAl?$AAl?$AA?$CJ?$AA?$AA@ 0043be08     LIBCMT:output.obj
 0002:00006e18       ??_C@_06OJHGLDPL@?$CInull?$CJ?$AA@ 0043be18     LIBCMT:output.obj
 0002:00006e20       ___lookuptable             0043be20     LIBCMT:output.obj
 0002:00006e7c       ??_C@_05KLBDPFGC@e?$CL000?$AA@ 0043be7c     LIBCMT:cvt.obj
 0002:00006ea8       __XcptActTab               0043bea8     LIBCMT:winxfltr.obj
 0002:00006f38       __First_FPE_Indx           0043bf38     LIBCMT:winxfltr.obj
 0002:00006f3c       __Num_FPE                  0043bf3c     LIBCMT:winxfltr.obj
 0002:00006f40       __XcptActTabSize           0043bf40     LIBCMT:winxfltr.obj
 0002:00006f44       __XcptActTabCount          0043bf44     LIBCMT:winxfltr.obj
 0002:00006f48       ??_C@_1BO@BKOMIGKJ@?$AAr?$AAu?$AAn?$AAt?$AAi?$AAm?$AAe?$AA?5?$AAe?$AAr?$AAr?$AAo?$AAr?$AA?5?$AA?$AA@ 0043bf48     LIBCMT:crt0msg.obj
 0002:00006f68       ??_C@_15JNBOKNOG@?$AA?$AN?$AA?6?$AA?$AA@ 0043bf68     LIBCMT:crt0msg.obj
 0002:00006f70       ??_C@_1BM@JBBEPPHI@?$AAT?$AAL?$AAO?$AAS?$AAS?$AA?5?$AAe?$AAr?$AAr?$AAo?$AAr?$AA?$AN?$AA?6?$AA?$AA@ 0043bf70     LIBCMT:crt0msg.obj
 0002:00006f8c       ??_C@_1BK@KMOMNAAI@?$AAS?$AAI?$AAN?$AAG?$AA?5?$AAe?$AAr?$AAr?$AAo?$AAr?$AA?$AN?$AA?6?$AA?$AA@ 0043bf8c     LIBCMT:crt0msg.obj
 0002:00006fa8       ??_C@_1BO@BFCDCGC@?$AAD?$AAO?$AAM?$AAA?$AAI?$AAN?$AA?5?$AAe?$AAr?$AAr?$AAo?$AAr?$AA?$AN?$AA?6?$AA?$AA@ 0043bfa8     LIBCMT:crt0msg.obj
 0002:00006fc8       ??_C@_1BOO@KGEDBGAJ@?$AAR?$AA6?$AA0?$AA3?$AA3?$AA?$AN?$AA?6?$AA?9?$AA?5?$AAA?$AAt?$AAt?$AAe?$AAm?$AAp?$AAt?$AA?5?$AAt?$AAo?$AA?5?$AAu?$AAs?$AAe?$AA?5?$AAM?$AAS?$AAI?$AAL?$AA?5?$AAc?$AAo?$AAd@ 0043bfc8     LIBCMT:crt0msg.obj
 0002:000071b8       ??_C@_1GG@GOPILAJP@?$AAR?$AA6?$AA0?$AA3?$AA2?$AA?$AN?$AA?6?$AA?9?$AA?5?$AAn?$AAo?$AAt?$AA?5?$AAe?$AAn?$AAo?$AAu?$AAg?$AAh?$AA?5?$AAs?$AAp?$AAa?$AAc?$AAe?$AA?5?$AAf?$AAo?$AAr?$AA?5?$AAl?$AAo@ 0043c1b8     LIBCMT:crt0msg.obj
 0002:00007220       ??_C@_1MG@ENCOOIDF@?$AAR?$AA6?$AA0?$AA3?$AA1?$AA?$AN?$AA?6?$AA?9?$AA?5?$AAA?$AAt?$AAt?$AAe?$AAm?$AAp?$AAt?$AA?5?$AAt?$AAo?$AA?5?$AAi?$AAn?$AAi?$AAt?$AAi?$AAa?$AAl?$AAi?$AAz?$AAe?$AA?5?$AAt@ 0043c220     LIBCMT:crt0msg.obj
 0002:000072e8       ??_C@_1DO@BMFCDCD@?$AAR?$AA6?$AA0?$AA3?$AA0?$AA?$AN?$AA?6?$AA?9?$AA?5?$AAC?$AAR?$AAT?$AA?5?$AAn?$AAo?$AAt?$AA?5?$AAi?$AAn?$AAi?$AAt?$AAi?$AAa?$AAl?$AAi?$AAz?$AAe?$AAd?$AA?$AN?$AA?6?$AA?$AA@ 0043c2e8     LIBCMT:crt0msg.obj
 0002:00007328       ??_C@_1EK@HHFLMAOL@?$AAR?$AA6?$AA0?$AA2?$AA8?$AA?$AN?$AA?6?$AA?9?$AA?5?$AAu?$AAn?$AAa?$AAb?$AAl?$AAe?$AA?5?$AAt?$AAo?$AA?5?$AAi?$AAn?$AAi?$AAt?$AAi?$AAa?$AAl?$AAi?$AAz?$AAe?$AA?5?$AAh?$AAe@ 0043c328     LIBCMT:crt0msg.obj
 0002:00007378       ??_C@_1GK@MFGOKLAG@?$AAR?$AA6?$AA0?$AA2?$AA7?$AA?$AN?$AA?6?$AA?9?$AA?5?$AAn?$AAo?$AAt?$AA?5?$AAe?$AAn?$AAo?$AAu?$AAg?$AAh?$AA?5?$AAs?$AAp?$AAa?$AAc?$AAe?$AA?5?$AAf?$AAo?$AAr?$AA?5?$AAl?$AAo@ 0043c378     LIBCMT:crt0msg.obj
 0002:000073e8       ??_C@_1GK@MCAAGJMO@?$AAR?$AA6?$AA0?$AA2?$AA6?$AA?$AN?$AA?6?$AA?9?$AA?5?$AAn?$AAo?$AAt?$AA?5?$AAe?$AAn?$AAo?$AAu?$AAg?$AAh?$AA?5?$AAs?$AAp?$AAa?$AAc?$AAe?$AA?5?$AAf?$AAo?$AAr?$AA?5?$AAs?$AAt@ 0043c3e8     LIBCMT:crt0msg.obj
 0002:00007458       ??_C@_1EM@MAADIHMB@?$AAR?$AA6?$AA0?$AA2?$AA5?$AA?$AN?$AA?6?$AA?9?$AA?5?$AAp?$AAu?$AAr?$AAe?$AA?5?$AAv?$AAi?$AAr?$AAt?$AAu?$AAa?$AAl?$AA?5?$AAf?$AAu?$AAn?$AAc?$AAt?$AAi?$AAo?$AAn?$AA?5?$AAc@ 0043c458     LIBCMT:crt0msg.obj
 0002:000074a8       ??_C@_1GK@FHCKBEFA@?$AAR?$AA6?$AA0?$AA2?$AA4?$AA?$AN?$AA?6?$AA?9?$AA?5?$AAn?$AAo?$AAt?$AA?5?$AAe?$AAn?$AAo?$AAu?$AAg?$AAh?$AA?5?$AAs?$AAp?$AAa?$AAc?$AAe?$AA?5?$AAf?$AAo?$AAr?$AA?5?$AA_?$AAo@ 0043c4a8     LIBCMT:crt0msg.obj
 0002:00007518       ??_C@_1FC@ECHBIFBC@?$AAR?$AA6?$AA0?$AA1?$AA9?$AA?$AN?$AA?6?$AA?9?$AA?5?$AAu?$AAn?$AAa?$AAb?$AAl?$AAe?$AA?5?$AAt?$AAo?$AA?5?$AAo?$AAp?$AAe?$AAn?$AA?5?$AAc?$AAo?$AAn?$AAs?$AAo?$AAl?$AAe?$AA?5@ 0043c518     LIBCMT:crt0msg.obj
 0002:00007570       ??_C@_1EC@JIBHAOPH@?$AAR?$AA6?$AA0?$AA1?$AA8?$AA?$AN?$AA?6?$AA?9?$AA?5?$AAu?$AAn?$AAe?$AAx?$AAp?$AAe?$AAc?$AAt?$AAe?$AAd?$AA?5?$AAh?$AAe?$AAa?$AAp?$AA?5?$AAe?$AAr?$AAr?$AAo?$AAr?$AA?$AN?$AA?6@ 0043c570     LIBCMT:crt0msg.obj
 0002:000075b8       ??_C@_1FK@BEOGODMC@?$AAR?$AA6?$AA0?$AA1?$AA7?$AA?$AN?$AA?6?$AA?9?$AA?5?$AAu?$AAn?$AAe?$AAx?$AAp?$AAe?$AAc?$AAt?$AAe?$AAd?$AA?5?$AAm?$AAu?$AAl?$AAt?$AAi?$AAt?$AAh?$AAr?$AAe?$AAa?$AAd?$AA?5@ 0043c5b8     LIBCMT:crt0msg.obj
 0002:00007618       ??_C@_1FI@LOGNIKDM@?$AAR?$AA6?$AA0?$AA1?$AA6?$AA?$AN?$AA?6?$AA?9?$AA?5?$AAn?$AAo?$AAt?$AA?5?$AAe?$AAn?$AAo?$AAu?$AAg?$AAh?$AA?5?$AAs?$AAp?$AAa?$AAc?$AAe?$AA?5?$AAf?$AAo?$AAr?$AA?5?$AAt?$AAh@ 0043c618     LIBCMT:crt0msg.obj
 0002:00007670       ??_C@_1EG@BEHAGFJD@?$AAR?$AA6?$AA0?$AA1?$AA0?$AA?$AN?$AA?6?$AA?9?$AA?5?$AAa?$AAb?$AAo?$AAr?$AAt?$AA?$CI?$AA?$CJ?$AA?5?$AAh?$AAa?$AAs?$AA?5?$AAb?$AAe?$AAe?$AAn?$AA?5?$AAc?$AAa?$AAl?$AAl?$AAe?$AAd@ 0043c670     LIBCMT:crt0msg.obj
 0002:000076b8       ??_C@_1FI@HONFMGBI@?$AAR?$AA6?$AA0?$AA0?$AA9?$AA?$AN?$AA?6?$AA?9?$AA?5?$AAn?$AAo?$AAt?$AA?5?$AAe?$AAn?$AAo?$AAu?$AAg?$AAh?$AA?5?$AAs?$AAp?$AAa?$AAc?$AAe?$AA?5?$AAf?$AAo?$AAr?$AA?5?$AAe?$AAn@ 0043c6b8     LIBCMT:crt0msg.obj
 0002:00007710       ??_C@_1FE@LLNEDJMD@?$AAR?$AA6?$AA0?$AA0?$AA8?$AA?$AN?$AA?6?$AA?9?$AA?5?$AAn?$AAo?$AAt?$AA?5?$AAe?$AAn?$AAo?$AAu?$AAg?$AAh?$AA?5?$AAs?$AAp?$AAa?$AAc?$AAe?$AA?5?$AAf?$AAo?$AAr?$AA?5?$AAa?$AAr@ 0043c710     LIBCMT:crt0msg.obj
 0002:00007768       ??_C@_1FK@PGACCAFB@?$AAR?$AA6?$AA0?$AA0?$AA2?$AA?$AN?$AA?6?$AA?9?$AA?5?$AAf?$AAl?$AAo?$AAa?$AAt?$AAi?$AAn?$AAg?$AA?5?$AAp?$AAo?$AAi?$AAn?$AAt?$AA?5?$AAs?$AAu?$AAp?$AAp?$AAo?$AAr?$AAt?$AA?5@ 0043c768     LIBCMT:crt0msg.obj
 0002:00007878       ??_C@_1EK@MBDPDCGA@?$AAM?$AAi?$AAc?$AAr?$AAo?$AAs?$AAo?$AAf?$AAt?$AA?5?$AAV?$AAi?$AAs?$AAu?$AAa?$AAl?$AA?5?$AAC?$AA?$CL?$AA?$CL?$AA?5?$AAR?$AAu?$AAn?$AAt?$AAi?$AAm?$AAe?$AA?5?$AAL?$AAi?$AAb@ 0043c878     LIBCMT:crt0msg.obj
 0002:000078c4       ??_C@_15IABLJNFO@?$AA?6?$AA?6?$AA?$AA@ 0043c8c4     LIBCMT:crt0msg.obj
 0002:000078cc       ??_C@_17LGKOMLJ@?$AA?4?$AA?4?$AA?4?$AA?$AA@ 0043c8cc     LIBCMT:crt0msg.obj
 0002:000078d4       ??_C@_1CO@EAEJAADC@?$AA?$DM?$AAp?$AAr?$AAo?$AAg?$AAr?$AAa?$AAm?$AA?5?$AAn?$AAa?$AAm?$AAe?$AA?5?$AAu?$AAn?$AAk?$AAn?$AAo?$AAw?$AAn?$AA?$DO?$AA?$AA@ 0043c8d4     LIBCMT:crt0msg.obj
 0002:00007904       ??_C@_1DE@JNGNBFGO@?$AAR?$AAu?$AAn?$AAt?$AAi?$AAm?$AAe?$AA?5?$AAE?$AAr?$AAr?$AAo?$AAr?$AA?$CB?$AA?6?$AA?6?$AAP?$AAr?$AAo?$AAg?$AAr?$AAa?$AAm?$AA?3?$AA?5?$AA?$AA@ 0043c904     LIBCMT:crt0msg.obj
 0002:00007938       ??_C@_02CLFPBFFP@TZ?$AA@   0043c938     LIBCMT:tzset.obj
 0002:0000793c       ___dnames                  0043c93c     LIBCMT:timeset.obj
 0002:00007954       ___mnames                  0043c954     LIBCMT:timeset.obj
 0002:00007980       ___lookuptable_s           0043c980     LIBCMT:outputs.obj
 0002:000079dc       ??_C@_0O@FMJNFNKE@united?9states?$AA@ 0043c9dc     LIBCMT:getqloc.obj
 0002:000079ec       ??_C@_0P@NDHFFKCA@united?9kingdom?$AA@ 0043c9ec     LIBCMT:getqloc.obj
 0002:000079fc       ??_C@_0BC@HHDADLGF@trinidad?5?$CG?5tobago?$AA@ 0043c9fc     LIBCMT:getqloc.obj
 0002:00007a10       ??_C@_0M@IOAEBDAC@south?9korea?$AA@ 0043ca10     LIBCMT:getqloc.obj
 0002:00007a1c       ??_C@_0N@FIELFKIJ@south?9africa?$AA@ 0043ca1c     LIBCMT:getqloc.obj
 0002:00007a2c       ??_C@_0M@OPNDHCMC@south?5korea?$AA@ 0043ca2c     LIBCMT:getqloc.obj
 0002:00007a38       ??_C@_0N@MDEOEPFI@south?5africa?$AA@ 0043ca38     LIBCMT:getqloc.obj
 0002:00007a48       ??_C@_06FKAPCJLB@slovak?$AA@ 0043ca48     LIBCMT:getqloc.obj
 0002:00007a50       ??_C@_0M@EFJANOAL@puerto?9rico?$AA@ 0043ca50     LIBCMT:getqloc.obj
 0002:00007a5c       ??_C@_08PGOJKDAI@pr?9china?$AA@ 0043ca5c     LIBCMT:getqloc.obj
 0002:00007a68       ??_C@_08JHDOMCMI@pr?5china?$AA@ 0043ca68     LIBCMT:getqloc.obj
 0002:00007a74       ??_C@_02JHCHFBLL@nz?$AA@   0043ca74     LIBCMT:getqloc.obj
 0002:00007a78       ??_C@_0M@LINHDHKP@new?9zealand?$AA@ 0043ca78     LIBCMT:getqloc.obj
 0002:00007a84       ??_C@_09IIIPPBDB@hong?9kong?$AA@ 0043ca84     LIBCMT:getqloc.obj
 0002:00007a90       ??_C@_07HJLCKBG@holland?$AA@ 0043ca90     LIBCMT:getqloc.obj
 0002:00007a98       ??_C@_0O@LEHGMHAG@great?5britain?$AA@ 0043ca98     LIBCMT:getqloc.obj
 0002:00007aa8       ??_C@_07FACOMELA@england?$AA@ 0043caa8     LIBCMT:getqloc.obj
 0002:00007ab0       ??_C@_05JIHCEICB@czech?$AA@ 0043cab0     LIBCMT:getqloc.obj
 0002:00007ab8       ??_C@_05BBJOBLGB@china?$AA@ 0043cab8     LIBCMT:getqloc.obj
 0002:00007ac0       ??_C@_07GPKPHICP@britain?$AA@ 0043cac0     LIBCMT:getqloc.obj
 0002:00007ac8       ??_C@_07MHIPBHMG@america?$AA@ 0043cac8     LIBCMT:getqloc.obj
 0002:00007ad0       ??_C@_03KIALPMKC@usa?$AA@  0043cad0     LIBCMT:getqloc.obj
 0002:00007ad4       ??_C@_02FGJGKGGD@us?$AA@   0043cad4     LIBCMT:getqloc.obj
 0002:00007ad8       ??_C@_02NEINDODK@uk?$AA@   0043cad8     LIBCMT:getqloc.obj
 0002:00007adc       ??_C@_05JMPCFJFJ@swiss?$AA@ 0043cadc     LIBCMT:getqloc.obj
 0002:00007ae4       ??_C@_0BA@HLOCPIOD@swedish?9finland?$AA@ 0043cae4     LIBCMT:getqloc.obj
 0002:00007af4       ??_C@_0BC@PKCNIABK@spanish?9venezuela?$AA@ 0043caf4     LIBCMT:getqloc.obj
 0002:00007b08       ??_C@_0BA@GBHHMIJI@spanish?9uruguay?$AA@ 0043cb08     LIBCMT:getqloc.obj
 0002:00007b18       ??_C@_0BE@BHDOHPMC@spanish?9puerto?5rico?$AA@ 0043cb18     LIBCMT:getqloc.obj
 0002:00007b2c       ??_C@_0N@KMOIDGGN@spanish?9peru?$AA@ 0043cb2c     LIBCMT:getqloc.obj
 0002:00007b3c       ??_C@_0BB@HMHLPGPH@spanish?9paraguay?$AA@ 0043cb3c     LIBCMT:getqloc.obj
 0002:00007b50       ??_C@_0P@MCPKNGFD@spanish?9panama?$AA@ 0043cb50     LIBCMT:getqloc.obj
 0002:00007b60       ??_C@_0BC@IHOHGAIL@spanish?9nicaragua?$AA@ 0043cb60     LIBCMT:getqloc.obj
 0002:00007b74       ??_C@_0P@KLMJDNFJ@spanish?9modern?$AA@ 0043cb74     LIBCMT:getqloc.obj
 0002:00007b84       ??_C@_0BA@BPAPGBCM@spanish?9mexican?$AA@ 0043cb84     LIBCMT:getqloc.obj
 0002:00007b94       ??_C@_0BB@PDECHHHE@spanish?9honduras?$AA@ 0043cb94     LIBCMT:getqloc.obj
 0002:00007ba8       ??_C@_0BC@KLHKFGDB@spanish?9guatemala?$AA@ 0043cba8     LIBCMT:getqloc.obj
 0002:00007bbc       ??_C@_0BE@MFOOKJAI@spanish?9el?5salvador?$AA@ 0043cbbc     LIBCMT:getqloc.obj
 0002:00007bd0       ??_C@_0BA@FCOKFPFC@spanish?9ecuador?$AA@ 0043cbd0     LIBCMT:getqloc.obj
 0002:00007be0       ??_C@_0BL@PLMGIMOO@spanish?9dominican?5republic?$AA@ 0043cbe0     LIBCMT:getqloc.obj
 0002:00007bfc       ??_C@_0BD@HLGDNMHB@spanish?9costa?5rica?$AA@ 0043cbfc     LIBCMT:getqloc.obj
 0002:00007c10       ??_C@_0BB@PKCBKCPE@spanish?9colombia?$AA@ 0043cc10     LIBCMT:getqloc.obj
 0002:00007c24       ??_C@_0O@MCBIJGNE@spanish?9chile?$AA@ 0043cc24     LIBCMT:getqloc.obj
 0002:00007c34       ??_C@_0BA@BEFEIGJJ@spanish?9bolivia?$AA@ 0043cc34     LIBCMT:getqloc.obj
 0002:00007c44       ??_C@_0BC@EMECMPD@spanish?9argentina?$AA@ 0043cc44     LIBCMT:getqloc.obj
 0002:00007c58       ??_C@_0BF@EALFLENP@portuguese?9brazilian?$AA@ 0043cc58     LIBCMT:getqloc.obj
 0002:00007c70       ??_C@_0BC@HBLEBLNN@norwegian?9nynorsk?$AA@ 0043cc70     LIBCMT:getqloc.obj
 0002:00007c84       ??_C@_0BB@HMACDDCK@norwegian?9bokmal?$AA@ 0043cc84     LIBCMT:getqloc.obj
 0002:00007c98       ??_C@_09BAFFPPHE@norwegian?$AA@ 0043cc98     LIBCMT:getqloc.obj
 0002:00007ca4       ??_C@_0O@EAJFJDFG@italian?9swiss?$AA@ 0043cca4     LIBCMT:getqloc.obj
 0002:00007cb4       ??_C@_0O@CNOMPGD@irish?9english?$AA@ 0043ccb4     LIBCMT:getqloc.obj
 0002:00007cc4       ??_C@_0N@EDHBGCKG@german?9swiss?$AA@ 0043ccc4     LIBCMT:getqloc.obj
 0002:00007cd4       ??_C@_0BC@JACMHNBP@german?9luxembourg?$AA@ 0043ccd4     LIBCMT:getqloc.obj
 0002:00007ce8       ??_C@_0BE@HBGMGFEG@german?9lichtenstein?$AA@ 0043cce8     LIBCMT:getqloc.obj
 0002:00007cfc       ??_C@_0BA@HKKBIBKL@german?9austrian?$AA@ 0043ccfc     LIBCMT:getqloc.obj
 0002:00007d0c       ??_C@_0N@GCAEPEBK@french?9swiss?$AA@ 0043cd0c     LIBCMT:getqloc.obj
 0002:00007d1c       ??_C@_0BC@DJFJJCK@french?9luxembourg?$AA@ 0043cd1c     LIBCMT:getqloc.obj
 0002:00007d30       ??_C@_0BA@NNCEDFIC@french?9canadian?$AA@ 0043cd30     LIBCMT:getqloc.obj
 0002:00007d40       ??_C@_0P@CMPOCLM@french?9belgian?$AA@ 0043cd40     LIBCMT:getqloc.obj
 0002:00007d50       ??_C@_0M@GHHDJOK@english?9usa?$AA@ 0043cd50     LIBCMT:getqloc.obj
 0002:00007d5c       ??_C@_0L@PLDJKEIL@english?9us?$AA@ 0043cd5c     LIBCMT:getqloc.obj
 0002:00007d68       ??_C@_0L@HJCCDMNC@english?9uk?$AA@ 0043cd68     LIBCMT:getqloc.obj
 0002:00007d74       ??_C@_0BK@CKLIAGJB@english?9trinidad?5y?5tobago?$AA@ 0043cd74     LIBCMT:getqloc.obj
 0002:00007d90       ??_C@_0BF@JMJMGNNF@english?9south?5africa?$AA@ 0043cd90     LIBCMT:getqloc.obj
 0002:00007da8       ??_C@_0L@DKIIFDFD@english?9nz?$AA@ 0043cda8     LIBCMT:getqloc.obj
 0002:00007db4       ??_C@_0BA@ONHGJCLH@english?9jamaica?$AA@ 0043cdb4     LIBCMT:getqloc.obj
 0002:00007dc4       ??_C@_0M@HJBGHOPO@english?9ire?$AA@ 0043cdc4     LIBCMT:getqloc.obj
 0002:00007dd0       ??_C@_0BC@LFEKMIFB@english?9caribbean?$AA@ 0043cdd0     LIBCMT:getqloc.obj
 0002:00007de4       ??_C@_0M@OLDPFKHI@english?9can?$AA@ 0043cde4     LIBCMT:getqloc.obj
 0002:00007df0       ??_C@_0P@OMDEHBMP@english?9belize?$AA@ 0043cdf0     LIBCMT:getqloc.obj
 0002:00007e00       ??_C@_0M@KFHFPFED@english?9aus?$AA@ 0043ce00     LIBCMT:getqloc.obj
 0002:00007e0c       ??_C@_0BB@MNMBKDFE@english?9american?$AA@ 0043ce0c     LIBCMT:getqloc.obj
 0002:00007e20       ??_C@_0O@KIDLNNBA@dutch?9belgian?$AA@ 0043ce20     LIBCMT:getqloc.obj
 0002:00007e30       ??_C@_0BE@JBKABBMH@chinese?9traditional?$AA@ 0043ce30     LIBCMT:getqloc.obj
 0002:00007e44       ??_C@_0BC@MJJMPKCG@chinese?9singapore?$AA@ 0043ce44     LIBCMT:getqloc.obj
 0002:00007e58       ??_C@_0BD@FDKADDCP@chinese?9simplified?$AA@ 0043ce58     LIBCMT:getqloc.obj
 0002:00007e6c       ??_C@_0BB@DBEFDDME@chinese?9hongkong?$AA@ 0043ce6c     LIBCMT:getqloc.obj
 0002:00007e80       ??_C@_07DHNMFMCI@chinese?$AA@ 0043ce80     LIBCMT:getqloc.obj
 0002:00007e88       ??_C@_03FNDDCHI@chi?$AA@   0043ce88     LIBCMT:getqloc.obj
 0002:00007e8c       ??_C@_03BMMIADDJ@chh?$AA@  0043ce8c     LIBCMT:getqloc.obj
 0002:00007e90       ??_C@_08OAIPJDGI@canadian?$AA@ 0043ce90     LIBCMT:getqloc.obj
 0002:00007e9c       ??_C@_07HBPMNPNJ@belgian?$AA@ 0043ce9c     LIBCMT:getqloc.obj
 0002:00007ea4       ??_C@_0L@OEKOPBEL@australian?$AA@ 0043cea4     LIBCMT:getqloc.obj
 0002:00007eb0       ??_C@_0BB@MEIMBEDG@american?9english?$AA@ 0043ceb0     LIBCMT:getqloc.obj
 0002:00007ec4       ??_C@_0BB@DFMDPDGB@american?5english?$AA@ 0043cec4     LIBCMT:getqloc.obj
 0002:00007ed8       ??_C@_08IJLOKOLL@american?$AA@ 0043ced8     LIBCMT:getqloc.obj
 0002:00007ee8       ___rg_language             0043cee8     LIBCMT:getqloc.obj
 0002:000080f0       ___rg_country              0043d0f0     LIBCMT:getqloc.obj
 0002:000081a8       ___rglangidNotDefault      0043d1a8     LIBCMT:getqloc.obj
 0002:000081bc       ??_C@_03NFKLAGEF@OCP?$AA@  0043d1bc     LIBCMT:getqloc.obj
 0002:000081c0       ??_C@_03DFHEHBHG@ACP?$AA@  0043d1c0     LIBCMT:getqloc.obj
 0002:000081c4       ??_C@_0BC@NFIEMBLL@Norwegian?9Nynorsk?$AA@ 0043d1c4     LIBCMT:getqloc.obj
 0002:000081d8       ??_C@_0BG@KLEAJEFJ@Illegal?5byte?5sequence?$AA@ 0043d1d8     LIBCMT:syserr.obj
 0002:000081f0       ??_C@_0BE@ICMCHPHH@Directory?5not?5empty?$AA@ 0043d1f0     LIBCMT:syserr.obj
 0002:00008204       ??_C@_0BJ@IHEHINLI@Function?5not?5implemented?$AA@ 0043d204     LIBCMT:syserr.obj
 0002:00008220       ??_C@_0BD@CLHBCGPB@No?5locks?5available?$AA@ 0043d220     LIBCMT:syserr.obj
 0002:00008234       ??_C@_0BC@BEDIHIDK@Filename?5too?5long?$AA@ 0043d234     LIBCMT:syserr.obj
 0002:00008248       ??_C@_0BK@JAEBMJJM@Resource?5deadlock?5avoided?$AA@ 0043d248     LIBCMT:syserr.obj
 0002:00008264       ??_C@_0BB@FCBJFCAJ@Result?5too?5large?$AA@ 0043d264     LIBCMT:syserr.obj
 0002:00008278       ??_C@_0N@MMJPGLJK@Domain?5error?$AA@ 0043d278     LIBCMT:syserr.obj
 0002:00008288       ??_C@_0M@LHEPIIOM@Broken?5pipe?$AA@ 0043d288     LIBCMT:syserr.obj
 0002:00008294       ??_C@_0P@PKCJJLLM@Too?5many?5links?$AA@ 0043d294     LIBCMT:syserr.obj
 0002:000082a4       ??_C@_0BG@DDBFNKBH@Read?9only?5file?5system?$AA@ 0043d2a4     LIBCMT:syserr.obj
 0002:000082bc       ??_C@_0N@FEHLOILP@Invalid?5seek?$AA@ 0043d2bc     LIBCMT:syserr.obj
 0002:000082cc       ??_C@_0BI@FEALHKLD@No?5space?5left?5on?5device?$AA@ 0043d2cc     LIBCMT:syserr.obj
 0002:000082e4       ??_C@_0P@LFMMIPAE@File?5too?5large?$AA@ 0043d2e4     LIBCMT:syserr.obj
 0002:000082f4       ??_C@_0CE@ONOKNLPF@Inappropriate?5I?1O?5control?5operat@ 0043d2f4     LIBCMT:syserr.obj
 0002:00008318       ??_C@_0BE@INBJMKGG@Too?5many?5open?5files?$AA@ 0043d318     LIBCMT:syserr.obj
 0002:0000832c       ??_C@_0BO@IIFBODJE@Too?5many?5open?5files?5in?5system?$AA@ 0043d32c     LIBCMT:syserr.obj
 0002:0000834c       ??_C@_0BB@HMGGCEBG@Invalid?5argument?$AA@ 0043d34c     LIBCMT:syserr.obj
 0002:00008360       ??_C@_0P@NDHGCGKE@Is?5a?5directory?$AA@ 0043d360     LIBCMT:syserr.obj
 0002:00008370       ??_C@_0BA@CJBACOOL@Not?5a?5directory?$AA@ 0043d370     LIBCMT:syserr.obj
 0002:00008380       ??_C@_0P@NLEIANHE@No?5such?5device?$AA@ 0043d380     LIBCMT:syserr.obj
 0002:00008390       ??_C@_0O@OAMDNOCP@Improper?5link?$AA@ 0043d390     LIBCMT:syserr.obj
 0002:000083a0       ??_C@_0M@NAAJNNGH@File?5exists?$AA@ 0043d3a0     LIBCMT:syserr.obj
 0002:000083ac       ??_C@_0BA@BIBLIOEK@Resource?5device?$AA@ 0043d3ac     LIBCMT:syserr.obj
 0002:000083bc       ??_C@_0O@NIPGCINC@Unknown?5error?$AA@ 0043d3bc     LIBCMT:syserr.obj
 0002:000083cc       ??_C@_0M@LOEHLCJD@Bad?5address?$AA@ 0043d3cc     LIBCMT:syserr.obj
 0002:000083d8       ??_C@_0BC@HFNFNKAI@Permission?5denied?$AA@ 0043d3d8     LIBCMT:syserr.obj
 0002:000083ec       ??_C@_0BB@IMDKMPFB@Not?5enough?5space?$AA@ 0043d3ec     LIBCMT:syserr.obj
 0002:00008400       ??_C@_0CB@EPFKGNAK@Resource?5temporarily?5unavailable@ 0043d400     LIBCMT:syserr.obj
 0002:00008424       ??_C@_0BD@LOHELEP@No?5child?5processes?$AA@ 0043d424     LIBCMT:syserr.obj
 0002:00008438       ??_C@_0BE@NFGDDCEF@Bad?5file?5descriptor?$AA@ 0043d438     LIBCMT:syserr.obj
 0002:0000844c       ??_C@_0BC@HKPNECK@Exec?5format?5error?$AA@ 0043d44c     LIBCMT:syserr.obj
 0002:00008460       ??_C@_0BC@MFFGCDFL@Arg?5list?5too?5long?$AA@ 0043d460     LIBCMT:syserr.obj
 0002:00008474       ??_C@_0BK@DPKMCKJ@No?5such?5device?5or?5address?$AA@ 0043d474     LIBCMT:syserr.obj
 0002:00008490       ??_C@_0BD@KKNFOBBD@Input?1output?5error?$AA@ 0043d490     LIBCMT:syserr.obj
 0002:000084a4       ??_C@_0BK@FJBOAFDK@Interrupted?5function?5call?$AA@ 0043d4a4     LIBCMT:syserr.obj
 0002:000084c0       ??_C@_0BA@FKIAIBGA@No?5such?5process?$AA@ 0043d4c0     LIBCMT:syserr.obj
 0002:000084d0       ??_C@_0BK@FMDHKPNF@No?5such?5file?5or?5directory?$AA@ 0043d4d0     LIBCMT:syserr.obj
 0002:000084ec       ??_C@_0BI@BJFCGOHL@Operation?5not?5permitted?$AA@ 0043d4ec     LIBCMT:syserr.obj
 0002:00008504       ??_C@_08INEPGKHH@No?5error?$AA@ 0043d504     LIBCMT:syserr.obj
 0002:00008510       ??_C@_0BK@CFCOFLF@?5Complete?5Object?5Locator?8?$AA@ 0043d510     LIBCMT:undname.obj
 0002:0000852c       ??_C@_0BN@MECKDCOJ@?5Class?5Hierarchy?5Descriptor?8?$AA@ 0043d52c     LIBCMT:undname.obj
 0002:0000854c       ??_C@_0BD@LGICGFMM@?5Base?5Class?5Array?8?$AA@ 0043d54c     LIBCMT:undname.obj
 0002:00008560       ??_C@_0BM@LDKODKLH@?5Base?5Class?5Descriptor?5at?5?$CI?$AA@ 0043d560     LIBCMT:undname.obj
 0002:0000857c       ??_C@_0BC@DAFEJGAK@?5Type?5Descriptor?8?$AA@ 0043d57c     LIBCMT:undname.obj
 0002:00008590       ??_C@_0BM@PMGGMLDN@?$GAlocal?5static?5thread?5guard?8?$AA@ 0043d590     LIBCMT:undname.obj
 0002:000085ac       ??_C@_0CL@FGIJHLCE@?$GAmanaged?5vector?5copy?5constructor@ 0043d5ac     LIBCMT:undname.obj
 0002:000085d8       ??_C@_0CJ@GJELGAMM@?$GAvector?5vbase?5copy?5constructor?5i@ 0043d5d8     LIBCMT:undname.obj
 0002:00008604       ??_C@_0CD@CGAJBKEJ@?$GAvector?5copy?5constructor?5iterato@ 0043d604     LIBCMT:undname.obj
 0002:00008628       ??_C@_0CB@PDBIFEP@?$GAdynamic?5atexit?5destructor?5for?5?8@ 0043d628     LIBCMT:undname.obj
 0002:0000864c       ??_C@_0BL@CLIPGLGB@?$GAdynamic?5initializer?5for?5?8?$AA@ 0043d64c     LIBCMT:undname.obj
 0002:00008668       ??_C@_0CM@FCBBDIGB@?$GAeh?5vector?5vbase?5copy?5constructo@ 0043d668     LIBCMT:undname.obj
 0002:00008694       ??_C@_0CG@HLDDJMAG@?$GAeh?5vector?5copy?5constructor?5iter@ 0043d694     LIBCMT:undname.obj
 0002:000086bc       ??_C@_0CF@IMGKMJNO@?$GAmanaged?5vector?5destructor?5itera@ 0043d6bc     LIBCMT:undname.obj
 0002:000086e4       ??_C@_0CG@CFDHKGGD@?$GAmanaged?5vector?5constructor?5iter@ 0043d6e4     LIBCMT:undname.obj
 0002:0000870c       ??_C@_0BN@CKNJLHMB@?$GAplacement?5delete?$FL?$FN?5closure?8?$AA@ 0043d70c     LIBCMT:undname.obj
 0002:0000872c       ??_C@_0BL@CNOONJFP@?$GAplacement?5delete?5closure?8?$AA@ 0043d72c     LIBCMT:undname.obj
 0002:00008748       ??_C@_0P@HJKNJFNN@?$GAomni?5callsig?8?$AA@ 0043d748     LIBCMT:undname.obj
 0002:00008758       ??_C@_09LBNFPBCA@?5delete?$FL?$FN?$AA@ 0043d758     LIBCMT:undname.obj
 0002:00008764       ??_C@_06FHBGPFGH@?5new?$FL?$FN?$AA@ 0043d764     LIBCMT:undname.obj
 0002:0000876c       ??_C@_0CE@IIHCMGGL@?$GAlocal?5vftable?5constructor?5closu@ 0043d76c     LIBCMT:undname.obj
 0002:00008790       ??_C@_0BA@KKLDJDLB@?$GAlocal?5vftable?8?$AA@ 0043d790     LIBCMT:undname.obj
 0002:000087a0       ??_C@_05KHLCHHI@?$GARTTI?$AA@ 0043d7a0     LIBCMT:undname.obj
 0002:000087a8       ??_C@_03KLGMFNMG@?$GAEH?$AA@ 0043d7a8     LIBCMT:undname.obj
 0002:000087ac       ??_C@_0BA@KBCDOMBN@?$GAudt?5returning?8?$AA@ 0043d7ac     LIBCMT:undname.obj
 0002:000087bc       ??_C@_0BL@LLKPOHJI@?$GAcopy?5constructor?5closure?8?$AA@ 0043d7bc     LIBCMT:undname.obj
 0002:000087d8       ??_C@_0CH@OOJPLCPH@?$GAeh?5vector?5vbase?5constructor?5ite@ 0043d7d8     LIBCMT:undname.obj
 0002:00008800       ??_C@_0CA@GCEOPDGL@?$GAeh?5vector?5destructor?5iterator?8?$AA@ 0043d800     LIBCMT:undname.obj
 0002:00008820       ??_C@_0CB@JONCMFFK@?$GAeh?5vector?5constructor?5iterator?8@ 0043d820     LIBCMT:undname.obj
 0002:00008844       ??_C@_0BL@NILFHHPC@?$GAvirtual?5displacement?5map?8?$AA@ 0043d844     LIBCMT:undname.obj
 0002:00008860       ??_C@_0CE@IKBNEHA@?$GAvector?5vbase?5constructor?5iterat@ 0043d860     LIBCMT:undname.obj
 0002:00008884       ??_C@_0BN@LFPFMEDL@?$GAvector?5destructor?5iterator?8?$AA@ 0043d884     LIBCMT:undname.obj
 0002:000088a4       ??_C@_0BO@PFGOCPJJ@?$GAvector?5constructor?5iterator?8?$AA@ 0043d8a4     LIBCMT:undname.obj
 0002:000088c4       ??_C@_0BN@IMDCHIKM@?$GAscalar?5deleting?5destructor?8?$AA@ 0043d8c4     LIBCMT:undname.obj
 0002:000088e4       ??_C@_0BO@OBMKPJIG@?$GAdefault?5constructor?5closure?8?$AA@ 0043d8e4     LIBCMT:undname.obj
 0002:00008904       ??_C@_0BN@DEGPLNFK@?$GAvector?5deleting?5destructor?8?$AA@ 0043d904     LIBCMT:undname.obj
 0002:00008924       ??_C@_0BD@JDLKDPAB@?$GAvbase?5destructor?8?$AA@ 0043d924     LIBCMT:undname.obj
 0002:00008938       ??_C@_08OBABFOLI@?$GAstring?8?$AA@ 0043d938     LIBCMT:undname.obj
 0002:00008944       ??_C@_0BF@KDPPACIK@?$GAlocal?5static?5guard?8?$AA@ 0043d944     LIBCMT:undname.obj
 0002:0000895c       ??_C@_08LLFFHHDJ@?$GAtypeof?8?$AA@ 0043d95c     LIBCMT:undname.obj
 0002:00008968       ??_C@_07FEEIOKP@?$GAvcall?8?$AA@ 0043d968     LIBCMT:undname.obj
 0002:00008970       ??_C@_09BLBHBJP@?$GAvbtable?8?$AA@ 0043d970     LIBCMT:undname.obj
 0002:0000897c       ??_C@_09IFPLHPGF@?$GAvftable?8?$AA@ 0043d97c     LIBCMT:undname.obj
 0002:00008988       ??_C@_02MHEGNOJ@?$FO?$DN?$AA@ 0043d988     LIBCMT:undname.obj
 0002:0000898c       ??_C@_02DHLNPPGH@?$HM?$DN?$AA@ 0043d98c     LIBCMT:undname.obj
 0002:00008990       ??_C@_02FGJGFEAB@?$CG?$DN?$AA@ 0043d990     LIBCMT:undname.obj
 0002:00008994       ??_C@_03CDNPDDLA@?$DM?$DM?$DN?$AA@ 0043d994     LIBCMT:undname.obj
 0002:00008998       ??_C@_03IKFCCPFF@?$DO?$DO?$DN?$AA@ 0043d998     LIBCMT:undname.obj
 0002:0000899c       ??_C@_02FENAOKFI@?$CF?$DN?$AA@ 0043d99c     LIBCMT:undname.obj
 0002:000089a0       ??_C@_02FJEHGPIO@?1?$DN?$AA@ 0043d9a0     LIBCMT:undname.obj
 0002:000089a4       ??_C@_02FKMDLLOA@?9?$DN?$AA@ 0043d9a4     LIBCMT:undname.obj
 0002:000089a8       ??_C@_02FOEOMHFC@?$CL?$DN?$AA@ 0043d9a8     LIBCMT:undname.obj
 0002:000089ac       ??_C@_02FPIMKNGF@?$CK?$DN?$AA@ 0043d9ac     LIBCMT:undname.obj
 0002:000089b0       ??_C@_02NONPIBCD@?$HM?$HM?$AA@ 0043d9b0     LIBCMT:undname.obj
 0002:000089b4       ??_C@_02PPKAJPJL@?$CG?$CG?$AA@ 0043d9b4     LIBCMT:undname.obj
 0002:000089b8       ??_C@_01DNKMNLPK@?$HM?$AA@ 0043d9b8     LIBCMT:undname.obj
 0002:000089bc       ??_C@_01JKBOJNNK@?$FO?$AA@ 0043d9bc     LIBCMT:undname.obj
 0002:000089c0       ??_C@_01PJKLJHI@?$HO?$AA@  0043d9c0     LIBCMT:undname.obj
 0002:000089c4       ??_C@_02HCKGKOFO@?$CI?$CJ?$AA@ 0043d9c4     LIBCMT:undname.obj
 0002:000089c8       ??_C@_01IHBHIGKO@?0?$AA@   0043d9c8     LIBCMT:undname.obj
 0002:000089cc       ??_C@_02EEKDKGMJ@?$DO?$DN?$AA@ 0043d9cc     LIBCMT:undname.obj
 0002:000089d0       ??_C@_01PPODPGHN@?$DO?$AA@ 0043d9d0     LIBCMT:undname.obj
 0002:000089d4       ??_C@_02EHCHHCKH@?$DM?$DN?$AA@ 0043d9d4     LIBCMT:undname.obj
 0002:000089d8       ??_C@_01MNNFJEPP@?$DM?$AA@ 0043d9d8     LIBCMT:undname.obj
 0002:000089dc       ??_C@_01FGNFDNOH@?$CF?$AA@ 0043d9dc     LIBCMT:undname.obj
 0002:000089e0       ??_C@_03MNHNFDLC@?9?$DO?$CK?$AA@ 0043d9e0     LIBCMT:undname.obj
 0002:000089e4       ??_C@_01HNPIGOCE@?$CG?$AA@ 0043d9e4     LIBCMT:undname.obj
 0002:000089e8       ??_C@_01MIFGBAGJ@?$CL?$AA@ 0043d9e8     LIBCMT:undname.obj
 0002:000089ec       ??_C@_01JOAMLHOP@?9?$AA@   0043d9ec     LIBCMT:undname.obj
 0002:000089f0       ??_C@_02BAABKJLB@?9?9?$AA@ 0043d9f0     LIBCMT:undname.obj
 0002:000089f4       ??_C@_02ECNGHCIF@?$CL?$CL?$AA@ 0043d9f4     LIBCMT:undname.obj
 0002:000089f8       ??_C@_02HBOOOICD@?9?$DO?$AA@ 0043d9f8     LIBCMT:undname.obj
 0002:000089fc       ??_C@_08LHJFAFGD@operator?$AA@ 0043d9fc     LIBCMT:undname.obj
 0002:00008a08       ??_C@_02GPECMEKF@?$FL?$FN?$AA@ 0043da08     LIBCMT:undname.obj
 0002:00008a0c       ??_C@_02FDNJECIE@?$CB?$DN?$AA@ 0043da0c     LIBCMT:undname.obj
 0002:00008a10       ??_C@_02EGOFBIJA@?$DN?$DN?$AA@ 0043da10     LIBCMT:undname.obj
 0002:00008a14       ??_C@_01DCLJPIOD@?$CB?$AA@ 0043da14     LIBCMT:undname.obj
 0002:00008a18       ??_C@_02FODMEDOG@?$DM?$DM?$AA@ 0043da18     LIBCMT:undname.obj
 0002:00008a1c       ??_C@_02GPIOPFAK@?$DO?$DO?$AA@ 0043da1c     LIBCMT:undname.obj
 0002:00008a20       ??_C@_07FPCDHGMM@?5delete?$AA@ 0043da20     LIBCMT:undname.obj
 0002:00008a28       ??_C@_04NIHEBCM@?5new?$AA@ 0043da28     LIBCMT:undname.obj
 0002:00008a30       ??_C@_0M@GFIIJFMG@__unaligned?$AA@ 0043da30     LIBCMT:undname.obj
 0002:00008a3c       ??_C@_0L@PILCLIHE@__restrict?$AA@ 0043da3c     LIBCMT:undname.obj
 0002:00008a48       ??_C@_07JOMMBBKO@__ptr64?$AA@ 0043da48     LIBCMT:undname.obj
 0002:00008a50       ??_C@_06GHPCKEAG@__eabi?$AA@ 0043da50     LIBCMT:undname.obj
 0002:00008a58       ??_C@_09HIJEGCPM@__clrcall?$AA@ 0043da58     LIBCMT:undname.obj
 0002:00008a64       ??_C@_0L@JMKHOMEK@__fastcall?$AA@ 0043da64     LIBCMT:undname.obj
 0002:00008a70       ??_C@_0L@NPHFGOKO@__thiscall?$AA@ 0043da70     LIBCMT:undname.obj
 0002:00008a7c       ??_C@_09IFJBGAPI@__stdcall?$AA@ 0043da7c     LIBCMT:undname.obj
 0002:00008a88       ??_C@_08GHMPAG@__pascal?$AA@ 0043da88     LIBCMT:undname.obj
 0002:00008a94       ??_C@_07KOLFKCDI@__cdecl?$AA@ 0043da94     LIBCMT:undname.obj
 0002:00008a9c       ??_C@_08EHJDFFNH@__based?$CI?$AA@ 0043da9c     LIBCMT:undname.obj
 0002:00008c2c       ??_C@_0BI@DFKBFLJE@GetProcessWindowStation?$AA@ 0043dc2c     LIBCMT:crtmboxw.obj
 0002:00008c44       ??_C@_0BK@DEKFELLI@GetUserObjectInformationW?$AA@ 0043dc44     LIBCMT:crtmboxw.obj
 0002:00008c60       ??_C@_0BD@HHGDFDBJ@GetLastActivePopup?$AA@ 0043dc60     LIBCMT:crtmboxw.obj
 0002:00008c74       ??_C@_0BA@HNOPNCHB@GetActiveWindow?$AA@ 0043dc74     LIBCMT:crtmboxw.obj
 0002:00008c84       ??_C@_0M@DLDCCGNP@MessageBoxW?$AA@ 0043dc84     LIBCMT:crtmboxw.obj
 0002:00008c90       ??_C@_1BG@GOEBHBDC@?$AAU?$AAS?$AAE?$AAR?$AA3?$AA2?$AA?4?$AAD?$AAL?$AAL?$AA?$AA@ 0043dc90     LIBCMT:crtmboxw.obj
 0002:00008ca8       ??_C@_06IMKFLFPG@1?$CDQNAN?$AA@ 0043dca8     LIBCMT:_x10fout_.obj
 0002:00008cb0       ??_C@_05DNEBIAHO@1?$CDINF?$AA@ 0043dcb0     LIBCMT:_x10fout_.obj
 0002:00008cb8       ??_C@_05PHHOCPM@1?$CDIND?$AA@ 0043dcb8     LIBCMT:_x10fout_.obj
 0002:00008cc0       ??_C@_06PGGFOGJG@1?$CDSNAN?$AA@ 0043dcc0     LIBCMT:_x10fout_.obj
 0002:00008cc8       ??_C@_1BA@BALFACEM@?$AAC?$AAO?$AAN?$AAO?$AAU?$AAT?$AA$?$AA?$AA@ 0043dcc8     LIBCMT:initcon.obj
 0002:00009018       ??_C@_1O@PNMIMBDD@?$AAC?$AAO?$AAN?$AAI?$AAN?$AA$?$AA?$AA@ 0043e018     LIBCMT:initconin.obj
 0002:00009028       __load_config_used         0043e028     LIBCMT:loadcfg.obj
 0002:00009070       ??_R4runtime_error@std@@6B@ 0043e070     client.obj
 0002:00009084       ??_R3runtime_error@std@@8  0043e084     client.obj
 0002:00009094       ??_R2runtime_error@std@@8  0043e094     client.obj
 0002:000090a0       ??_R1A@?0A@EA@runtime_error@std@@8 0043e0a0     client.obj
 0002:000090bc       ??_R1A@?0A@EA@exception@std@@8 0043e0bc     client.obj
 0002:000090d8       ??_R3exception@std@@8      0043e0d8     client.obj
 0002:000090e8       ??_R2exception@std@@8      0043e0e8     client.obj
 0002:000090f0       ??_R4facet@locale@std@@6B@ 0043e0f0     client.obj
 0002:00009104       ??_R3facet@locale@std@@8   0043e104     client.obj
 0002:00009114       ??_R2facet@locale@std@@8   0043e114     client.obj
 0002:0000911c       ??_R1A@?0A@EA@facet@locale@std@@8 0043e11c     client.obj
 0002:00009138       ??_R4system_error@std@@6B@ 0043e138     client.obj
 0002:0000914c       ??_R3system_error@std@@8   0043e14c     client.obj
 0002:0000915c       ??_R2system_error@std@@8   0043e15c     client.obj
 0002:0000916c       ??_R1A@?0A@EA@system_error@std@@8 0043e16c     client.obj
 0002:00009188       ??_R4failure@ios_base@std@@6B@ 0043e188     client.obj
 0002:0000919c       ??_R3failure@ios_base@std@@8 0043e19c     client.obj
 0002:000091ac       ??_R2failure@ios_base@std@@8 0043e1ac     client.obj
 0002:000091c0       ??_R1A@?0A@EA@failure@ios_base@std@@8 0043e1c0     client.obj
 0002:000091dc       ??_R4?$num_put@DV?$ostreambuf_iterator@DU?$char_traits@D@std@@@std@@@std@@6B@ 0043e1dc     client.obj
 0002:000091f0       ??_R3?$num_put@DV?$ostreambuf_iterator@DU?$char_traits@D@std@@@std@@@std@@8 0043e1f0     client.obj
 0002:00009200       ??_R2?$num_put@DV?$ostreambuf_iterator@DU?$char_traits@D@std@@@std@@@std@@8 0043e200     client.obj
 0002:0000920c       ??_R1A@?0A@EA@?$num_put@DV?$ostreambuf_iterator@DU?$char_traits@D@std@@@std@@@std@@8 0043e20c     client.obj
 0002:00009228       ??_R4bad_alloc@std@@6B@    0043e228     client.obj
 0002:0000923c       ??_R3bad_alloc@std@@8      0043e23c     client.obj
 0002:0000924c       ??_R2bad_alloc@std@@8      0043e24c     client.obj
 0002:00009258       ??_R1A@?0A@EA@bad_alloc@std@@8 0043e258     client.obj
 0002:00009274       ??_R4?$numpunct@D@std@@6B@ 0043e274     client.obj
 0002:00009288       ??_R3?$numpunct@D@std@@8   0043e288     client.obj
 0002:00009298       ??_R2?$numpunct@D@std@@8   0043e298     client.obj
 0002:000092a4       ??_R1A@?0A@EA@?$numpunct@D@std@@8 0043e2a4     client.obj
 0002:000092c0       ??_R4EQNetworkPacket@@6B@  0043e2c0     EQNetwork.obj
 0002:000092d4       ??_R3EQNetworkPacket@@8    0043e2d4     EQNetwork.obj
 0002:000092e4       ??_R2EQNetworkPacket@@8    0043e2e4     EQNetwork.obj
 0002:000092ec       ??_R1A@?0A@EA@EQNetworkPacket@@8 0043e2ec     EQNetwork.obj
 0002:00009308       ??_R4EQNetworkFragmentGroup@@6B@ 0043e308     EQNetwork.obj
 0002:0000931c       ??_R3EQNetworkFragmentGroup@@8 0043e31c     EQNetwork.obj
 0002:0000932c       ??_R2EQNetworkFragmentGroup@@8 0043e32c     EQNetwork.obj
 0002:00009334       ??_R1A@?0A@EA@EQNetworkFragmentGroup@@8 0043e334     EQNetwork.obj
 0002:00009350       ??_R4EQNetworkServer@@6B@  0043e350     EQNetwork.obj
 0002:00009364       ??_R3EQNetworkServer@@8    0043e364     EQNetwork.obj
 0002:00009374       ??_R2EQNetworkServer@@8    0043e374     EQNetwork.obj
 0002:0000937c       ??_R1A@?0A@EA@EQNetworkServer@@8 0043e37c     EQNetwork.obj
 0002:00009398       ??_R4EQNetworkFragmentGroupList@@6B@ 0043e398     EQNetwork.obj
 0002:000093ac       ??_R3EQNetworkFragmentGroupList@@8 0043e3ac     EQNetwork.obj
 0002:000093bc       ??_R2EQNetworkFragmentGroupList@@8 0043e3bc     EQNetwork.obj
 0002:000093c4       ??_R1A@?0A@EA@EQNetworkFragmentGroupList@@8 0043e3c4     EQNetwork.obj
 0002:000093e0       ??_R4EQNetworkConnection@@6B@ 0043e3e0     EQNetwork.obj
 0002:000093f4       ??_R3EQNetworkConnection@@8 0043e3f4     EQNetwork.obj
 0002:00009404       ??_R2EQNetworkConnection@@8 0043e404     EQNetwork.obj
 0002:0000940c       ??_R1A@?0A@EA@EQNetworkConnection@@8 0043e40c     EQNetwork.obj
 0002:00009428       ??_R4TCPConnection@@6B@    0043e428     TCPConnection.obj
 0002:0000943c       ??_R3TCPConnection@@8      0043e43c     TCPConnection.obj
 0002:0000944c       ??_R2TCPConnection@@8      0043e44c     TCPConnection.obj
 0002:00009454       ??_R1A@?0A@EA@TCPConnection@@8 0043e454     TCPConnection.obj
 0002:00009470       ??_R4TCPServer@@6B@        0043e470     TCPConnection.obj
 0002:00009484       ??_R3TCPServer@@8          0043e484     TCPConnection.obj
 0002:00009494       ??_R2TCPServer@@8          0043e494     TCPConnection.obj
 0002:0000949c       ??_R1A@?0A@EA@TCPServer@@8 0043e49c     TCPConnection.obj
 0002:000094b8       ??_R4_Locimp@locale@std@@6B@ 0043e4b8     libcpmt:locale0.obj
 0002:000094cc       ??_R3_Locimp@locale@std@@8 0043e4cc     libcpmt:locale0.obj
 0002:000094dc       ??_R2_Locimp@locale@std@@8 0043e4dc     libcpmt:locale0.obj
 0002:000094e8       ??_R1A@?0A@EA@_Locimp@locale@std@@8 0043e4e8     libcpmt:locale0.obj
 0002:00009504       ??_R4error_category@std@@6B@ 0043e504     libcpmt:syserror.obj
 0002:00009518       ??_R3error_category@std@@8 0043e518     libcpmt:syserror.obj
 0002:00009528       ??_R2error_category@std@@8 0043e528     libcpmt:syserror.obj
 0002:00009530       ??_R1A@?0A@EA@error_category@std@@8 0043e530     libcpmt:syserror.obj
 0002:0000954c       ??_R4_Generic_error_category@std@@6B@ 0043e54c     libcpmt:syserror.obj
 0002:00009560       ??_R3_Generic_error_category@std@@8 0043e560     libcpmt:syserror.obj
 0002:00009570       ??_R2_Generic_error_category@std@@8 0043e570     libcpmt:syserror.obj
 0002:0000957c       ??_R1A@?0A@EA@_Generic_error_category@std@@8 0043e57c     libcpmt:syserror.obj
 0002:00009598       ??_R4_Iostream_error_category@std@@6B@ 0043e598     libcpmt:syserror.obj
 0002:000095ac       ??_R3_Iostream_error_category@std@@8 0043e5ac     libcpmt:syserror.obj
 0002:000095bc       ??_R2_Iostream_error_category@std@@8 0043e5bc     libcpmt:syserror.obj
 0002:000095c8       ??_R1A@?0A@EA@_Iostream_error_category@std@@8 0043e5c8     libcpmt:syserror.obj
 0002:000095e4       ??_R4_System_error_category@std@@6B@ 0043e5e4     libcpmt:syserror.obj
 0002:000095f8       ??_R3_System_error_category@std@@8 0043e5f8     libcpmt:syserror.obj
 0002:00009608       ??_R2_System_error_category@std@@8 0043e608     libcpmt:syserror.obj
 0002:00009618       ??_R1A@?0A@EA@_System_error_category@std@@8 0043e618     libcpmt:syserror.obj
 0002:00009634       ??_R4logic_error@std@@6B@  0043e634     libcpmt:xthrow.obj
 0002:00009648       ??_R3logic_error@std@@8    0043e648     libcpmt:xthrow.obj
 0002:00009658       ??_R2logic_error@std@@8    0043e658     libcpmt:xthrow.obj
 0002:00009664       ??_R1A@?0A@EA@logic_error@std@@8 0043e664     libcpmt:xthrow.obj
 0002:00009680       ??_R4length_error@std@@6B@ 0043e680     libcpmt:xthrow.obj
 0002:00009694       ??_R3length_error@std@@8   0043e694     libcpmt:xthrow.obj
 0002:000096a4       ??_R2length_error@std@@8   0043e6a4     libcpmt:xthrow.obj
 0002:000096b4       ??_R1A@?0A@EA@length_error@std@@8 0043e6b4     libcpmt:xthrow.obj
 0002:000096d0       ??_R4out_of_range@std@@6B@ 0043e6d0     libcpmt:xthrow.obj
 0002:000096e4       ??_R3out_of_range@std@@8   0043e6e4     libcpmt:xthrow.obj
 0002:000096f4       ??_R2out_of_range@std@@8   0043e6f4     libcpmt:xthrow.obj
 0002:00009704       ??_R1A@?0A@EA@out_of_range@std@@8 0043e704     libcpmt:xthrow.obj
 0002:00009720       ??_R3ctype_base@std@@8     0043e720     libcpmt:cout.obj
 0002:00009730       ??_R2ctype_base@std@@8     0043e730     libcpmt:cout.obj
 0002:0000973c       ??_R1A@?0A@EA@ctype_base@std@@8 0043e73c     libcpmt:cout.obj
 0002:00009758       ??_R4ios_base@std@@6B@     0043e758     libcpmt:cout.obj
 0002:0000976c       ??_R3ios_base@std@@8       0043e76c     libcpmt:cout.obj
 0002:0000977c       ??_R2ios_base@std@@8       0043e77c     libcpmt:cout.obj
 0002:00009788       ??_R1A@?0A@EA@ios_base@std@@8 0043e788     libcpmt:cout.obj
 0002:000097a4       ??_R17?0A@EA@?$_Iosb@H@std@@8 0043e7a4     libcpmt:cout.obj
 0002:000097c0       ??_R3?$_Iosb@H@std@@8      0043e7c0     libcpmt:cout.obj
 0002:000097d0       ??_R2?$_Iosb@H@std@@8      0043e7d0     libcpmt:cout.obj
 0002:000097d8       ??_R1A@?0A@EA@?$_Iosb@H@std@@8 0043e7d8     libcpmt:cout.obj
 0002:000097f4       ??_R4?$basic_ostream@DU?$char_traits@D@std@@@std@@6B@ 0043e7f4     libcpmt:cout.obj
 0002:00009808       ??_R3?$basic_ostream@DU?$char_traits@D@std@@@std@@8 0043e808     libcpmt:cout.obj
 0002:00009818       ??_R2?$basic_ostream@DU?$char_traits@D@std@@@std@@8 0043e818     libcpmt:cout.obj
 0002:0000982c       ??_R1A@?0A@EA@?$basic_ostream@DU?$char_traits@D@std@@@std@@8 0043e82c     libcpmt:cout.obj
 0002:00009848       ??_R1A@A@3FA@?$basic_ios@DU?$char_traits@D@std@@@std@@8 0043e848     libcpmt:cout.obj
 0002:00009864       ??_R3?$basic_ios@DU?$char_traits@D@std@@@std@@8 0043e864     libcpmt:cout.obj
 0002:00009874       ??_R2?$basic_ios@DU?$char_traits@D@std@@@std@@8 0043e874     libcpmt:cout.obj
 0002:00009884       ??_R1A@?0A@EA@?$basic_ios@DU?$char_traits@D@std@@@std@@8 0043e884     libcpmt:cout.obj
 0002:000098a0       ??_R1A@A@3EA@ios_base@std@@8 0043e8a0     libcpmt:cout.obj
 0002:000098bc       ??_R17A@3EA@?$_Iosb@H@std@@8 0043e8bc     libcpmt:cout.obj
 0002:000098d8       ??_R4?$basic_ios@DU?$char_traits@D@std@@@std@@6B@ 0043e8d8     libcpmt:cout.obj
 0002:000098ec       ??_R4?$ctype@D@std@@6B@    0043e8ec     libcpmt:cout.obj
 0002:00009900       ??_R3?$ctype@D@std@@8      0043e900     libcpmt:cout.obj
 0002:00009910       ??_R2?$ctype@D@std@@8      0043e910     libcpmt:cout.obj
 0002:00009920       ??_R1A@?0A@EA@?$ctype@D@std@@8 0043e920     libcpmt:cout.obj
 0002:0000993c       ??_R4?$basic_streambuf@DU?$char_traits@D@std@@@std@@6B@ 0043e93c     libcpmt:cout.obj
 0002:00009950       ??_R3?$basic_streambuf@DU?$char_traits@D@std@@@std@@8 0043e950     libcpmt:cout.obj
 0002:00009960       ??_R2?$basic_streambuf@DU?$char_traits@D@std@@@std@@8 0043e960     libcpmt:cout.obj
 0002:00009968       ??_R1A@?0A@EA@?$basic_streambuf@DU?$char_traits@D@std@@@std@@8 0043e968     libcpmt:cout.obj
 0002:00009984       ??_R4?$basic_filebuf@DU?$char_traits@D@std@@@std@@6B@ 0043e984     libcpmt:cout.obj
 0002:00009998       ??_R3?$basic_filebuf@DU?$char_traits@D@std@@@std@@8 0043e998     libcpmt:cout.obj
 0002:000099a8       ??_R2?$basic_filebuf@DU?$char_traits@D@std@@@std@@8 0043e9a8     libcpmt:cout.obj
 0002:000099b4       ??_R1A@?0A@EA@?$basic_filebuf@DU?$char_traits@D@std@@@std@@8 0043e9b4     libcpmt:cout.obj
 0002:000099d0       ??_R3codecvt_base@std@@8   0043e9d0     libcpmt:cout.obj
 0002:000099e0       ??_R2codecvt_base@std@@8   0043e9e0     libcpmt:cout.obj
 0002:000099ec       ??_R1A@?0A@EA@codecvt_base@std@@8 0043e9ec     libcpmt:cout.obj
 0002:00009a08       ??_R4?$codecvt@DDH@std@@6B@ 0043ea08     libcpmt:cout.obj
 0002:00009a1c       ??_R3?$codecvt@DDH@std@@8  0043ea1c     libcpmt:cout.obj
 0002:00009a2c       ??_R2?$codecvt@DDH@std@@8  0043ea2c     libcpmt:cout.obj
 0002:00009a3c       ??_R1A@?0A@EA@?$codecvt@DDH@std@@8 0043ea3c     libcpmt:cout.obj
 0002:00009a58       ??_R4exception@std@@6B@    0043ea58     LIBCMT:stdexcpt.obj
 0002:00009a6c       ??_R4bad_cast@std@@6B@     0043ea6c     LIBCMT:stdexcpt.obj
 0002:00009a80       ??_R3bad_cast@std@@8       0043ea80     LIBCMT:stdexcpt.obj
 0002:00009a90       ??_R2bad_cast@std@@8       0043ea90     LIBCMT:stdexcpt.obj
 0002:00009a9c       ??_R1A@?0A@EA@bad_cast@std@@8 0043ea9c     LIBCMT:stdexcpt.obj
 0002:00009ab8       ??_R4type_info@@6B@        0043eab8     LIBCMT:typinfo.obj
 0002:00009acc       ??_R3type_info@@8          0043eacc     LIBCMT:typinfo.obj
 0002:00009adc       ??_R2type_info@@8          0043eadc     LIBCMT:typinfo.obj
 0002:00009ae4       ??_R1A@?0A@EA@type_info@@8 0043eae4     LIBCMT:typinfo.obj
 0002:00009b00       ??_R4bad_exception@std@@6B@ 0043eb00     LIBCMT:frame.obj
 0002:00009b14       ??_R3bad_exception@std@@8  0043eb14     LIBCMT:frame.obj
 0002:00009b24       ??_R2bad_exception@std@@8  0043eb24     LIBCMT:frame.obj
 0002:00009b30       ??_R1A@?0A@EA@bad_exception@std@@8 0043eb30     LIBCMT:frame.obj
 0002:00009b50       ___safe_se_handler_table   0043eb50     <linker-defined>
 0002:00009c90       ___rtc_iaa                 0043ec90     LIBCMT:_initsect_.obj
 0002:00009c94       ___rtc_izz                 0043ec94     LIBCMT:_initsect_.obj
 0002:00009c98       ___rtc_taa                 0043ec98     LIBCMT:_initsect_.obj
 0002:00009c9c       ___rtc_tzz                 0043ec9c     LIBCMT:_initsect_.obj
 0002:00009ccc       __TI4?AVfailure@ios_base@std@@ 0043eccc     client.obj
 0002:00009cdc       __CTA4?AVfailure@ios_base@std@@ 0043ecdc     client.obj
 0002:00009cf0       __CT??_R0?AVfailure@ios_base@std@@@8??0failure@ios_base@std@@QAE@ABV012@@Z20 0043ecf0     client.obj
 0002:00009d0c       __CT??_R0?AVsystem_error@std@@@8??0system_error@std@@QAE@ABV01@@Z20 0043ed0c     client.obj
 0002:00009d28       __CT??_R0?AVruntime_error@std@@@8??0runtime_error@std@@QAE@ABV01@@Z12 0043ed28     client.obj
 0002:00009d44       __CT??_R0?AVexception@std@@@8??0exception@std@@QAE@ABV01@@Z12 0043ed44     client.obj
 0002:00009d60       __TI2?AVbad_alloc@std@@    0043ed60     client.obj
 0002:00009d70       __CTA2?AVbad_alloc@std@@   0043ed70     client.obj
 0002:00009d7c       __CT??_R0?AVbad_alloc@std@@@8??0bad_alloc@std@@QAE@ABV01@@Z12 0043ed7c     client.obj
 0002:00009df0       __TI2?AVruntime_error@std@@ 0043edf0     client.obj
 0002:00009e4c       __CTA2?AVruntime_error@std@@ 0043ee4c     client.obj
 0002:00009fb4       __TI2?AVbad_cast@std@@     0043efb4     client.obj
 0002:00009ff0       __CTA2?AVbad_cast@std@@    0043eff0     client.obj
 0002:00009ffc       __CT??_R0?AVbad_cast@std@@@8??0bad_cast@std@@QAE@ABV01@@Z12 0043effc     client.obj
 0002:0000af4c       __CT??_R0?AVlogic_error@std@@@8??0logic_error@std@@QAE@ABV01@@Z12 0043ff4c     libcpmt:xthrow.obj
 0002:0000af68       __TI3?AVlength_error@std@@ 0043ff68     libcpmt:xthrow.obj
 0002:0000af78       __CTA3?AVlength_error@std@@ 0043ff78     libcpmt:xthrow.obj
 0002:0000af88       __CT??_R0?AVlength_error@std@@@8??0length_error@std@@QAE@ABV01@@Z12 0043ff88     libcpmt:xthrow.obj
 0002:0000afa4       __TI3?AVout_of_range@std@@ 0043ffa4     libcpmt:xthrow.obj
 0002:0000afb4       __CTA3?AVout_of_range@std@@ 0043ffb4     libcpmt:xthrow.obj
 0002:0000afc4       __CT??_R0?AVout_of_range@std@@@8??0out_of_range@std@@QAE@ABV01@@Z12 0043ffc4     libcpmt:xthrow.obj
 0002:0000b4cc       __TI2?AVbad_exception@std@@ 004404cc     LIBCMT:frame.obj
 0002:0000b4dc       __CTA2?AVbad_exception@std@@ 004404dc     LIBCMT:frame.obj
 0002:0000b4e8       __CT??_R0?AVbad_exception@std@@@8??0bad_exception@std@@QAE@ABV01@@Z12 004404e8     LIBCMT:frame.obj
 0002:0000b93c       __IMPORT_DESCRIPTOR_WSOCK32 0044093c     wsock32:WSOCK32.dll
 0002:0000b950       __IMPORT_DESCRIPTOR_LIBMYSQL 00440950     libmysql:LIBMYSQL.dll
 0002:0000b964       __IMPORT_DESCRIPTOR_LIBEAY32 00440964     libeay32:LIBEAY32.dll
 0002:0000b978       __IMPORT_DESCRIPTOR_KERNEL32 00440978     kernel32:KERNEL32.dll
 0002:0000b98c       __NULL_IMPORT_DESCRIPTOR   0044098c     wsock32:WSOCK32.dll
 0003:00000000       ??_R0?AVruntime_error@std@@@8 00442000     client.obj
 0003:00000020       ??_R0?AVexception@std@@@8  00442020     client.obj
 0003:0000003c       ??_R0?AVfacet@locale@std@@@8 0044203c     client.obj
 0003:0000005c       ??_R0?AVsystem_error@std@@@8 0044205c     client.obj
 0003:0000007c       ??_R0?AVfailure@ios_base@std@@@8 0044207c     client.obj
 0003:000000a0       ??_R0?AV?$num_put@DV?$ostreambuf_iterator@DU?$char_traits@D@std@@@std@@@std@@@8 004420a0     client.obj
 0003:000000f4       ??_R0?AVbad_alloc@std@@@8  004420f4     client.obj
 0003:00000110       ??_R0?AV?$numpunct@D@std@@@8 00442110     client.obj
 0003:00000130       ??_R0?AVbad_cast@std@@@8   00442130     client.obj
 0003:0000014c       ?verant_key@EQCrypto@@0PAEA 0044214c     EQCrypto.obj
 0003:00000154       ?RunLoops@@3_NC            00442154     net.obj
 0003:00000158       ?CRC32Table@@3PAIA         00442158     crc32.obj
 0003:00000558       ?ZONE_NAME@@3PBDB          00442558     database.obj
 0003:0000057c       ?adlf@@3V?$AutoDelete@VEQEMuLog@@@@A 0044257c     debug.obj
 0003:00000580       ??_R0?AVEQNetworkPacket@@@8 00442580     EQNetwork.obj
 0003:000005a0       ??_R0?AVEQNetworkFragmentGroup@@@8 004425a0     EQNetwork.obj
 0003:000005c8       ??_R0?AVEQNetworkServer@@@8 004425c8     EQNetwork.obj
 0003:000005e8       ??_R0?AVEQNetworkFragmentGroupList@@@8 004425e8     EQNetwork.obj
 0003:00000614       ??_R0?AVEQNetworkConnection@@@8 00442614     EQNetwork.obj
 0003:00000638       ?check_table@@3PAKA        00442638     packet_functions.obj
 0003:00000a38       ??_R0?AVTCPConnection@@@8  00442a38     TCPConnection.obj
 0003:00000a54       ??_R0?AVTCPServer@@@8      00442a54     TCPConnection.obj
 0003:00000aac       ??_R0?AV_Locimp@locale@std@@@8 00442aac     libcpmt:locale0.obj
 0003:00000ad0       ??_R0?AVerror_category@std@@@8 00442ad0     libcpmt:syserror.obj
 0003:00000af4       ??_R0?AV_Generic_error_category@std@@@8 00442af4     libcpmt:syserror.obj
 0003:00000b20       ??_R0?AV_Iostream_error_category@std@@@8 00442b20     libcpmt:syserror.obj
 0003:00000b4c       ??_R0?AV_System_error_category@std@@@8 00442b4c     libcpmt:syserror.obj
 0003:00000b94       ??_R0?AVlogic_error@std@@@8 00442b94     libcpmt:xthrow.obj
 0003:00000bb4       ??_R0?AVlength_error@std@@@8 00442bb4     libcpmt:xthrow.obj
 0003:00000bd4       ??_R0?AVout_of_range@std@@@8 00442bd4     libcpmt:xthrow.obj
 0003:00000bf4       ??_R0?AUctype_base@std@@@8 00442bf4     libcpmt:cout.obj
 0003:00000c14       ??_R0?AVios_base@std@@@8   00442c14     libcpmt:cout.obj
 0003:00000c30       ??_R0?AV?$_Iosb@H@std@@@8  00442c30     libcpmt:cout.obj
 0003:00000c4c       ??_R0?AV?$basic_ostream@DU?$char_traits@D@std@@@std@@@8 00442c4c     libcpmt:cout.obj
 0003:00000c88       ??_R0?AV?$basic_ios@DU?$char_traits@D@std@@@std@@@8 00442c88     libcpmt:cout.obj
 0003:00000cc0       ??_R0?AV?$ctype@D@std@@@8  00442cc0     libcpmt:cout.obj
 0003:00000cdc       ??_R0?AV?$basic_streambuf@DU?$char_traits@D@std@@@std@@@8 00442cdc     libcpmt:cout.obj
 0003:00000d18       ??_R0?AV?$basic_filebuf@DU?$char_traits@D@std@@@std@@@8 00442d18     libcpmt:cout.obj
 0003:00000d54       ??_R0?AVcodecvt_base@std@@@8 00442d54     libcpmt:cout.obj
 0003:00000d74       ??_R0?AV?$codecvt@DDH@std@@@8 00442d74     libcpmt:cout.obj
 0003:00000da0       ?_PJP_CPP_Copyright@@3PADA 00442da0     libcpmt:iosptrs.obj
 0003:00000dfb       ?_Sync@ios_base@std@@0_NA  00442dfb     libcpmt:ios.obj
 0003:00000dfc       ??_R0?AVtype_info@@@8      00442dfc     LIBCMT:typinfo.obj
 0003:00000e20       ___security_cookie         00442e20     LIBCMT:gs_cookie.obj
 0003:00000e24       ___security_cookie_complement 00442e24     LIBCMT:gs_cookie.obj
 0003:00000e30       ___lconv_static_decimal    00442e30     LIBCMT:lconv.obj
 0003:00000e34       ___lconv_static_W_decimal  00442e34     LIBCMT:lconv.obj
 0003:00000e38       ___lconv_c                 00442e38     LIBCMT:lconv.obj
 0003:00000e88       ___lconv                   00442e88     LIBCMT:lconv.obj
 0003:00000e90       __fltused                  00442e90     LIBCMT:_fpinit_.obj
 0003:00000e94       __ldused                   00442e94     LIBCMT:_fpinit_.obj
 0003:00000ea0       __iob                      00442ea0     LIBCMT:_file.obj
 0003:00001124       ___app_type                00443124     LIBCMT:crt0.obj
 0003:000012a0       ??_R0?AVbad_exception@std@@@8 004432a0     LIBCMT:frame.obj
 0003:000012c0       __pctype                   004432c0     LIBCMT:ctype.obj
 0003:000012c4       __pwctype                  004432c4     LIBCMT:ctype.obj
 0003:000012c8       ___abort_behavior          004432c8     LIBCMT:abort.obj
 0003:000012d0       ___flsindex                004432d0     LIBCMT:tidtable.obj
 0003:000012d4       ___getvalueindex           004432d4     LIBCMT:tidtable.obj
 0003:000012e0       ___globallocalestatus      004432e0     LIBCMT:glstatus.obj
 0003:000012e4       ___clocalestr              004432e4     LIBCMT:nlsdata2.obj
 0003:000012e8       ___lc_time_c               004432e8     LIBCMT:nlsdata2.obj
 0003:00001450       ___initiallocinfo          00443450     LIBCMT:nlsdata2.obj
 0003:00001528       ___ptlocinfo               00443528     LIBCMT:nlsdata2.obj
 0003:0000152c       ___initiallocalestructinfo 0044352c     LIBCMT:nlsdata2.obj
 0003:00001534       ___nullstring              00443534     LIBCMT:output.obj
 0003:00001538       ___wnullstring             00443538     LIBCMT:output.obj
 0003:0000153c       __cfltcvt_tab              0044353c     LIBCMT:cmiscdat.obj
 0003:00001570       ___initialmbcinfo          00443570     LIBCMT:mbctype.obj
 0003:00001790       __mbctype                  00443790     LIBCMT:mbctype.obj
 0003:00001898       __mbcasemap                00443898     LIBCMT:mbctype.obj
 0003:00001998       ___ptmbcinfo               00443998     LIBCMT:mbctype.obj
 0003:00001a90       ___badioinfo               00443a90     LIBCMT:ioinit.obj
 0003:00001c08       __timezone                 00443c08     LIBCMT:timeset.obj
 0003:00001c0c       __daylight                 00443c0c     LIBCMT:timeset.obj
 0003:00001c10       __dstbias                  00443c10     LIBCMT:timeset.obj
 0003:00001c98       __tzname                   00443c98     LIBCMT:timeset.obj
 0003:00001ca0       __lpdays                   00443ca0     LIBCMT:days.obj
 0003:00001cd4       __days                     00443cd4     LIBCMT:days.obj
 0003:00001d10       ___mb_cur_max              00443d10     LIBCMT:nlsdata1.obj
 0003:00001d14       ___decimal_point           00443d14     LIBCMT:nlsdata1.obj
 0003:00001d18       ___decimal_point_length    00443d18     LIBCMT:nlsdata1.obj
 0003:00001d20       __sys_errlist              00443d20     LIBCMT:syserr.obj
 0003:00001dd0       __sys_nerr                 00443dd0     LIBCMT:syserr.obj
 0003:00001de0       __NLG_Destination          00443de0     LIBCMT:exsup.obj
 0003:00001df0       __lookuptrailbytes         00443df0     LIBCMT:read.obj
 0003:00001f20       __pow10pos                 00443f20     LIBCMT:_constpow_.obj
 0003:00002080       __pow10neg                 00444080     LIBCMT:_constpow_.obj
 0003:000021dc       __confh                    004441dc     LIBCMT:initcon.obj
 0003:00002200       __coninpfh                 00444200     LIBCMT:initconin.obj
 0003:00002220       ?_Psave@?$_Facetptr@V?$num_put@DV?$ostreambuf_iterator@DU?$char_traits@D@std@@@std@@@std@@@std@@2PBVfacet@locale@2@B 00444220     client.obj
 0003:00002224       ?_Psave@?$_Facetptr@V?$numpunct@D@std@@@std@@2PBVfacet@locale@2@B 00444224     client.obj
 0003:00002228       ?eq_crypto@@3VEQCrypto@@A  00444228     client.obj
 0003:000022a8       ?id@?$num_put@DV?$ostreambuf_iterator@DU?$char_traits@D@std@@@std@@@std@@2V0locale@2@A 004442a8     client.obj
 0003:000022ac       ?id@?$numpunct@D@std@@2V0locale@2@A 004442ac     client.obj
 0003:000022b0       ?WriteXML_enabled@@3_NA    004442b0     net.obj
 0003:000022b8       ?database@@3VDatabase@@A   004442b8     net.obj
 0003:0001c600       ?client_list@@3VClientList@@A 0045e600     net.obj
 0003:0001c608       ?eqns@@3VEQNetworkServer@@A 0045e608     net.obj
 0003:0001c670       ?net@@3VNetConnection@@A   0045e670     net.obj
 0003:0001ce04       ?world_list@@3VLWorldList@@A 0045ee04     net.obj
 0003:0001ce24       ?LogFile@@3PAVEQEMuLog@@A  0045ee24     debug.obj
 0003:0001ce2c       ?TrylockSupported@@3_NA    0045ee2c     Mutex.obj
 0003:0001ce2d       ?winsock@@3VInitWinsock@@A 0045ee2d     TCPConnection.obj
 0003:0001ce30       ?current_time@@3IA         0045ee30     timer.obj
 0003:0001ce34       ?last_time@@3IA            0045ee34     timer.obj
 0003:0001cea4       ?_Clocptr@_Locimp@locale@std@@0PAV123@A 0045eea4     libcpmt:locale0.obj
 0003:0001cea8       ?_Id_cnt@id@locale@std@@0HA 0045eea8     libcpmt:locale0.obj
 0003:0001ceac       ?id@?$ctype@D@std@@2V0locale@2@A 0045eeac     libcpmt:locale0.obj
 0003:0001ceb0       ?id@?$codecvt@GDH@std@@2V0locale@2@A 0045eeb0     libcpmt:locale0.obj
 0003:0001ceb4       ?id@?$ctype@_W@std@@2V0locale@2@A 0045eeb4     libcpmt:locale0.obj
 0003:0001ceb8       ?id@?$codecvt@_WDH@std@@2V0locale@2@A 0045eeb8     libcpmt:locale0.obj
 0003:0001cec0       ?id@?$ctype@G@std@@2V0locale@2@A 0045eec0     libcpmt:locale0.obj
 0003:0001cec8       ?_Stinit@?1??_Init@?$basic_filebuf@DU?$char_traits@D@std@@@std@@IAEXPAU_iobuf@@W4_Initfl@23@@Z@4HA 0045eec8     libcpmt:cout.obj
 0003:0001cecc       ?_Psave@?$_Facetptr@V?$ctype@D@std@@@std@@2PBVfacet@locale@2@B 0045eecc     libcpmt:cout.obj
 0003:0001ced0       ?_Psave@?$_Facetptr@V?$codecvt@DDH@std@@@std@@2PBVfacet@locale@2@B 0045eed0     libcpmt:cout.obj
 0003:0001cf38       ?cout@std@@3V?$basic_ostream@DU?$char_traits@D@std@@@1@A 0045ef38     libcpmt:cout.obj
 0003:0001cf88       ?id@?$codecvt@DDH@std@@2V0locale@2@A 0045ef88     libcpmt:cout.obj
 0003:0001cfe8       ?cerr@std@@3V?$basic_ostream@DU?$char_traits@D@std@@@1@A 0045efe8     libcpmt:cerr.obj
 0003:0001d138       ?_Ptr_cin@std@@3PAV?$basic_istream@DU?$char_traits@D@std@@@1@A 0045f138     libcpmt:iosptrs.obj
 0003:0001d13c       ?_Ptr_cout@std@@3PAV?$basic_ostream@DU?$char_traits@D@std@@@1@A 0045f13c     libcpmt:iosptrs.obj
 0003:0001d140       ?_Ptr_cerr@std@@3PAV?$basic_ostream@DU?$char_traits@D@std@@@1@A 0045f140     libcpmt:iosptrs.obj
 0003:0001d144       ?_Ptr_clog@std@@3PAV?$basic_ostream@DU?$char_traits@D@std@@@1@A 0045f144     libcpmt:iosptrs.obj
 0003:0001d148       ?_Ptr_wcin@std@@3PAV?$basic_istream@_WU?$char_traits@_W@std@@@1@A 0045f148     libcpmt:iosptrs.obj
 0003:0001d14c       ?_Ptr_wcout@std@@3PAV?$basic_ostream@_WU?$char_traits@_W@std@@@1@A 0045f14c     libcpmt:iosptrs.obj
 0003:0001d150       ?_Ptr_wcerr@std@@3PAV?$basic_ostream@_WU?$char_traits@_W@std@@@1@A 0045f150     libcpmt:iosptrs.obj
 0003:0001d154       ?_Ptr_wclog@std@@3PAV?$basic_ostream@_WU?$char_traits@_W@std@@@1@A 0045f154     libcpmt:iosptrs.obj
 0003:0001d184       ?_Index@ios_base@std@@0HA  0045f184     libcpmt:ios.obj
 0003:0001d1cc       ___lconv_static_null       0045f1cc     LIBCMT:lconv.obj
 0003:0001d1d0       ___lconv_static_W_null     0045f1d0     LIBCMT:lconv.obj
 0003:0001d1d4       ___fastflag                0045f1d4     LIBCMT:_fpinit_.obj
 0003:0001d1f0       __umaskval                 0045f1f0     LIBCMT:crt0dat.obj
 0003:0001d1f4       ___argc                    0045f1f4     LIBCMT:crt0dat.obj
 0003:0001d1f8       ___argv                    0045f1f8     LIBCMT:crt0dat.obj
 0003:0001d1fc       ___wargv                   0045f1fc     LIBCMT:crt0dat.obj
 0003:0001d200       __environ                  0045f200     LIBCMT:crt0dat.obj
 0003:0001d204       ___initenv                 0045f204     LIBCMT:crt0dat.obj
 0003:0001d208       __wenviron                 0045f208     LIBCMT:crt0dat.obj
 0003:0001d20c       ___winitenv                0045f20c     LIBCMT:crt0dat.obj
 0003:0001d210       __pgmptr                   0045f210     LIBCMT:crt0dat.obj
 0003:0001d214       __wpgmptr                  0045f214     LIBCMT:crt0dat.obj
 0003:0001d218       __exitflag                 0045f218     LIBCMT:crt0dat.obj
 0003:0001d21c       __C_Termination_Done       0045f21c     LIBCMT:crt0dat.obj
 0003:0001d220       __C_Exit_Done              0045f220     LIBCMT:crt0dat.obj
 0003:0001d224       __cflush                   0045f224     LIBCMT:_file.obj
 0003:0001d230       __aenvptr                  0045f230     LIBCMT:crt0.obj
 0003:0001d234       __wenvptr                  0045f234     LIBCMT:crt0.obj
 0003:0001d238       ___error_mode              0045f238     LIBCMT:crt0.obj
 0003:0001d23c       ___locale_changed          0045f23c     LIBCMT:setlocal.obj
 0003:0001d240       __maxwait                  0045f240     LIBCMT:crtheap.obj
 0003:0001d24c       ?_pnhHeap@@3P6AHI@ZA       0045f24c     LIBCMT:handler.obj
 0003:0001d250       _gpFlsAlloc                0045f250     LIBCMT:tidtable.obj
 0003:0001d254       _gpFlsGetValue             0045f254     LIBCMT:tidtable.obj
 0003:0001d258       _gpFlsSetValue             0045f258     LIBCMT:tidtable.obj
 0003:0001d25c       _gpFlsFree                 0045f25c     LIBCMT:tidtable.obj
 0003:0001d260       ?__pInconsistency@@3P6AXXZA 0045f260     LIBCMT:hooks.obj
 0003:0001d58c       __crtheap                  0045f58c     LIBCMT:heapinit.obj
 0003:0001d590       ___pInvalidArgHandler      0045f590     LIBCMT:invarg.obj
 0003:0001d594       __stdbuf                   0045f594     LIBCMT:_sftbuf.obj
 0003:0001d5a0       ___mbulinfo                0045f5a0     LIBCMT:mbctype.obj
 0003:0001d5ac       ___mbcodepage              0045f5ac     LIBCMT:mbctype.obj
 0003:0001d5b0       ___ismbcodepage            0045f5b0     LIBCMT:mbctype.obj
 0003:0001d5b4       ___mblcid                  0045f5b4     LIBCMT:mbctype.obj
 0003:0001d70c       ___pPurecall               0045f70c     LIBCMT:inithelp.obj
 0003:0001def8       __newmode                  0045fef8     LIBCMT:_newmode.obj
 0003:0001df10       ?pArgList@UnDecorator@@0PAVReplicator@@A 0045ff10     LIBCMT:undname.obj
 0003:0001df14       ?pZNameList@UnDecorator@@0PAVReplicator@@A 0045ff14     LIBCMT:undname.obj
 0003:0001df18       ?pTemplateArgList@UnDecorator@@0PAVReplicator@@A 0045ff18     LIBCMT:undname.obj
 0003:0001df1c       ?gName@UnDecorator@@0PBDB  0045ff1c     LIBCMT:undname.obj
 0003:0001df20       ?name@UnDecorator@@0PBDB   0045ff20     LIBCMT:undname.obj
 0003:0001df24       ?outputString@UnDecorator@@0PADA 0045ff24     LIBCMT:undname.obj
 0003:0001df28       ?maxStringLength@UnDecorator@@0HA 0045ff28     LIBCMT:undname.obj
 0003:0001df2c       ?disableFlags@UnDecorator@@0KA 0045ff2c     LIBCMT:undname.obj
 0003:0001df30       ?m_pGetParameter@UnDecorator@@0P6APADJ@ZA 0045ff30     LIBCMT:undname.obj
 0003:0001df34       ?fExplicitTemplateParams@UnDecorator@@0_NA 0045ff34     LIBCMT:undname.obj
 0003:0001df35       ?fGetTemplateArgumentList@UnDecorator@@0_NA 0045ff35     LIBCMT:undname.obj
 0003:0001df38       __outputformat             0045ff38     LIBCMT:outputformat.obj
 0003:0001df3c       __commode                  0045ff3c     LIBCMT:ncommode.obj
 0003:0001df54       __fmode                    0045ff54     LIBCMT:txtmode.obj
 0003:0001df58       __debugger_hook_dummy      0045ff58     <common>
 0003:0001df5c       __nhandle                  0045ff5c     <common>
 0003:0001df60       ___pioinfo                 0045ff60     <common>
 0003:0001e060       ___sse2_available          00460060     <common>
 0003:0001e064       __acmdln                   00460064     <common>
 0003:0001e068       __NoHeapEnableTerminationOnCorruption 00460068     <common>
 0003:0001e06c       ___piob                    0046006c     <common>
 0003:0001e080       __bufin                    00460080     <common>
 0003:0001f080       __nstream                  00461080     <common>
 0003:0001f084       ___env_initialized         00461084     <common>
 0003:0001f088       ___onexitend               00461088     <common>
 0003:0001f08c       ___onexitbegin             0046108c     <common>
 0003:0001f090       ___mbctype_initialized     00461090     <common>
 0003:0001f094       ___dyn_tls_init_callback   00461094     <common>

 entry point at        0001:0001e244

 Static symbols

 0001:000008d8       __catch$?_Init@?$numpunct@D@std@@IAEXABV_Locinfo@2@_N@Z$0 004018d8 f i client.obj
 0001:00000d13       __catch$?_Copy@?$basic_string@DU?$char_traits@D@std@@V?$allocator@D@2@@std@@QAEXII@Z$0 00401d13 f i client.obj
 0001:00000d9b       __catch$?_Copy@?$basic_string@DU?$char_traits@D@std@@V?$allocator@D@2@@std@@QAEXII@Z$1 00401d9b f i client.obj
 0001:000010b3       __catch$?_Osfx@?$basic_ostream@DU?$char_traits@D@std@@@std@@QAEXXZ$0 004020b3 f i client.obj
 0001:00001b76       __catch$??$?6U?$char_traits@D@std@@@std@@YAAAV?$basic_ostream@DU?$char_traits@D@std@@@0@AAV10@PBD@Z$0 00402b76 f i client.obj
 0001:00001ea4       __catch$??6?$basic_ostream@DU?$char_traits@D@std@@@std@@QAEAAV01@G@Z$0 00402ea4 f i client.obj
 0001:00002093       __catch$??6?$basic_ostream@DU?$char_traits@D@std@@@std@@QAEAAV01@I@Z$0 00403093 f i client.obj
 0001:000021b0       __catch$?put@?$basic_ostream@DU?$char_traits@D@std@@@std@@QAEAAV12@D@Z$0 004031b0 f i client.obj
 0001:00007823       __catch$??6?$basic_ostream@DU?$char_traits@D@std@@@std@@QAEAAV01@H@Z$0 00408823 f i LWorld.obj
 0001:00014200       _flush_pending             00415200 f   zlib:deflate.obj
 0001:00014250       _read_buf                  00415250 f   zlib:deflate.obj
 0001:000142c0       _longest_match             004152c0 f   zlib:deflate.obj
 0001:00014440       _longest_match_fast        00415440 f   zlib:deflate.obj
 0001:00014510       _fill_window               00415510 f   zlib:deflate.obj
 0001:000145f0       _deflate_stored            004155f0 f   zlib:deflate.obj
 0001:00014720       _deflate_fast              00415720 f   zlib:deflate.obj
 0001:00014a40       _deflate_slow              00415a40 f   zlib:deflate.obj
 0001:00014f70       _fixedtables               00415f70 f   zlib:inflate.obj
 0001:00014f90       _updatewindow              00415f90 f   zlib:inflate.obj
 0001:00016940       _init_block                00417940 f   zlib:trees.obj
 0001:000169b0       _pqdownheap                004179b0 f   zlib:trees.obj
 0001:00016a80       _gen_bitlen                00417a80 f   zlib:trees.obj
 0001:00016ca0       _scan_tree                 00417ca0 f   zlib:trees.obj
 0001:00016d90       _send_tree                 00417d90 f   zlib:trees.obj
 0001:000172a0       _send_all_trees            004182a0 f   zlib:trees.obj
 0001:00017500       _compress_block            00418500 f   zlib:trees.obj
 0001:00017910       _set_data_type             00418910 f   zlib:trees.obj
 0001:000179e0       _bi_reverse                004189e0 f   zlib:trees.obj
 0001:00017a00       _bi_windup                 00418a00 f   zlib:trees.obj
 0001:00017a80       _copy_block                00418a80 f   zlib:trees.obj
 0001:00017b10       _gen_codes                 00418b10 f   zlib:trees.obj
 0001:00017b90       _build_tree                00418b90 f   zlib:trees.obj
 0001:00017d90       _build_bl_tree             00418d90 f   zlib:trees.obj
 0001:00018110       _crc32_little              00419110 f   zlib:crc32.obj
 0001:00018ec9       _tidy_global               00419ec9 f   libcpmt:locale0.obj
 0001:000193aa       ?swfun@std@@YAXAAVios_base@1@_J@Z 0041a3aa f   libcpmt:iomanip.obj
 0001:0001a622       __ReleaseCPLocHash         0041b622 f   libcpmt:xmbtowc.obj
 0001:0001a662       __InitCPLocHash            0041b662 f   libcpmt:xmbtowc.obj
 0001:0001ae78       ?CatchGuardHandler@@YA?AW4_EXCEPTION_DISPOSITION@@PAUEHExceptionRecord@@PAUCatchGuardRN@@PAX2@Z 0041be78 f   LIBCMT:_trnsctrl_.obj
 0001:0001af82       ?TranslatorGuardHandler@@YA?AW4_EXCEPTION_DISPOSITION@@PAUEHExceptionRecord@@PAUTranslatorGuardRN@@PAX2@Z 0041bf82 f   LIBCMT:_trnsctrl_.obj
 0001:0001c6a8       _ctrlevent_capture@4       0041d6a8 f   LIBCMT:winsig.obj
 0001:0001c744       _siglookup                 0041d744 f   LIBCMT:winsig.obj
 0001:0001cb6b       __onexit_nolock            0041db6b f   LIBCMT:onexit.obj
 0001:0001cde8       _doexit                    0041dde8 f   LIBCMT:crt0dat.obj
 0001:0001d1d8       __callthreadstart          0041e1d8 f   LIBCMT:thread.obj
 0001:0001d219       __threadstart@4            0041e219 f   LIBCMT:thread.obj
 0001:0001da5d       _flsall                    0041ea5d f   LIBCMT:fflush.obj
 0001:0001e0ba       _fast_error_exit           0041f0ba f   LIBCMT:crt0.obj
 0001:0001e0e3       ___tmainCRTStartup         0041f0e3 f   LIBCMT:crt0.obj
 0001:0001e822       __copytlocinfo_nolock      0041f822 f   LIBCMT:setlocal.obj
 0001:0001ead8       __setlocale_get_all        0041fad8 f   LIBCMT:setlocal.obj
 0001:0001ee5e       __setlocale_set_cat        0041fe5e f   LIBCMT:setlocal.obj
 0001:0001f198       __setlocale_nolock         00420198 f   LIBCMT:setlocal.obj
 0001:0001f839       ?ExFilterRethrow@@YAHPAU_EXCEPTION_POINTERS@@@Z 00420839 f   LIBCMT:frame.obj
 0001:0001f90d       ?IsInExceptionSpec@@YAEPAUEHExceptionRecord@@PBU_s_ESTypeList@@@Z 0042090d f   LIBCMT:frame.obj
 0001:0001f983       ?CallUnexpected@@YAXPBU_s_ESTypeList@@@Z 00420983 f   LIBCMT:frame.obj
 0001:0001f9b4       __catch$?CallUnexpected@@YAXPBU_s_ESTypeList@@@Z$0 004209b4 f   LIBCMT:frame.obj
 0001:0001f9cc       ?CallCatchBlock@@YAPAXPAUEHExceptionRecord@@PAUEHRegistrationNode@@PAU_CONTEXT@@PBU_s_FuncInfo@@PAXHK@Z 004209cc f   LIBCMT:frame.obj
 0001:0001fd79       ?CatchIt@@YAXPAUEHExceptionRecord@@PAUEHRegistrationNode@@PAU_CONTEXT@@PAXPBU_s_FuncInfo@@PBU_s_HandlerType@@PBU_s_CatchableType@@PBU_s_TryBlockMapEntry@@H1E@Z 00420d79 f   LIBCMT:frame.obj
 0001:0001fde7       ?FindHandlerForForeignException@@YAXPAUEHExceptionRecord@@PAUEHRegistrationNode@@PAU_CONTEXT@@PAXPBU_s_FuncInfo@@HH1@Z 00420de7 f   LIBCMT:frame.obj
 0001:0001feee       ?FindHandler@@YAXPAUEHExceptionRecord@@PAUEHRegistrationNode@@PAU_CONTEXT@@PAXPBU_s_FuncInfo@@EH1@Z 00420eee f   LIBCMT:frame.obj
 0001:00020b8f       _xtoa_s@20                 00421b8f f   LIBCMT:xtoas.obj
 0001:00020e41       ?__crtLCMapStringA_stat@@YAHPAUlocaleinfo_struct@@KKPBDHPADHHH@Z 00421e41 f   LIBCMT:a_map.obj
 0001:000223aa       _write_char                004233aa f   LIBCMT:output.obj
 0001:000223aa       _write_char                004233aa f   LIBCMT:output.obj
 0001:000223dd       _write_string              004233dd f   LIBCMT:output.obj
 0001:000223dd       _write_string              004233dd f   LIBCMT:output.obj
 0001:00023285       __shift                    00424285 f   LIBCMT:cvt.obj
 0001:000232ca       __cftoe2_l                 004242ca f   LIBCMT:cvt.obj
 0001:00023888       __cftof2_l                 00424888 f   LIBCMT:cvt.obj
 0001:00023fbf       ?strtoxl@@YAKPAUlocaleinfo_struct@@PBDPAPBDHH@Z 00424fbf f   LIBCMT:strtol.obj
 0001:00024215       ?CPtoLCID@@YAHH@Z          00425215 f   LIBCMT:mbctype.obj
 0001:00024244       ?setSBCS@@YAXPAUthreadmbcinfostruct@@@Z 00425244 f   LIBCMT:mbctype.obj
 0001:000242a8       ?setSBUpLow@@YAXPAUthreadmbcinfostruct@@@Z 004252a8 f   LIBCMT:mbctype.obj
 0001:000244dc       ?getSystemCP@@YAHH@Z       004254dc f   LIBCMT:mbctype.obj
 0001:00024e0e       ___check_float_string      00425e0e f   LIBCMT:input.obj
 0001:00024e65       __hextodec                 00425e65 f   LIBCMT:input.obj
 0001:00024e85       __inc                      00425e85 f   LIBCMT:input.obj
 0001:00024e9b       __whiteout                 00425e9b f   LIBCMT:input.obj
 0001:000264b0       __unwind_handler4          004274b0 f   LIBCMT:exsup4.obj
 0001:000275f9       __tzset_nolock             004285f9 f   LIBCMT:tzset.obj
 0001:0002790c       _cvtdate                   0042890c f   LIBCMT:tzset.obj
 0001:00027b03       __isindst_nolock           00428b03 f   LIBCMT:tzset.obj
 0001:00029ae1       _parse_cmdline             0042aae1 f   LIBCMT:stdargv.obj
 0001:00029e68       ?__crtGetStringTypeA_stat@@YAHPAUlocaleinfo_struct@@KPBDHPAGHHH@Z 0042ae68 f   LIBCMT:a_str.obj
 0001:00029f8f       __get_lc_time              0042af8f f   LIBCMT:inittime.obj
 0001:0002b35b       _TranslateName             0042c35b f   LIBCMT:getqloc.obj
 0001:0002b3bd       _ProcessCodePage           0042c3bd f   LIBCMT:getqloc.obj
 0001:0002b441       _TestDefaultCountry        0042c441 f   LIBCMT:getqloc.obj
 0001:0002b466       _LcidFromHexString         0042c466 f   LIBCMT:getqloc.obj
 0001:0002b497       _GetPrimaryLen             0042c497 f   LIBCMT:getqloc.obj
 0001:0002b4b2       _CountryEnumProc@4         0042c4b2 f   LIBCMT:getqloc.obj
 0001:0002b559       _TestDefaultLanguage       0042c559 f   LIBCMT:getqloc.obj
 0001:0002b5b4       _LangCountryEnumProc@4     0042c5b4 f   LIBCMT:getqloc.obj
 0001:0002b785       _LanguageEnumProc@4        0042c785 f   LIBCMT:getqloc.obj
 0001:0002b845       _GetLcidFromLangCountry    0042c845 f   LIBCMT:getqloc.obj
 0001:0002b8ac       _GetLcidFromLanguage       0042c8ac f   LIBCMT:getqloc.obj
 0001:0002d950       __unwind_handler           0042e950 f   LIBCMT:exsup.obj
 0001:0002e8e4       __tsopen_nolock            0042f8e4 f   LIBCMT:open.obj
 0001:0002f480       ?__crtGetLocaleInfoA_stat@@YAHPAUlocaleinfo_struct@@KKPADH@Z 00430480 f   LIBCMT:a_loc.obj
 0001:0003064e       ?x_ismbbtype_l@@YAHPAUlocaleinfo_struct@@IHH@Z 0043164e f   LIBCMT:ismbbyte.obj
 0001:00030fb1       __hw_cw                    00431fb1 f   LIBCMT:_ieee87_.obj
 0001:0003103f       ___hw_cw_sse2              0043203f f   LIBCMT:_ieee87_.obj
 0001:000318c6       ?__crtCompareStringA_stat@@YAHPAUlocaleinfo_struct@@KKPBDH1HH@Z 004328c6 f   LIBCMT:a_cmp.obj
 0001:00031c60       _findenv                   00432c60 f   LIBCMT:setenv.obj
 0001:00031cb2       _copy_environ              00432cb2 f   LIBCMT:setenv.obj
 0001:000323e0       __unwindfunclet$??0Client@@QAE@PAVEQNetworkConnection@@@Z$0 004333e0 f   client.obj
 0001:000323e0       __unwindfunclet$?ProcessNetworkLayerPacket@TCPConnection@@AAEXPAVServerPacket@@@Z$0 004333e0 f   client.obj
 0001:000323eb       __ehhandler$??0Client@@QAE@PAVEQNetworkConnection@@@Z 004333eb f   client.obj
 0001:000323eb       __ehhandler$?ProcessNetworkLayerPacket@TCPConnection@@AAEXPAVServerPacket@@@Z 004333eb f   client.obj
 0001:00032410       __ehhandler$?_Init@?$numpunct@D@std@@IAEXABV_Locinfo@2@_N@Z 00433410 f   client.obj
 0001:00032430       __unwindfunclet$??0_Locinfo@std@@QAE@PBD@Z$0 00433430 f   client.obj
 0001:00032438       __unwindfunclet$??0_Locinfo@std@@QAE@PBD@Z$1 00433438 f   client.obj
 0001:00032443       __unwindfunclet$??0_Locinfo@std@@QAE@PBD@Z$2 00433443 f   client.obj
 0001:0003244e       __unwindfunclet$??0_Locinfo@std@@QAE@PBD@Z$3 0043344e f   client.obj
 0001:00032459       __unwindfunclet$??0_Locinfo@std@@QAE@PBD@Z$4 00433459 f   client.obj
 0001:00032464       __ehhandler$??0_Locinfo@std@@QAE@PBD@Z 00433464 f   client.obj
 0001:00032480       __unwindfunclet$??1_Locinfo@std@@QAE@XZ$0 00433480 f   client.obj
 0001:00032488       __unwindfunclet$??1_Locinfo@std@@QAE@XZ$1 00433488 f   client.obj
 0001:00032493       __unwindfunclet$??1_Locinfo@std@@QAE@XZ$2 00433493 f   client.obj
 0001:0003249e       __unwindfunclet$??1_Locinfo@std@@QAE@XZ$3 0043349e f   client.obj
 0001:000324a9       __unwindfunclet$??1_Locinfo@std@@QAE@XZ$4 004334a9 f   client.obj
 0001:000324b4       __ehhandler$??1_Locinfo@std@@QAE@XZ 004334b4 f   client.obj
 0001:000324d0       __ehhandler$?_Copy@?$basic_string@DU?$char_traits@D@std@@V?$allocator@D@2@@std@@QAEXII@Z 004334d0 f   client.obj
 0001:000324f0       __unwindfunclet$?_Getcat@?$num_put@DV?$ostreambuf_iterator@DU?$char_traits@D@std@@@std@@@std@@SAIPAPBVfacet@locale@2@PBV42@@Z$0 004334f0 f   client.obj
 0001:000324fb       __ehhandler$?_Getcat@?$num_put@DV?$ostreambuf_iterator@DU?$char_traits@D@std@@@std@@@std@@SAIPAPBVfacet@locale@2@PBV42@@Z 004334fb f   client.obj
 0001:00032520       __ehhandler$?_Osfx@?$basic_ostream@DU?$char_traits@D@std@@@std@@QAEXXZ 00433520 f   client.obj
 0001:00032540       __unwindfunclet$??$use_facet@V?$num_put@DV?$ostreambuf_iterator@DU?$char_traits@D@std@@@std@@@std@@@std@@YAABV?$num_put@DV?$ostreambuf_iterator@DU?$char_traits@D@std@@@std@@@0@ABVlocale@0@@Z$0 00433540 f   client.obj
 0001:00032540       __unwindfunclet$??$use_facet@V?$numpunct@D@std@@@std@@YAABV?$numpunct@D@0@ABVlocale@0@@Z$0 00433540 f   client.obj
 0001:00032548       __ehhandler$??$use_facet@V?$num_put@DV?$ostreambuf_iterator@DU?$char_traits@D@std@@@std@@@std@@@std@@YAABV?$num_put@DV?$ostreambuf_iterator@DU?$char_traits@D@std@@@std@@@0@ABVlocale@0@@Z 00433548 f   client.obj
 0001:00032548       __ehhandler$??$use_facet@V?$numpunct@D@std@@@std@@YAABV?$numpunct@D@0@ABVlocale@0@@Z 00433548 f   client.obj
 0001:00032570       __unwindfunclet$?_Getcat@?$numpunct@D@std@@SAIPAPBVfacet@locale@2@PBV42@@Z$0 00433570 f   client.obj
 0001:0003257b       __unwindfunclet$?_Getcat@?$numpunct@D@std@@SAIPAPBVfacet@locale@2@PBV42@@Z$1 0043357b f   client.obj
 0001:00032594       __unwindfunclet$?_Getcat@?$numpunct@D@std@@SAIPAPBVfacet@locale@2@PBV42@@Z$2 00433594 f   client.obj
 0001:0003259c       __ehhandler$?_Getcat@?$numpunct@D@std@@SAIPAPBVfacet@locale@2@PBV42@@Z 0043359c f   client.obj
 0001:000325c0       __unwindfunclet$??1sentry@?$basic_ostream@DU?$char_traits@D@std@@@std@@QAE@XZ$0 004335c0 f   client.obj
 0001:000325c8       __ehhandler$??1sentry@?$basic_ostream@DU?$char_traits@D@std@@@std@@QAE@XZ 004335c8 f   client.obj
 0001:000325f0       __unwindfunclet$??$?6U?$char_traits@D@std@@@std@@YAAAV?$basic_ostream@DU?$char_traits@D@std@@@0@AAV10@PBD@Z$3 004335f0 f   client.obj
 0001:000325f8       __unwindfunclet$??$?6U?$char_traits@D@std@@@std@@YAAAV?$basic_ostream@DU?$char_traits@D@std@@@0@AAV10@PBD@Z$2 004335f8 f   client.obj
 0001:00032600       __unwindfunclet$??$?6U?$char_traits@D@std@@@std@@YAAAV?$basic_ostream@DU?$char_traits@D@std@@@0@AAV10@PBD@Z$13 00433600 f   client.obj
 0001:00032608       __ehhandler$??$?6U?$char_traits@D@std@@@std@@YAAAV?$basic_ostream@DU?$char_traits@D@std@@@0@AAV10@PBD@Z 00433608 f   client.obj
 0001:00032630       __unwindfunclet$??6?$basic_ostream@DU?$char_traits@D@std@@@std@@QAEAAV01@G@Z$4 00433630 f   client.obj
 0001:00032638       __unwindfunclet$??6?$basic_ostream@DU?$char_traits@D@std@@@std@@QAEAAV01@G@Z$2 00433638 f   client.obj
 0001:00032640       __unwindfunclet$??6?$basic_ostream@DU?$char_traits@D@std@@@std@@QAEAAV01@G@Z$3 00433640 f   client.obj
 0001:00032648       __unwindfunclet$??6?$basic_ostream@DU?$char_traits@D@std@@@std@@QAEAAV01@G@Z$15 00433648 f   client.obj
 0001:00032650       __ehhandler$??6?$basic_ostream@DU?$char_traits@D@std@@@std@@QAEAAV01@G@Z 00433650 f   client.obj
 0001:00032670       __unwindfunclet$??6?$basic_ostream@DU?$char_traits@D@std@@@std@@QAEAAV01@I@Z$4 00433670 f   client.obj
 0001:00032678       __unwindfunclet$??6?$basic_ostream@DU?$char_traits@D@std@@@std@@QAEAAV01@I@Z$2 00433678 f   client.obj
 0001:00032680       __unwindfunclet$??6?$basic_ostream@DU?$char_traits@D@std@@@std@@QAEAAV01@I@Z$3 00433680 f   client.obj
 0001:00032688       __unwindfunclet$??6?$basic_ostream@DU?$char_traits@D@std@@@std@@QAEAAV01@I@Z$15 00433688 f   client.obj
 0001:00032690       __ehhandler$??6?$basic_ostream@DU?$char_traits@D@std@@@std@@QAEAAV01@I@Z 00433690 f   client.obj
 0001:000326b0       __unwindfunclet$?put@?$basic_ostream@DU?$char_traits@D@std@@@std@@QAEAAV12@D@Z$3 004336b0 f   client.obj
 0001:000326b8       __unwindfunclet$?put@?$basic_ostream@DU?$char_traits@D@std@@@std@@QAEAAV12@D@Z$2 004336b8 f   client.obj
 0001:000326c0       __unwindfunclet$?put@?$basic_ostream@DU?$char_traits@D@std@@@std@@QAEAAV12@D@Z$13 004336c0 f   client.obj
 0001:000326c8       __ehhandler$?put@?$basic_ostream@DU?$char_traits@D@std@@@std@@QAEAAV12@D@Z 004336c8 f   client.obj
 0001:000326f0       __unwindfunclet$?_Fput@?$num_put@DV?$ostreambuf_iterator@DU?$char_traits@D@std@@@std@@@std@@ABA?AV?$ostreambuf_iterator@DU?$char_traits@D@std@@@2@V32@AAVios_base@2@DPBDIIII@Z$0 004336f0 f   client.obj
 0001:000326f8       __unwindfunclet$?_Fput@?$num_put@DV?$ostreambuf_iterator@DU?$char_traits@D@std@@@std@@@std@@ABA?AV?$ostreambuf_iterator@DU?$char_traits@D@std@@@2@V32@AAVios_base@2@DPBDIIII@Z$1 004336f8 f   client.obj
 0001:00032700       __unwindfunclet$?_Fput@?$num_put@DV?$ostreambuf_iterator@DU?$char_traits@D@std@@@std@@@std@@ABA?AV?$ostreambuf_iterator@DU?$char_traits@D@std@@@2@V32@AAVios_base@2@DPBDIIII@Z$2 00433700 f   client.obj
 0001:00032708       __ehhandler$?_Fput@?$num_put@DV?$ostreambuf_iterator@DU?$char_traits@D@std@@@std@@@std@@ABA?AV?$ostreambuf_iterator@DU?$char_traits@D@std@@@2@V32@AAVios_base@2@DPBDIIII@Z 00433708 f   client.obj
 0001:00032730       __unwindfunclet$?_Iput@?$num_put@DV?$ostreambuf_iterator@DU?$char_traits@D@std@@@std@@@std@@ABA?AV?$ostreambuf_iterator@DU?$char_traits@D@std@@@2@V32@AAVios_base@2@DPADI@Z$0 00433730 f   client.obj
 0001:00032738       __unwindfunclet$?_Iput@?$num_put@DV?$ostreambuf_iterator@DU?$char_traits@D@std@@@std@@@std@@ABA?AV?$ostreambuf_iterator@DU?$char_traits@D@std@@@2@V32@AAVios_base@2@DPADI@Z$1 00433738 f   client.obj
 0001:00032740       __ehhandler$?_Iput@?$num_put@DV?$ostreambuf_iterator@DU?$char_traits@D@std@@@std@@@std@@ABA?AV?$ostreambuf_iterator@DU?$char_traits@D@std@@@2@V32@AAVios_base@2@DPADI@Z 00433740 f   client.obj
 0001:00032770       __unwindfunclet$?FatalError@Client@@QAEXPBD_N@Z$0 00433770 f   client.obj
 0001:00032770       __unwindfunclet$?SendData@TCPConnection@@AAE_NPAD@Z$0 00433770 f   client.obj
 0001:0003277b       __ehhandler$?SendData@TCPConnection@@AAE_NPAD@Z 0043377b f   client.obj
 0001:0003277b       __ehhandler$?FatalError@Client@@QAEXPBD_N@Z 0043377b f   client.obj
 0001:000327a0       __unwindfunclet$?WorldResponse@Client@@QAEXIC@Z$0 004337a0 f   client.obj
 0001:000327ae       __unwindfunclet$?WorldResponse@Client@@QAEXIC@Z$1 004337ae f   client.obj
 0001:000327bc       __ehhandler$?WorldResponse@Client@@QAEXIC@Z 004337bc f   client.obj
 0001:000327f0       __unwindfunclet$?do_put@?$num_put@DV?$ostreambuf_iterator@DU?$char_traits@D@std@@@std@@@std@@MBE?AV?$ostreambuf_iterator@DU?$char_traits@D@std@@@2@V32@AAVios_base@2@D_N@Z$0 004337f0 f   client.obj
 0001:000327f8       __unwindfunclet$?do_put@?$num_put@DV?$ostreambuf_iterator@DU?$char_traits@D@std@@@std@@@std@@MBE?AV?$ostreambuf_iterator@DU?$char_traits@D@std@@@2@V32@AAVios_base@2@D_N@Z$1 004337f8 f   client.obj
 0001:00032800       __unwindfunclet$?do_put@?$num_put@DV?$ostreambuf_iterator@DU?$char_traits@D@std@@@std@@@std@@MBE?AV?$ostreambuf_iterator@DU?$char_traits@D@std@@@2@V32@AAVios_base@2@D_N@Z$2 00433800 f   client.obj
 0001:00032808       __unwindfunclet$?do_put@?$num_put@DV?$ostreambuf_iterator@DU?$char_traits@D@std@@@std@@@std@@MBE?AV?$ostreambuf_iterator@DU?$char_traits@D@std@@@2@V32@AAVios_base@2@D_N@Z$3 00433808 f   client.obj
 0001:00032810       __ehhandler$?do_put@?$num_put@DV?$ostreambuf_iterator@DU?$char_traits@D@std@@@std@@@std@@MBE?AV?$ostreambuf_iterator@DU?$char_traits@D@std@@@2@V32@AAVios_base@2@D_N@Z 00433810 f   client.obj
 0001:00032840       __unwindfunclet$?Process@Client@@QAE_NXZ$11 00433840 f   client.obj
 0001:0003284e       __unwindfunclet$?Process@Client@@QAE_NXZ$7 0043384e f   client.obj
 0001:0003285c       __unwindfunclet$?Process@Client@@QAE_NXZ$4 0043385c f   client.obj
 0001:0003286a       __unwindfunclet$?Process@Client@@QAE_NXZ$5 0043386a f   client.obj
 0001:00032878       __unwindfunclet$?Process@Client@@QAE_NXZ$6 00433878 f   client.obj
 0001:00032886       __unwindfunclet$?Process@Client@@QAE_NXZ$1 00433886 f   client.obj
 0001:00032894       __unwindfunclet$?Process@Client@@QAE_NXZ$9 00433894 f   client.obj
 0001:000328a2       __unwindfunclet$?Process@Client@@QAE_NXZ$2 004338a2 f   client.obj
 0001:000328b0       __unwindfunclet$?Process@Client@@QAE_NXZ$0 004338b0 f   client.obj
 0001:000328be       __unwindfunclet$?Process@Client@@QAE_NXZ$3 004338be f   client.obj
 0001:000328cc       __unwindfunclet$?Process@Client@@QAE_NXZ$8 004338cc f   client.obj
 0001:000328da       __ehhandler$?Process@Client@@QAE_NXZ 004338da f   client.obj
 0001:00032910       __unwindfunclet$?CheckEQLogin@Database@@QAEIPBVAPPLAYER@@PADPAEPAHPA_NPAFI@Z$0 00433910 f   logindatabase.obj
 0001:00032918       __unwindfunclet$?CheckEQLogin@Database@@QAEIPBVAPPLAYER@@PADPAEPAHPA_NPAFI@Z$1 00433918 f   logindatabase.obj
 0001:00032923       __ehhandler$?CheckEQLogin@Database@@QAEIPBVAPPLAYER@@PADPAEPAHPA_NPAFI@Z 00433923 f   logindatabase.obj
 0001:00032950       __unwindfunclet$??0LWorld@@QAE@PAVTCPConnection@@_NIG1@Z$0 00433950 f   LWorld.obj
 0001:0003295b       __ehhandler$??0LWorld@@QAE@PAVTCPConnection@@_NIG1@Z 0043395b f   LWorld.obj
 0001:00032980       __unwindfunclet$?Message@LWorld@@QAAXPAD0ZZ$0 00433980 f   LWorld.obj
 0001:0003298e       __ehhandler$?Message@LWorld@@QAAXPAD0ZZ 0043398e f   LWorld.obj
 0001:000329c0       __unwindfunclet$?Kick@LWorld@@QAEXPAD_N@Z$0 004339c0 f   LWorld.obj
 0001:000329cb       __ehhandler$?Kick@LWorld@@QAEXPAD_N@Z 004339cb f   LWorld.obj
 0001:000329f0       __unwindfunclet$??0LWorldList@@QAE@XZ$0 004339f0 f   LWorld.obj
 0001:000329fb       __unwindfunclet$??0LWorldList@@QAE@XZ$1 004339fb f   LWorld.obj
 0001:00032a06       __unwindfunclet$??0LWorldList@@QAE@XZ$2 00433a06 f   LWorld.obj
 0001:00032a11       __unwindfunclet$??0LWorldList@@QAE@XZ$3 00433a11 f   LWorld.obj
 0001:00032a1c       __ehhandler$??0LWorldList@@QAE@XZ 00433a1c f   LWorld.obj
 0001:00032a40       __unwindfunclet$??1LWorldList@@QAE@XZ$0 00433a40 f   LWorld.obj
 0001:00032a4b       __unwindfunclet$??1LWorldList@@QAE@XZ$1 00433a4b f   LWorld.obj
 0001:00032a56       __ehhandler$??1LWorldList@@QAE@XZ 00433a56 f   LWorld.obj
 0001:00032a80       __unwindfunclet$??6?$basic_ostream@DU?$char_traits@D@std@@@std@@QAEAAV01@H@Z$4 00433a80 f   LWorld.obj
 0001:00032a88       __unwindfunclet$??6?$basic_ostream@DU?$char_traits@D@std@@@std@@QAEAAV01@H@Z$2 00433a88 f   LWorld.obj
 0001:00032a90       __unwindfunclet$??6?$basic_ostream@DU?$char_traits@D@std@@@std@@QAEAAV01@H@Z$3 00433a90 f   LWorld.obj
 0001:00032a98       __unwindfunclet$??6?$basic_ostream@DU?$char_traits@D@std@@@std@@QAEAAV01@H@Z$15 00433a98 f   LWorld.obj
 0001:00032aa0       __ehhandler$??6?$basic_ostream@DU?$char_traits@D@std@@@std@@QAEAAV01@H@Z 00433aa0 f   LWorld.obj
 0001:00032ac0       __unwindfunclet$?ConnectUplink@LWorldList@@QAEXXZ$0 00433ac0 f   LWorld.obj
 0001:00032ace       __unwindfunclet$?ConnectUplink@LWorldList@@QAEXXZ$1 00433ace f   LWorld.obj
 0001:00032adc       __ehhandler$?ConnectUplink@LWorldList@@QAEXXZ 00433adc f   LWorld.obj
 0001:00032b10       __unwindfunclet$?AddPeer@LWorldList@@QAEXIG_N@Z$0 00433b10 f   LWorld.obj
 0001:00032b1b       __unwindfunclet$?AddPeer@LWorldList@@QAEXIG_N@Z$1 00433b1b f   LWorld.obj
 0001:00032b26       __ehhandler$?AddPeer@LWorldList@@QAEXIG_N@Z 00433b26 f   LWorld.obj
 0001:00032b50       __unwindfunclet$?Process@LWorld@@QAE_NXZ$0 00433b50 f   LWorld.obj
 0001:00032b5b       __unwindfunclet$?Process@LWorld@@QAE_NXZ$1 00433b5b f   LWorld.obj
 0001:00032b66       __unwindfunclet$?Process@LWorld@@QAE_NXZ$2 00433b66 f   LWorld.obj
 0001:00032b71       __unwindfunclet$?Process@LWorld@@QAE_NXZ$4 00433b71 f   LWorld.obj
 0001:00032b7c       __unwindfunclet$?Process@LWorld@@QAE_NXZ$5 00433b7c f   LWorld.obj
 0001:00032b87       __ehhandler$?Process@LWorld@@QAE_NXZ 00433b87 f   LWorld.obj
 0001:00032bb0       __unwindfunclet$?Process@LWorldList@@QAEXXZ$0 00433bb0 f   LWorld.obj
 0001:00032bbb       __ehhandler$?Process@LWorldList@@QAEXXZ 00433bbb f   LWorld.obj
 0001:00032be0       __unwindfunclet$_main$0    00433be0 f   net.obj
 0001:00032beb       __ehhandler$_main          00433beb f   net.obj
 0001:00032c10       __unwindfunclet$??1Database@@QAE@XZ$0 00433c10 f   database.obj
 0001:00032c18       __ehhandler$??1Database@@QAE@XZ 00433c18 f   database.obj
 0001:00032c40       __unwindfunclet$??0Database@@QAE@XZ$0 00433c40 f   database.obj
 0001:00032c4b       __unwindfunclet$??0Database@@QAE@XZ$1 00433c4b f   database.obj
 0001:00032c5c       __ehhandler$??0Database@@QAE@XZ 00433c5c f   database.obj
 0001:00032c90       __unwindfunclet$?LoadVariables@Database@@QAE_NXZ$0 00433c90 f   database.obj
 0001:00032c9b       __ehhandler$?LoadVariables@Database@@QAE_NXZ 00433c9b f   database.obj
 0001:00032cd0       __unwindfunclet$?Open@DBcore@@IAE_NPBD000PAIPAD_N3@Z$0 00433cd0 f   dbcore.obj
 0001:00032cd0       __unwindfunclet$?LoadVariables_result@Database@@QAE_NPAUst_mysql_res@@@Z$0 00433cd0 f   dbcore.obj
 0001:00032cd0       __unwindfunclet$?Open@DBcore@@AAE_NPAIPAD@Z$0 00433cd0 f   dbcore.obj
 0001:00032cd0       __unwindfunclet$?GetVariable@Database@@QAE_NPBDPADG@Z$0 00433cd0 f   dbcore.obj
 0001:00032cd0       __unwindfunclet$?RunQuery@DBcore@@QAE_NPBDIPADPAPAUst_mysql_res@@PAI33_N@Z$0 00433cd0 f   dbcore.obj
 0001:00032cd0       __unwindfunclet$?SendPacket@TCPConnection@@UAE_NPBVServerPacket@@I@Z$0 00433cd0 f   dbcore.obj
 0001:00032cd0       __unwindfunclet$?SendPacket@TCPConnection@@UAE_NPBUTCPNetPacket_Struct@1@@Z$0 00433cd0 f   dbcore.obj
 0001:00032cd8       __ehhandler$?RunQuery@DBcore@@QAE_NPBDIPADPAPAUst_mysql_res@@PAI33_N@Z 00433cd8 f   dbcore.obj
 0001:00032cd8       __ehhandler$?LoadVariables_result@Database@@QAE_NPAUst_mysql_res@@@Z 00433cd8 f   dbcore.obj
 0001:00032cd8       __ehhandler$?Open@DBcore@@AAE_NPAIPAD@Z 00433cd8 f   dbcore.obj
 0001:00032cd8       __ehhandler$?SendPacket@TCPConnection@@UAE_NPBUTCPNetPacket_Struct@1@@Z 00433cd8 f   dbcore.obj
 0001:00032cd8       __ehhandler$?SendPacket@TCPConnection@@UAE_NPBVServerPacket@@I@Z 00433cd8 f   dbcore.obj
 0001:00032cd8       __ehhandler$?GetVariable@Database@@QAE_NPBDPADG@Z 00433cd8 f   dbcore.obj
 0001:00032cd8       __ehhandler$?Open@DBcore@@IAE_NPBD000PAIPAD_N3@Z 00433cd8 f   dbcore.obj
 0001:00032d00       __unwindfunclet$??0EQEMuLog@@QAE@XZ$0 00433d00 f   debug.obj
 0001:00032d0b       __unwindfunclet$??0EQEMuLog@@QAE@XZ$1 00433d0b f   debug.obj
 0001:00032d16       __ehhandler$??0EQEMuLog@@QAE@XZ 00433d16 f   debug.obj
 0001:00032d40       __unwindfunclet$?open@EQEMuLog@@AAE_NW4LogIDs@1@@Z$0 00433d40 f   debug.obj
 0001:00032d4b       __ehhandler$?open@EQEMuLog@@AAE_NW4LogIDs@1@@Z 00433d4b f   debug.obj
 0001:00032d80       __unwindfunclet$??__ELogFile@@YAXXZ$0 00433d80 f   debug.obj
 0001:00032d8b       __ehhandler$??__ELogFile@@YAXXZ 00433d8b f   debug.obj
 0001:00032db0       __unwindfunclet$?UpdateWorldList@LWorld@@QAEXPAV1@@Z$0 00433db0 f   EQNetwork.obj
 0001:00032db0       __unwindfunclet$?SendPacket@LWorld@@QAEXPAVServerPacket@@@Z$0 00433db0 f   EQNetwork.obj
 0001:00032db0       __unwindfunclet$??1LWorld@@QAE@XZ$0 00433db0 f   EQNetwork.obj
 0001:00032db0       __unwindfunclet$?Copy@APPLAYER@@QBEPAV1@XZ$0 00433db0 f   EQNetwork.obj
 0001:00032dbb       __ehhandler$??1LWorld@@QAE@XZ 00433dbb f   EQNetwork.obj
 0001:00032dbb       __ehhandler$?SendPacket@LWorld@@QAEXPAVServerPacket@@@Z 00433dbb f   EQNetwork.obj
 0001:00032dbb       __ehhandler$?Copy@APPLAYER@@QBEPAV1@XZ 00433dbb f   EQNetwork.obj
 0001:00032dbb       __ehhandler$?UpdateWorldList@LWorld@@QAEXPAV1@@Z 00433dbb f   EQNetwork.obj
 0001:00032de0       __unwindfunclet$??0EQNetworkFragmentGroup@@QAE@GG@Z$0 00433de0 f   EQNetwork.obj
 0001:00032deb       __ehhandler$??0EQNetworkFragmentGroup@@QAE@GG@Z 00433deb f   EQNetwork.obj
 0001:00032e10       __unwindfunclet$??0EQNetworkServer@@QAE@G@Z$0 00433e10 f   EQNetwork.obj
 0001:00032e1e       __unwindfunclet$??0EQNetworkServer@@QAE@G@Z$1 00433e1e f   EQNetwork.obj
 0001:00032e2c       __unwindfunclet$??0EQNetworkServer@@QAE@G@Z$2 00433e2c f   EQNetwork.obj
 0001:00032e3a       __unwindfunclet$??0EQNetworkServer@@QAE@G@Z$3 00433e3a f   EQNetwork.obj
 0001:00032e48       __ehhandler$??0EQNetworkServer@@QAE@G@Z 00433e48 f   EQNetwork.obj
 0001:00032e70       __unwindfunclet$??1EQNetworkServer@@UAE@XZ$0 00433e70 f   EQNetwork.obj
 0001:00032e7b       __unwindfunclet$??1EQNetworkServer@@UAE@XZ$1 00433e7b f   EQNetwork.obj
 0001:00032e86       __unwindfunclet$??1EQNetworkServer@@UAE@XZ$2 00433e86 f   EQNetwork.obj
 0001:00032e91       __unwindfunclet$??1EQNetworkServer@@UAE@XZ$3 00433e91 f   EQNetwork.obj
 0001:00032e9c       __ehhandler$??1EQNetworkServer@@UAE@XZ 00433e9c f   EQNetwork.obj
 0001:00032ec0       __unwindfunclet$??0EQNetworkConnection@@QAE@IG@Z$0 00433ec0 f   EQNetwork.obj
 0001:00032ecb       __unwindfunclet$??0EQNetworkConnection@@QAE@IG@Z$1 00433ecb f   EQNetwork.obj
 0001:00032ed6       __unwindfunclet$??0EQNetworkConnection@@QAE@IG@Z$14 00433ed6 f   EQNetwork.obj
 0001:00032ee1       __unwindfunclet$??0EQNetworkConnection@@QAE@IG@Z$15 00433ee1 f   EQNetwork.obj
 0001:00032eec       __unwindfunclet$??0EQNetworkConnection@@QAE@IG@Z$2 00433eec f   EQNetwork.obj
 0001:00032ef7       __unwindfunclet$??0EQNetworkConnection@@QAE@IG@Z$3 00433ef7 f   EQNetwork.obj
 0001:00032f02       __unwindfunclet$??0EQNetworkConnection@@QAE@IG@Z$4 00433f02 f   EQNetwork.obj
 0001:00032f0d       __unwindfunclet$??0EQNetworkConnection@@QAE@IG@Z$5 00433f0d f   EQNetwork.obj
 0001:00032f1b       __unwindfunclet$??0EQNetworkConnection@@QAE@IG@Z$6 00433f1b f   EQNetwork.obj
 0001:00032f29       __unwindfunclet$??0EQNetworkConnection@@QAE@IG@Z$7 00433f29 f   EQNetwork.obj
 0001:00032f37       __unwindfunclet$??0EQNetworkConnection@@QAE@IG@Z$8 00433f37 f   EQNetwork.obj
 0001:00032f45       __unwindfunclet$??0EQNetworkConnection@@QAE@IG@Z$9 00433f45 f   EQNetwork.obj
 0001:00032f53       __unwindfunclet$??0EQNetworkConnection@@QAE@IG@Z$10 00433f53 f   EQNetwork.obj
 0001:00032f5e       __unwindfunclet$??0EQNetworkConnection@@QAE@IG@Z$11 00433f5e f   EQNetwork.obj
 0001:00032f69       __unwindfunclet$??0EQNetworkConnection@@QAE@IG@Z$12 00433f69 f   EQNetwork.obj
 0001:00032f74       __unwindfunclet$??0EQNetworkConnection@@QAE@IG@Z$13 00433f74 f   EQNetwork.obj
 0001:00032f7f       __ehhandler$??0EQNetworkConnection@@QAE@IG@Z 00433f7f f   EQNetwork.obj
 0001:00032fa0       __unwindfunclet$?GotPacket@EQNetworkFragmentGroupList@@QAEPAVEQNetworkFragmentGroup@@PAVEQNetworkPacket@@@Z$0 00433fa0 f   EQNetwork.obj
 0001:00032fab       __ehhandler$?GotPacket@EQNetworkFragmentGroupList@@QAEPAVEQNetworkFragmentGroup@@PAVEQNetworkPacket@@@Z 00433fab f   EQNetwork.obj
 0001:00032fd0       __unwindfunclet$?Process@EQNetworkConnection@@IAEXI@Z$0 00433fd0 f   EQNetwork.obj
 0001:00032fd8       __ehhandler$?Process@EQNetworkConnection@@IAEXI@Z 00433fd8 f   EQNetwork.obj
 0001:00033000       __unwindfunclet$?CloseSock@EQNetworkConnection@@QAEXXZ$0 00434000 f   EQNetwork.obj
 0001:00033008       __ehhandler$?CloseSock@EQNetworkConnection@@QAEXXZ 00434008 f   EQNetwork.obj
 0001:00033030       __unwindfunclet$??1EQNetworkConnection@@UAE@XZ$0 00434030 f   EQNetwork.obj
 0001:0003303b       __unwindfunclet$??1EQNetworkConnection@@UAE@XZ$1 0043403b f   EQNetwork.obj
 0001:00033046       __unwindfunclet$??1EQNetworkConnection@@UAE@XZ$2 00434046 f   EQNetwork.obj
 0001:00033051       __unwindfunclet$??1EQNetworkConnection@@UAE@XZ$3 00434051 f   EQNetwork.obj
 0001:0003305c       __unwindfunclet$??1EQNetworkConnection@@UAE@XZ$4 0043405c f   EQNetwork.obj
 0001:00033067       __unwindfunclet$??1EQNetworkConnection@@UAE@XZ$5 00434067 f   EQNetwork.obj
 0001:00033075       __unwindfunclet$??1EQNetworkConnection@@UAE@XZ$6 00434075 f   EQNetwork.obj
 0001:00033083       __unwindfunclet$??1EQNetworkConnection@@UAE@XZ$7 00434083 f   EQNetwork.obj
 0001:00033091       __unwindfunclet$??1EQNetworkConnection@@UAE@XZ$8 00434091 f   EQNetwork.obj
 0001:0003309f       __unwindfunclet$??1EQNetworkConnection@@UAE@XZ$9 0043409f f   EQNetwork.obj
 0001:000330ad       __ehhandler$??1EQNetworkConnection@@UAE@XZ 004340ad f   EQNetwork.obj
 0001:000330d0       __unwindfunclet$?ProcessPacket@EQNetworkConnection@@AAE_NPAVEQNetworkPacket@@_N@Z$0 004340d0 f   EQNetwork.obj
 0001:000330d0       __unwindfunclet$?RecvData@EQNetworkConnection@@QAEXPAEI@Z$1 004340d0 f   EQNetwork.obj
 0001:000330db       __unwindfunclet$?ProcessPacket@EQNetworkConnection@@AAE_NPAVEQNetworkPacket@@_N@Z$1 004340db f   EQNetwork.obj
 0001:000330db       __unwindfunclet$?RecvData@EQNetworkConnection@@QAEXPAEI@Z$2 004340db f   EQNetwork.obj
 0001:000330e6       __ehhandler$?ProcessPacket@EQNetworkConnection@@AAE_NPAVEQNetworkPacket@@_N@Z 004340e6 f   EQNetwork.obj
 0001:000330e6       __ehhandler$?RecvData@EQNetworkConnection@@QAEXPAEI@Z 004340e6 f   EQNetwork.obj
 0001:00033110       __unwindfunclet$?RecvData@EQNetworkServer@@AAEXPAEIIG@Z$0 00434110 f   EQNetwork.obj
 0001:00033110       __unwindfunclet$?SendPacket@LWorldList@@QAEXPAVServerPacket@@PAVLWorld@@@Z$0 00434110 f   EQNetwork.obj
 0001:0003311b       __ehhandler$?SendPacket@LWorldList@@QAEXPAVServerPacket@@PAVLWorld@@@Z 0043411b f   EQNetwork.obj
 0001:0003311b       __ehhandler$?RecvData@EQNetworkServer@@AAEXPAEIIG@Z 0043411b f   EQNetwork.obj
 0001:00033140       __unwindfunclet$?Open@EQNetworkServer@@QAE_NG@Z$0 00434140 f   EQNetwork.obj
 0001:00033148       __ehhandler$?Open@EQNetworkServer@@QAE_NG@Z 00434148 f   EQNetwork.obj
 0001:00033170       __unwindfunclet$?SendNetErrorPacket@TCPConnection@@AAEXPBD@Z$0 00434170 f   TCPConnection.obj
 0001:0003317b       __ehhandler$?SendNetErrorPacket@TCPConnection@@AAEXPBD@Z 0043417b f   TCPConnection.obj
 0001:000331a0       __unwindfunclet$?RemoveRelay@TCPConnection@@IAEXPAV1@_N@Z$0 004341a0 f   TCPConnection.obj
 0001:000331ab       __ehhandler$?RemoveRelay@TCPConnection@@IAEXPAV1@_N@Z 004341ab f   TCPConnection.obj
 0001:000331d0       __unwindfunclet$?Open@TCPServer@@QAE_NGPAD@Z$0 004341d0 f   TCPConnection.obj
 0001:000331d8       __ehhandler$?Open@TCPServer@@QAE_NGPAD@Z 004341d8 f   TCPConnection.obj
 0001:00033200       __unwindfunclet$?ClearBuffers@TCPConnection@@AAEXXZ$0 00434200 f   TCPConnection.obj
 0001:00033208       __unwindfunclet$?ClearBuffers@TCPConnection@@AAEXXZ$1 00434208 f   TCPConnection.obj
 0001:00033210       __unwindfunclet$?ClearBuffers@TCPConnection@@AAEXXZ$2 00434210 f   TCPConnection.obj
 0001:00033218       __unwindfunclet$?ClearBuffers@TCPConnection@@AAEXXZ$3 00434218 f   TCPConnection.obj
 0001:00033220       __ehhandler$?ClearBuffers@TCPConnection@@AAEXXZ 00434220 f   TCPConnection.obj
 0001:00033240       __unwindfunclet$??0TCPConnection@@QAE@_NPAVTCPServer@@W4eTCPMode@@@Z$0 00434240 f   TCPConnection.obj
 0001:0003324b       __unwindfunclet$??0TCPConnection@@QAE@_NPAVTCPServer@@W4eTCPMode@@@Z$1 0043424b f   TCPConnection.obj
 0001:00033256       __unwindfunclet$??0TCPConnection@@QAE@_NPAVTCPServer@@W4eTCPMode@@@Z$2 00434256 f   TCPConnection.obj
 0001:00033261       __unwindfunclet$??0TCPConnection@@QAE@_NPAVTCPServer@@W4eTCPMode@@@Z$3 00434261 f   TCPConnection.obj
 0001:0003326f       __unwindfunclet$??0TCPConnection@@QAE@_NPAVTCPServer@@W4eTCPMode@@@Z$4 0043426f f   TCPConnection.obj
 0001:0003327d       __unwindfunclet$??0TCPConnection@@QAE@_NPAVTCPServer@@W4eTCPMode@@@Z$5 0043427d f   TCPConnection.obj
 0001:0003328b       __unwindfunclet$??0TCPConnection@@QAE@_NPAVTCPServer@@W4eTCPMode@@@Z$6 0043428b f   TCPConnection.obj
 0001:00033299       __unwindfunclet$??0TCPConnection@@QAE@_NPAVTCPServer@@W4eTCPMode@@@Z$7 00434299 f   TCPConnection.obj
 0001:000332a7       __unwindfunclet$??0TCPConnection@@QAE@_NPAVTCPServer@@W4eTCPMode@@@Z$8 004342a7 f   TCPConnection.obj
 0001:000332b5       __unwindfunclet$??0TCPConnection@@QAE@_NPAVTCPServer@@W4eTCPMode@@@Z$9 004342b5 f   TCPConnection.obj
 0001:000332c3       __unwindfunclet$??0TCPConnection@@QAE@_NPAVTCPServer@@W4eTCPMode@@@Z$10 004342c3 f   TCPConnection.obj
 0001:000332ce       __unwindfunclet$??0TCPConnection@@QAE@_NPAVTCPServer@@W4eTCPMode@@@Z$11 004342ce f   TCPConnection.obj
 0001:000332d9       __ehhandler$??0TCPConnection@@QAE@_NPAVTCPServer@@W4eTCPMode@@@Z 004342d9 f   TCPConnection.obj
 0001:00033300       __unwindfunclet$??0TCPConnection@@QAE@PAVTCPServer@@IIG_N@Z$0 00434300 f   TCPConnection.obj
 0001:0003330b       __unwindfunclet$??0TCPConnection@@QAE@PAVTCPServer@@IIG_N@Z$1 0043430b f   TCPConnection.obj
 0001:00033316       __unwindfunclet$??0TCPConnection@@QAE@PAVTCPServer@@IIG_N@Z$2 00434316 f   TCPConnection.obj
 0001:00033321       __unwindfunclet$??0TCPConnection@@QAE@PAVTCPServer@@IIG_N@Z$3 00434321 f   TCPConnection.obj
 0001:0003332f       __unwindfunclet$??0TCPConnection@@QAE@PAVTCPServer@@IIG_N@Z$4 0043432f f   TCPConnection.obj
 0001:0003333d       __unwindfunclet$??0TCPConnection@@QAE@PAVTCPServer@@IIG_N@Z$5 0043433d f   TCPConnection.obj
 0001:0003334b       __unwindfunclet$??0TCPConnection@@QAE@PAVTCPServer@@IIG_N@Z$6 0043434b f   TCPConnection.obj
 0001:00033359       __unwindfunclet$??0TCPConnection@@QAE@PAVTCPServer@@IIG_N@Z$7 00434359 f   TCPConnection.obj
 0001:00033367       __unwindfunclet$??0TCPConnection@@QAE@PAVTCPServer@@IIG_N@Z$8 00434367 f   TCPConnection.obj
 0001:00033375       __unwindfunclet$??0TCPConnection@@QAE@PAVTCPServer@@IIG_N@Z$9 00434375 f   TCPConnection.obj
 0001:00033383       __unwindfunclet$??0TCPConnection@@QAE@PAVTCPServer@@IIG_N@Z$10 00434383 f   TCPConnection.obj
 0001:0003338e       __unwindfunclet$??0TCPConnection@@QAE@PAVTCPServer@@IIG_N@Z$11 0043438e f   TCPConnection.obj
 0001:00033399       __ehhandler$??0TCPConnection@@QAE@PAVTCPServer@@IIG_N@Z 00434399 f   TCPConnection.obj
 0001:000333c0       __unwindfunclet$?ProcessReceivedDataAsOldPackets@TCPConnection@@AAE_NPAD@Z$0 004343c0 f   TCPConnection.obj
 0001:000333cb       __ehhandler$?ProcessReceivedDataAsOldPackets@TCPConnection@@AAE_NPAD@Z 004343cb f   TCPConnection.obj
 0001:000333f0       __unwindfunclet$??1TCPServer@@UAE@XZ$0 004343f0 f   TCPConnection.obj
 0001:000333fb       __unwindfunclet$??1TCPServer@@UAE@XZ$1 004343fb f   TCPConnection.obj
 0001:00033406       __unwindfunclet$??1TCPServer@@UAE@XZ$2 00434406 f   TCPConnection.obj
 0001:00033411       __unwindfunclet$??1TCPServer@@UAE@XZ$3 00434411 f   TCPConnection.obj
 0001:0003341c       __unwindfunclet$??1TCPServer@@UAE@XZ$4 0043441c f   TCPConnection.obj
 0001:00033427       __unwindfunclet$??1TCPServer@@UAE@XZ$5 00434427 f   TCPConnection.obj
 0001:00033435       __unwindfunclet$??1TCPServer@@UAE@XZ$6 00434435 f   TCPConnection.obj
 0001:00033443       __ehhandler$??1TCPServer@@UAE@XZ 00434443 f   TCPConnection.obj
 0001:00033460       __unwindfunclet$?ListenNewConnections@TCPServer@@AAEXXZ$0 00434460 f   TCPConnection.obj
 0001:00033468       __unwindfunclet$?ListenNewConnections@TCPServer@@AAEXXZ$1 00434468 f   TCPConnection.obj
 0001:00033473       __ehhandler$?ListenNewConnections@TCPServer@@AAEXXZ 00434473 f   TCPConnection.obj
 0001:000334a0       __unwindfunclet$??0TCPConnection@@QAE@PAVTCPServer@@PAV0@IIG@Z$0 004344a0 f   TCPConnection.obj
 0001:000334ab       __unwindfunclet$??0TCPConnection@@QAE@PAVTCPServer@@PAV0@IIG@Z$1 004344ab f   TCPConnection.obj
 0001:000334b6       __unwindfunclet$??0TCPConnection@@QAE@PAVTCPServer@@PAV0@IIG@Z$2 004344b6 f   TCPConnection.obj
 0001:000334c1       __unwindfunclet$??0TCPConnection@@QAE@PAVTCPServer@@PAV0@IIG@Z$3 004344c1 f   TCPConnection.obj
 0001:000334cf       __unwindfunclet$??0TCPConnection@@QAE@PAVTCPServer@@PAV0@IIG@Z$4 004344cf f   TCPConnection.obj
 0001:000334dd       __unwindfunclet$??0TCPConnection@@QAE@PAVTCPServer@@PAV0@IIG@Z$5 004344dd f   TCPConnection.obj
 0001:000334eb       __unwindfunclet$??0TCPConnection@@QAE@PAVTCPServer@@PAV0@IIG@Z$6 004344eb f   TCPConnection.obj
 0001:000334f9       __unwindfunclet$??0TCPConnection@@QAE@PAVTCPServer@@PAV0@IIG@Z$7 004344f9 f   TCPConnection.obj
 0001:00033507       __unwindfunclet$??0TCPConnection@@QAE@PAVTCPServer@@PAV0@IIG@Z$8 00434507 f   TCPConnection.obj
 0001:00033515       __unwindfunclet$??0TCPConnection@@QAE@PAVTCPServer@@PAV0@IIG@Z$9 00434515 f   TCPConnection.obj
 0001:00033523       __ehhandler$??0TCPConnection@@QAE@PAVTCPServer@@PAV0@IIG@Z 00434523 f   TCPConnection.obj
 0001:00033540       __unwindfunclet$?ProcessReceivedDataAsPackets@TCPConnection@@AAE_NPAD@Z$0 00434540 f   TCPConnection.obj
 0001:0003354b       __ehhandler$?ProcessReceivedDataAsPackets@TCPConnection@@AAE_NPAD@Z 0043454b f   TCPConnection.obj
 0001:00033570       __unwindfunclet$??0TCPServer@@QAE@G_N@Z$0 00434570 f   TCPConnection.obj
 0001:0003357b       __unwindfunclet$??0TCPServer@@QAE@G_N@Z$1 0043457b f   TCPConnection.obj
 0001:00033586       __unwindfunclet$??0TCPServer@@QAE@G_N@Z$2 00434586 f   TCPConnection.obj
 0001:00033591       __unwindfunclet$??0TCPServer@@QAE@G_N@Z$3 00434591 f   TCPConnection.obj
 0001:0003359c       __unwindfunclet$??0TCPServer@@QAE@G_N@Z$4 0043459c f   TCPConnection.obj
 0001:000335a7       __unwindfunclet$??0TCPServer@@QAE@G_N@Z$5 004345a7 f   TCPConnection.obj
 0001:000335b5       __unwindfunclet$??0TCPServer@@QAE@G_N@Z$6 004345b5 f   TCPConnection.obj
 0001:000335c3       __ehhandler$??0TCPServer@@QAE@G_N@Z 004345c3 f   TCPConnection.obj
 0001:000335e0       __unwindfunclet$??1TCPConnection@@UAE@XZ$0 004345e0 f   TCPConnection.obj
 0001:000335eb       __unwindfunclet$??1TCPConnection@@UAE@XZ$1 004345eb f   TCPConnection.obj
 0001:000335f6       __unwindfunclet$??1TCPConnection@@UAE@XZ$2 004345f6 f   TCPConnection.obj
 0001:00033601       __unwindfunclet$??1TCPConnection@@UAE@XZ$3 00434601 f   TCPConnection.obj
 0001:0003360f       __unwindfunclet$??1TCPConnection@@UAE@XZ$4 0043460f f   TCPConnection.obj
 0001:0003361d       __unwindfunclet$??1TCPConnection@@UAE@XZ$5 0043461d f   TCPConnection.obj
 0001:0003362b       __unwindfunclet$??1TCPConnection@@UAE@XZ$6 0043462b f   TCPConnection.obj
 0001:00033639       __unwindfunclet$??1TCPConnection@@UAE@XZ$7 00434639 f   TCPConnection.obj
 0001:00033647       __unwindfunclet$??1TCPConnection@@UAE@XZ$8 00434647 f   TCPConnection.obj
 0001:00033655       __unwindfunclet$??1TCPConnection@@UAE@XZ$9 00434655 f   TCPConnection.obj
 0001:00033663       __ehhandler$??1TCPConnection@@UAE@XZ 00434663 f   TCPConnection.obj
 0001:0003367e       __unwindfunclet$??1_Locimp@locale@std@@MAE@XZ$0 0043467e f   libcpmt:locale0.obj
 0001:00033686       __unwindfunclet$??1_Locimp@locale@std@@MAE@XZ$1 00434686 f   libcpmt:locale0.obj
 0001:00033691       __ehhandler$??1_Locimp@locale@std@@MAE@XZ 00434691 f   libcpmt:locale0.obj
 0001:000336ac       __unwindfunclet$?_Init@locale@std@@CAPAV_Locimp@12@XZ$0 004346ac f   libcpmt:locale0.obj
 0001:000336ac       __unwindfunclet$??1_Fac_tidy_reg_t@std@@QAE@XZ$0 004346ac f   libcpmt:locale0.obj
 0001:000336ac       __unwindfunclet$?_Locimp_dtor@_Locimp@locale@std@@CAXPAV123@@Z$0 004346ac f   libcpmt:locale0.obj
 0001:000336b4       __ehhandler$?_Locimp_dtor@_Locimp@locale@std@@CAXPAV123@@Z 004346b4 f   libcpmt:locale0.obj
 0001:000336b4       __ehhandler$??1_Fac_tidy_reg_t@std@@QAE@XZ 004346b4 f   libcpmt:locale0.obj
 0001:000336b4       __ehhandler$?_Init@locale@std@@CAPAV_Locimp@12@XZ 004346b4 f   libcpmt:locale0.obj
 0001:000336cf       __unwindfunclet$??0?$basic_streambuf@DU?$char_traits@D@std@@@std@@IAE@XZ$0 004346cf f   libcpmt:cout.obj
 0001:000336da       __ehhandler$??0?$basic_streambuf@DU?$char_traits@D@std@@@std@@IAE@XZ 004346da f   libcpmt:cout.obj
 0001:000336f5       __unwindfunclet$??$use_facet@V?$codecvt@DDH@std@@@std@@YAABV?$codecvt@DDH@0@ABVlocale@0@@Z$0 004346f5 f   libcpmt:cout.obj
 0001:000336f5       __unwindfunclet$??$use_facet@V?$ctype@D@std@@@std@@YAABV?$ctype@D@0@ABVlocale@0@@Z$0 004346f5 f   libcpmt:cout.obj
 0001:000336fd       __ehhandler$??$use_facet@V?$ctype@D@std@@@std@@YAABV?$ctype@D@0@ABVlocale@0@@Z 004346fd f   libcpmt:cout.obj
 0001:000336fd       __ehhandler$??$use_facet@V?$codecvt@DDH@std@@@std@@YAABV?$codecvt@DDH@0@ABVlocale@0@@Z 004346fd f   libcpmt:cout.obj
 0001:00033718       __unwindfunclet$?_Getcat@?$ctype@D@std@@SAIPAPBVfacet@locale@2@PBV42@@Z$0 00434718 f   libcpmt:cout.obj
 0001:00033718       __unwindfunclet$?_Getcat@?$codecvt@DDH@std@@SAIPAPBVfacet@locale@2@PBV42@@Z$0 00434718 f   libcpmt:cout.obj
 0001:00033722       __ehhandler$?_Getcat@?$codecvt@DDH@std@@SAIPAPBVfacet@locale@2@PBV42@@Z 00434722 f   libcpmt:cout.obj
 0001:00033722       __ehhandler$?_Getcat@?$ctype@D@std@@SAIPAPBVfacet@locale@2@PBV42@@Z 00434722 f   libcpmt:cout.obj
 0001:0003373d       __unwindfunclet$?widen@?$basic_ios@DU?$char_traits@D@std@@@std@@QBEDD@Z$0 0043473d f   libcpmt:cout.obj
 0001:00033745       __ehhandler$?widen@?$basic_ios@DU?$char_traits@D@std@@@std@@QBEDD@Z 00434745 f   libcpmt:cout.obj
 0001:00033760       __unwindfunclet$??0?$basic_ostream@DU?$char_traits@D@std@@@std@@QAE@PAV?$basic_streambuf@DU?$char_traits@D@std@@@1@_N@Z$0 00434760 f   libcpmt:cout.obj
 0001:0003377c       __ehhandler$??0?$basic_ostream@DU?$char_traits@D@std@@@std@@QAE@PAV?$basic_streambuf@DU?$char_traits@D@std@@@1@_N@Z 0043477c f   libcpmt:cout.obj
 0001:00033797       __unwindfunclet$?_Endwrite@?$basic_filebuf@DU?$char_traits@D@std@@@std@@IAE_NXZ$0 00434797 f   libcpmt:cout.obj
 0001:0003379f       __ehhandler$?_Endwrite@?$basic_filebuf@DU?$char_traits@D@std@@@std@@IAE_NXZ 0043479f f   libcpmt:cout.obj
 0001:000337c4       __unwindfunclet$?uflow@?$basic_filebuf@DU?$char_traits@D@std@@@std@@MAEHXZ$0 004347c4 f   libcpmt:cout.obj
 0001:000337c4       __unwindfunclet$?overflow@?$basic_filebuf@DU?$char_traits@D@std@@@std@@MAEHH@Z$0 004347c4 f   libcpmt:cout.obj
 0001:000337cc       __ehhandler$?overflow@?$basic_filebuf@DU?$char_traits@D@std@@@std@@MAEHH@Z 004347cc f   libcpmt:cout.obj
 0001:000337cc       __ehhandler$?uflow@?$basic_filebuf@DU?$char_traits@D@std@@@std@@MAEHXZ 004347cc f   libcpmt:cout.obj
 0001:000337f1       __unwindfunclet$??1?$basic_filebuf@DU?$char_traits@D@std@@@std@@UAE@XZ$0 004347f1 f   libcpmt:cout.obj
 0001:000337f9       __ehhandler$??1?$basic_filebuf@DU?$char_traits@D@std@@@std@@UAE@XZ 004347f9 f   libcpmt:cout.obj
 0001:00033814       __ehhandler$?CallUnexpected@@YAXPBU_s_ESTypeList@@@Z 00434814 f   LIBCMT:frame.obj
 0001:00033830       ??__Eeq_crypto@@YAXXZ      00434830 f   client.obj
 0001:00033840       ??__Edatabase@@YAXXZ       00434840 f   net.obj
 0001:00033860       ??__Eeqns@@YAXXZ           00434860 f   net.obj
 0001:00033880       ??__Enet@@YAXXZ            00434880 f   net.obj
 0001:00033890       ??__Eclient_list@@YAXXZ    00434890 f   net.obj
 0001:000338a0       ??__Eworld_list@@YAXXZ     004348a0 f   net.obj
 0001:000338c0       ??__ELogFile@@YAXXZ        004348c0 f   debug.obj
 0001:00033930       ??__Eadlf@@YAXXZ           00434930 f   debug.obj
 0001:00033940       ??__ETrylockSupported@@YAXXZ 00434940 f   Mutex.obj
 0001:00033950       ??__Ewinsock@@YAXXZ        00434950 f   TCPConnection.obj
 0001:00033966       ??__Einitlocks@std@@YAXXZ  00434966 f   libcpmt:xlock.obj
 0001:0003397c       ??__E_Fac_tidy_reg@std@@YAXXZ 0043497c f   libcpmt:locale0.obj
 0001:00033988       ??__Eclassic_locale@std@@YAXXZ 00434988 f   libcpmt:locale0.obj
 0001:00033994       ??__E_Generic_object@std@@YAXXZ 00434994 f   libcpmt:syserror.obj
 0001:000339a0       ??__E_Iostream_object@std@@YAXXZ 004349a0 f   libcpmt:syserror.obj
 0001:000339ac       ??__E_System_object@std@@YAXXZ 004349ac f   libcpmt:syserror.obj
 0001:000339b8       ??__Einitlocks@@YAXXZ      004349b8 f   libcpmt:cout.obj
 0001:000339ce       ??__Efout@std@@YAXXZ       004349ce f   libcpmt:cout.obj
 0001:00033a08       ??__Ecout@std@@YAXXZ       00434a08 f   libcpmt:cout.obj
 0001:00033a27       ??__Einit_cout@std@@YAXXZ  00434a27 f   libcpmt:cout.obj
 0001:00033a31       ??__Einitlocks@@YAXXZ      00434a31 f   libcpmt:cerr.obj
 0001:00033a47       ??__Eferr@std@@YAXXZ       00434a47 f   libcpmt:cerr.obj
 0001:00033a81       ??__Ecerr@std@@YAXXZ       00434a81 f   libcpmt:cerr.obj
 0001:00033aa0       ??__Einit_cerr@std@@YAXXZ  00434aa0 f   libcpmt:cerr.obj
 0001:00033aaa       ??__Einitlocks@std@@YAXXZ  00434aaa f   libcpmt:iosptrs.obj
 0001:00033ac0       ??__Einit_atexit@@YAXXZ    00434ac0 f   libcpmt:iosptrs.obj
 0001:00033ad0       ??__Fdatabase@@YAXXZ       00434ad0 f   net.obj
 0001:00033ae0       ??__Feqns@@YAXXZ           00434ae0 f   net.obj
 0001:00033af0       ??__Fworld_list@@YAXXZ     00434af0 f   net.obj
 0001:00033b00       ??__Fclient_list@@YAXXZ    00434b00 f   net.obj
 0001:00033b20       ??__Fadlf@@YAXXZ           00434b20 f   debug.obj
 0001:00033b50       ??__Fws@?1??ResolveIP@@YAIPBDPAD@Z@YAXXZ 00434b50 f   MiscFunctions.obj
 0001:00033b60       ??__Fwinsock@@YAXXZ        00434b60 f   TCPConnection.obj
 0001:00033b6a       ??__Finitlocks@std@@YAXXZ  00434b6a f   libcpmt:xlock.obj
 0001:00033b74       ??__Fclassic_locale@std@@YAXXZ 00434b74 f   libcpmt:locale0.obj
 0001:00033b7e       ??__F_Fac_tidy_reg@std@@YAXXZ 00434b7e f   libcpmt:locale0.obj
 0001:00033b88       ??__F_Generic_object@std@@YAXXZ 00434b88 f   libcpmt:syserror.obj
 0001:00033b93       ??__F_Iostream_object@std@@YAXXZ 00434b93 f   libcpmt:syserror.obj
 0001:00033b9e       ??__F_System_object@std@@YAXXZ 00434b9e f   libcpmt:syserror.obj
 0001:00033ba9       ??__Finitlocks@@YAXXZ      00434ba9 f   libcpmt:cout.obj
 0001:00033bb3       ??__Fcout@std@@YAXXZ       00434bb3 f   libcpmt:cout.obj
 0001:00033bbd       ??__Ffout@std@@YAXXZ       00434bbd f   libcpmt:cout.obj
 0001:00033bc7       ??__Finitlocks@@YAXXZ      00434bc7 f   libcpmt:cerr.obj
 0001:00033bd1       ??__Fcerr@std@@YAXXZ       00434bd1 f   libcpmt:cerr.obj
 0001:00033bdb       ??__Fferr@std@@YAXXZ       00434bdb f   libcpmt:cerr.obj
 0001:00033be5       ??__Finitlocks@std@@YAXXZ  00434be5 f   libcpmt:iosptrs.obj
 0001:00033bef       ??__Finit_atexit@@YAXXZ    00434bef f   libcpmt:iosptrs.obj
 0001:00033bf9       ??__Fnomem@?5???2@YAPAXI@Z@YAXXZ 00434bf9 f   LIBCMT:new.obj
