 Login

 Timestamp is 52ed05b8 (Sat Feb 01 09:33:28 2014)

 Preferred load address is 00400000

 Start         Length     Name                   Class
 0001:00000000 00079f4dH .text                   CODE
 0001:00079f50 0000144fH .text$x                 CODE
 0001:0007b3a0 000002c1H .text$yc                CODE
 0001:0007b670 0000013dH .text$yd                CODE
 0002:00000000 00000294H .idata$5                DATA
 0002:00000294 00000004H .CRT$XCA                DATA
 0002:00000298 0000002cH .CRT$XCC                DATA
 0002:000002c4 00000008H .CRT$XCL                DATA
 0002:000002cc 0000003cH .CRT$XCU                DATA
 0002:00000308 00000004H .CRT$XCZ                DATA
 0002:0000030c 00000004H .CRT$XIA                DATA
 0002:00000310 00000014H .CRT$XIC                DATA
 0002:00000324 00000004H .CRT$XID                DATA
 0002:00000328 00000004H .CRT$XIY                DATA
 0002:0000032c 00000004H .CRT$XIZ                DATA
 0002:00000330 00000004H .CRT$XPA                DATA
 0002:00000334 00000008H .CRT$XPX                DATA
 0002:0000033c 00000004H .CRT$XPXA               DATA
 0002:00000340 00000004H .CRT$XPZ                DATA
 0002:00000344 00000004H .CRT$XTA                DATA
 0002:00000348 00000004H .CRT$XTZ                DATA
 0002:00000350 00015b40H .rdata                  DATA
 0002:00015e90 00001f88H .rdata$r                DATA
 0002:00017e20 00000140H .rdata$sxdata           DATA
 0002:00017f60 00000004H .rtc$IAA                DATA
 0002:00017f64 00000004H .rtc$IZZ                DATA
 0002:00017f68 00000004H .rtc$TAA                DATA
 0002:00017f6c 00000004H .rtc$TZZ                DATA
 0002:00017f70 00001e5cH .xdata$x                DATA
 0002:00019dcc 00000064H .idata$2                DATA
 0002:00019e30 00000014H .idata$3                DATA
 0002:00019e44 00000294H .idata$4                DATA
 0002:0001a0d8 00000a0eH .idata$6                DATA
 0002:0001aae6 00000000H .edata                  DATA
 0003:00000000 0011759cH .data                   DATA
 0003:001175a0 0001e3f8H .bss                    DATA

  Address         Publics by Value              Rva+Base       Lib:Object

 0000:00000000       __except_list              00000000     <absolute>
 0000:00000050       ___safe_se_handler_count   00000050     <absolute>
 0000:00000000       ___ImageBase               00400000     <linker-defined>
 0001:00000000       ??Bid@locale@std@@QAEIXZ   00401000 f i client.obj
 0001:00000040       ?_Incref@facet@locale@std@@QAEXXZ 00401040 f i client.obj
 0001:00000070       ?_Decref@facet@locale@std@@QAEPAV123@XZ 00401070 f i client.obj
 0001:000000b0       ??1facet@locale@std@@UAE@XZ 004010b0 f i client.obj
 0001:000000c0       ??1locale@std@@QAE@XZ      004010c0 f i client.obj
 0001:00000110       ?_Getfacet@locale@std@@QBEPBVfacet@12@I@Z 00401110 f i client.obj
 0001:00000150       ??_Efacet@locale@std@@UAEPAXI@Z 00401150 f i client.obj
 0001:00000150       ??_G?$num_put@DV?$ostreambuf_iterator@DU?$char_traits@D@std@@@std@@@std@@MAEPAXI@Z 00401150 f i client.obj
 0001:00000150       ??_Gfacet@locale@std@@UAEPAXI@Z 00401150 f i client.obj
 0001:00000150       ??_E?$num_put@DV?$ostreambuf_iterator@DU?$char_traits@D@std@@@std@@@std@@MAEPAXI@Z 00401150 f i client.obj
 0001:00000180       ?getloc@ios_base@std@@QBE?AVlocale@2@XZ 00401180 f i client.obj
 0001:000001c0       ??0APPLAYER@@QAE@GI@Z      004011c0 f i client.obj
 0001:00000210       ??1APPLAYER@@QAE@XZ        00401210 f i client.obj
 0001:00000230       ??0ServerPacket@@QAE@GI@Z  00401230 f i client.obj
 0001:00000280       ??0Client@@QAE@PAVEQNetworkConnection@@@Z 00401280 f   client.obj
 0001:00000360       ??1_Sentry_base@?$basic_ostream@DU?$char_traits@D@std@@@std@@QAE@XZ 00401360 f i client.obj
 0001:00000380       ??_G?$ListElement@PAVClient@@@@QAEPAXI@Z 00401380 f i client.obj
 0001:000003b0       ??1failure@ios_base@std@@UAE@XZ 004013b0 f i client.obj
 0001:000003b0       ??1runtime_error@std@@UAE@XZ 004013b0 f i client.obj
 0001:000003c0       ?clear@ios_base@std@@QAEXH_N@Z 004013c0 f i client.obj
 0001:000004a0       ??0runtime_error@std@@QAE@ABV01@@Z 004014a0 f i client.obj
 0001:000004c0       ??0system_error@std@@QAE@ABV01@@Z 004014c0 f i client.obj
 0001:000004f0       ??_Eruntime_error@std@@UAEPAXI@Z 004014f0 f i client.obj
 0001:000004f0       ??_Efailure@ios_base@std@@UAEPAXI@Z 004014f0 f i client.obj
 0001:000004f0       ??_Gsystem_error@std@@UAEPAXI@Z 004014f0 f i client.obj
 0001:000004f0       ??_Esystem_error@std@@UAEPAXI@Z 004014f0 f i client.obj
 0001:000004f0       ??_Gfailure@ios_base@std@@UAEPAXI@Z 004014f0 f i client.obj
 0001:000004f0       ??_Gruntime_error@std@@UAEPAXI@Z 004014f0 f i client.obj
 0001:00000520       ??0failure@ios_base@std@@QAE@ABV012@@Z 00401520 f i client.obj
 0001:00000550       ??1?$_Yarn@D@std@@QAE@XZ   00401550 f i client.obj
 0001:00000570       ??1bad_alloc@std@@UAE@XZ   00401570 f i client.obj
 0001:00000580       ??_Ebad_alloc@std@@UAEPAXI@Z 00401580 f i client.obj
 0001:00000580       ??_Gbad_alloc@std@@UAEPAXI@Z 00401580 f i client.obj
 0001:000005b0       ?_Ifmt@?$num_put@DV?$ostreambuf_iterator@DU?$char_traits@D@std@@@std@@@std@@ABAPADPADPBDH@Z 004015b0 f i client.obj
 0001:00000640       ?_Tidy@?$numpunct@D@std@@AAEXXZ 00401640 f i client.obj
 0001:00000670       ?_Chassign@?$basic_string@DU?$char_traits@D@std@@V?$allocator@D@2@@std@@QAEXIID@Z 00401670 f i client.obj
 0001:000006b0       ??0bad_alloc@std@@QAE@ABV01@@Z 004016b0 f i client.obj
 0001:000006d0       ?erase@?$basic_string@DU?$char_traits@D@std@@V?$allocator@D@2@@std@@QAEAAV12@II@Z 004016d0 f i client.obj
 0001:00000760       ?allocate@?$allocator@D@std@@QAEPADI@Z 00401760 f i client.obj
 0001:000007b0       ?_Init@?$numpunct@D@std@@IAEXABV_Locinfo@2@_N@Z 004017b0 f i client.obj
 0001:000008f0       ??0_Locinfo@std@@QAE@PBD@Z 004018f0 f i client.obj
 0001:000009a0       ??1_Locinfo@std@@QAE@XZ    004019a0 f i client.obj
 0001:00000a50       ?Add@ClientList@@QAEXPAVClient@@@Z 00401a50 f   client.obj
 0001:00000a90       ?_Tidy@?$basic_string@DU?$char_traits@D@std@@V?$allocator@D@2@@std@@QAEX_NI@Z 00401a90 f i client.obj
 0001:00000ae0       ?_Put@?$num_put@DV?$ostreambuf_iterator@DU?$char_traits@D@std@@@std@@@std@@ABA?AV?$ostreambuf_iterator@DU?$char_traits@D@std@@@2@V32@PBDI@Z 00401ae0 f i client.obj
 0001:00000ae0       ?_Putc@?$num_put@DV?$ostreambuf_iterator@DU?$char_traits@D@std@@@std@@@std@@ABA?AV?$ostreambuf_iterator@DU?$char_traits@D@std@@@2@V32@PBDI@Z 00401ae0 f i client.obj
 0001:00000b50       ?_Rep@?$num_put@DV?$ostreambuf_iterator@DU?$char_traits@D@std@@@std@@@std@@ABA?AV?$ostreambuf_iterator@DU?$char_traits@D@std@@@2@V32@DI@Z 00401b50 f i client.obj
 0001:00000bc0       ?_Putgrouped@?$num_put@DV?$ostreambuf_iterator@DU?$char_traits@D@std@@@std@@@std@@ABA?AV?$ostreambuf_iterator@DU?$char_traits@D@std@@@2@V32@PBDID@Z 00401bc0 f i client.obj
 0001:00000c60       ?_Copy@?$basic_string@DU?$char_traits@D@std@@V?$allocator@D@2@@std@@QAEXII@Z 00401c60 f i client.obj
 0001:00000dd0       ?_Getcat@?$num_put@DV?$ostreambuf_iterator@DU?$char_traits@D@std@@@std@@@std@@SAIPAPBVfacet@locale@2@PBV42@@Z 00401dd0 f i client.obj
 0001:00000e90       ?do_decimal_point@?$numpunct@D@std@@MBEDXZ 00401e90 f i client.obj
 0001:00000ea0       ?do_thousands_sep@?$numpunct@D@std@@MBEDXZ 00401ea0 f i client.obj
 0001:00000eb0       ??_G?$numpunct@D@std@@MAEPAXI@Z 00401eb0 f i client.obj
 0001:00000eb0       ??_E?$numpunct@D@std@@MAEPAXI@Z 00401eb0 f i client.obj
 0001:00000f00       ??1?$ListElement@PAVClient@@@@QAE@XZ 00401f00 f i client.obj
 0001:00000f60       ?FindByLSID@ClientList@@QAEPAVClient@@I@Z 00401f60 f   client.obj
 0001:00000fe0       ??1?$basic_string@DU?$char_traits@D@std@@V?$allocator@D@2@@std@@QAE@XZ 00401fe0 f i client.obj
 0001:00001010       ?flush@?$basic_ostream@DU?$char_traits@D@std@@@std@@QAEAAV12@XZ 00402010 f i client.obj
 0001:00001060       ?_Osfx@?$basic_ostream@DU?$char_traits@D@std@@@std@@QAEXXZ 00402060 f i client.obj
 0001:000010c0       ?falsename@?$numpunct@D@std@@QBE?AV?$basic_string@DU?$char_traits@D@std@@V?$allocator@D@2@@2@XZ 004020c0 f i client.obj
 0001:000010e0       ?truename@?$numpunct@D@std@@QBE?AV?$basic_string@DU?$char_traits@D@std@@V?$allocator@D@2@@2@XZ 004020e0 f i client.obj
 0001:00001100       ?_Grow@?$basic_string@DU?$char_traits@D@std@@V?$allocator@D@2@@std@@QAE_NI_N@Z 00402100 f i client.obj
 0001:000011b0       ?grouping@?$numpunct@D@std@@QBE?AV?$basic_string@DU?$char_traits@D@std@@V?$allocator@D@2@@2@XZ 004021b0 f i client.obj
 0001:000011d0       ?append@?$basic_string@DU?$char_traits@D@std@@V?$allocator@D@2@@std@@QAEAAV12@ABV12@II@Z 004021d0 f i client.obj
 0001:000012c0       ??$use_facet@V?$num_put@DV?$ostreambuf_iterator@DU?$char_traits@D@std@@@std@@@std@@@std@@YAABV?$num_put@DV?$ostreambuf_iterator@DU?$char_traits@D@std@@@std@@@0@ABVlocale@0@@Z 004022c0 f i client.obj
 0001:00001400       ?_Getcat@?$numpunct@D@std@@SAIPAPBVfacet@locale@2@PBV42@@Z 00402400 f i client.obj
 0001:000014d0       ??1sentry@?$basic_ostream@DU?$char_traits@D@std@@@std@@QAE@XZ 004024d0 f i client.obj
 0001:00001540       ?append@?$basic_string@DU?$char_traits@D@std@@V?$allocator@D@2@@std@@QAEAAV12@PBDI@Z 00402540 f i client.obj
 0001:00001660       ?append@?$basic_string@DU?$char_traits@D@std@@V?$allocator@D@2@@std@@QAEAAV12@ID@Z 00402660 f i client.obj
 0001:00001710       ?assign@?$basic_string@DU?$char_traits@D@std@@V?$allocator@D@2@@std@@QAEAAV12@ABV12@II@Z 00402710 f i client.obj
 0001:00001800       ?insert@?$basic_string@DU?$char_traits@D@std@@V?$allocator@D@2@@std@@QAEAAV12@IID@Z 00402800 f i client.obj
 0001:00001900       ??$?6U?$char_traits@D@std@@@std@@YAAAV?$basic_ostream@DU?$char_traits@D@std@@@0@AAV10@PBD@Z 00402900 f i client.obj
 0001:00001bc0       ??$use_facet@V?$numpunct@D@std@@@std@@YAABV?$numpunct@D@0@ABVlocale@0@@Z 00402bc0 f i client.obj
 0001:00001d00       ??6?$basic_ostream@DU?$char_traits@D@std@@@std@@QAEAAV01@G@Z 00402d00 f i client.obj
 0001:00001ef0       ??6?$basic_ostream@DU?$char_traits@D@std@@@std@@QAEAAV01@I@Z 00402ef0 f i client.obj
 0001:000020e0       ?put@?$basic_ostream@DU?$char_traits@D@std@@@std@@QAEAAV12@D@Z 004030e0 f i client.obj
 0001:00002260       ?assign@?$basic_string@DU?$char_traits@D@std@@V?$allocator@D@2@@std@@QAEAAV12@PBDI@Z 00403260 f i client.obj
 0001:00002360       ?_Fput@?$num_put@DV?$ostreambuf_iterator@DU?$char_traits@D@std@@@std@@@std@@ABA?AV?$ostreambuf_iterator@DU?$char_traits@D@std@@@2@V32@AAVios_base@2@DPBDIIII@Z 00403360 f i client.obj
 0001:000028d0       ?_Iput@?$num_put@DV?$ostreambuf_iterator@DU?$char_traits@D@std@@@std@@@std@@ABA?AV?$ostreambuf_iterator@DU?$char_traits@D@std@@@2@V32@AAVios_base@2@DPADI@Z 004038d0 f i client.obj
 0001:00002b60       ?endl@std@@YAAAV?$basic_ostream@DU?$char_traits@D@std@@@1@AAV21@@Z 00403b60 f i client.obj
 0001:00002bc0       ?QueuePacket@Client@@QAEXPAVAPPLAYER@@@Z 00403bc0 f   client.obj
 0001:00002cb0       ?FastQueuePacket@Client@@QAEXPAPAVAPPLAYER@@@Z 00403cb0 f   client.obj
 0001:00002da0       ?FatalError@Client@@QAEXPBD_N@Z 00403da0 f   client.obj
 0001:00002ee0       ?do_put@?$num_put@DV?$ostreambuf_iterator@DU?$char_traits@D@std@@@std@@@std@@MBE?AV?$ostreambuf_iterator@DU?$char_traits@D@std@@@2@V32@AAVios_base@2@DJ@Z 00403ee0 f i client.obj
 0001:00002f60       ?do_put@?$num_put@DV?$ostreambuf_iterator@DU?$char_traits@D@std@@@std@@@std@@MBE?AV?$ostreambuf_iterator@DU?$char_traits@D@std@@@2@V32@AAVios_base@2@DK@Z 00403f60 f i client.obj
 0001:00002fe0       ?do_put@?$num_put@DV?$ostreambuf_iterator@DU?$char_traits@D@std@@@std@@@std@@MBE?AV?$ostreambuf_iterator@DU?$char_traits@D@std@@@2@V32@AAVios_base@2@D_J@Z 00403fe0 f i client.obj
 0001:00003060       ?do_put@?$num_put@DV?$ostreambuf_iterator@DU?$char_traits@D@std@@@std@@@std@@MBE?AV?$ostreambuf_iterator@DU?$char_traits@D@std@@@2@V32@AAVios_base@2@D_K@Z 00404060 f i client.obj
 0001:000030e0       ?do_put@?$num_put@DV?$ostreambuf_iterator@DU?$char_traits@D@std@@@std@@@std@@MBE?AV?$ostreambuf_iterator@DU?$char_traits@D@std@@@2@V32@AAVios_base@2@DN@Z 004040e0 f i client.obj
 0001:000032f0       ?do_put@?$num_put@DV?$ostreambuf_iterator@DU?$char_traits@D@std@@@std@@@std@@MBE?AV?$ostreambuf_iterator@DU?$char_traits@D@std@@@2@V32@AAVios_base@2@DO@Z 004042f0 f i client.obj
 0001:000034f0       ?do_put@?$num_put@DV?$ostreambuf_iterator@DU?$char_traits@D@std@@@std@@@std@@MBE?AV?$ostreambuf_iterator@DU?$char_traits@D@std@@@2@V32@AAVios_base@2@DPBX@Z 004044f0 f i client.obj
 0001:00003550       ?assign@?$basic_string@DU?$char_traits@D@std@@V?$allocator@D@2@@std@@QAEAAV12@$$QAV12@@Z 00404550 f i client.obj
 0001:000035d0       ?WorldResponse@Client@@QAEXIC@Z 004045d0 f   client.obj
 0001:00003880       ??0?$basic_string@DU?$char_traits@D@std@@V?$allocator@D@2@@std@@QAE@PBD@Z 00404880 f i client.obj
 0001:000038c0       ?do_put@?$num_put@DV?$ostreambuf_iterator@DU?$char_traits@D@std@@@std@@@std@@MBE?AV?$ostreambuf_iterator@DU?$char_traits@D@std@@@2@V32@AAVios_base@2@D_N@Z 004048c0 f i client.obj
 0001:00003ae0       ?do_grouping@?$numpunct@D@std@@MBE?AV?$basic_string@DU?$char_traits@D@std@@V?$allocator@D@2@@2@XZ 00404ae0 f i client.obj
 0001:00003b30       ?do_falsename@?$numpunct@D@std@@MBE?AV?$basic_string@DU?$char_traits@D@std@@V?$allocator@D@2@@2@XZ 00404b30 f i client.obj
 0001:00003b80       ?do_truename@?$numpunct@D@std@@MBE?AV?$basic_string@DU?$char_traits@D@std@@V?$allocator@D@2@@2@XZ 00404b80 f i client.obj
 0001:00003bd0       ?Process@Client@@QAE_NXZ   00404bd0 f   client.obj
 0001:00004930       ?Process@ClientList@@QAEXXZ 00405930 f   client.obj
 0001:00004a40       ??0EQCrypto@@QAE@XZ        00405a40 f   EQCrypto.obj
 0001:00004a60       ?DoEQDecrypt@EQCrypto@@QAEXPBEPAEH@Z 00405a60 f   EQCrypto.obj
 0001:00004ab0       ?compare@?$char_traits@D@std@@SAHPBD0I@Z 00405ab0 f i logindatabase.obj
 0001:00004b30       ?UpdateWorldName@Database@@QAE_NIPBD@Z 00405b30 f   logindatabase.obj
 0001:00004c40       ?InsertStats@Database@@QAE_NIII@Z 00405c40 f   logindatabase.obj
 0001:00004cf0       ?GetLSLoginInfo@Database@@QAEIPAD0PAEPAHPA_NPAF@Z 00405cf0 f   logindatabase.obj
 0001:00004f60       ?GetLSAccountInfo@Database@@QAE_NIPADPAEPAHPA_NPAF@Z 00405f60 f   logindatabase.obj
 0001:00005130       ?CheckWorldAuth@Database@@QAECPBD0PAI1PA_N2@Z 00406130 f   logindatabase.obj
 0001:00005380       ?AccountLoggedIn@Database@@QAE_NI@Z 00406380 f   logindatabase.obj
 0001:000054b0       ?CountUsers@Database@@QAEIPAD@Z 004064b0 f   logindatabase.obj
 0001:000055a0       ?CheckEQLogin@Database@@QAEIPBVAPPLAYER@@PADPAEPAHPA_NPAFI@Z 004065a0 f   logindatabase.obj
 0001:00005850       ??0LWorld@@QAE@PAVTCPConnection@@_NIG1@Z 00406850 f   LWorld.obj
 0001:00005a00       ??0LWorld@@QAE@IPAD0I_N@Z  00406a00 f   LWorld.obj
 0001:00005b20       ??0LWorld@@QAE@PAVTCPConnection@@IIIPAD11HI_N2E2I@Z 00406b20 f   LWorld.obj
 0001:00005c50       ?SendPacket@LWorld@@QAEXPAVServerPacket@@@Z 00406c50 f   LWorld.obj
 0001:00005d60       ?Message@LWorld@@QAAXPAD0ZZ 00406d60 f   LWorld.obj
 0001:00005e90       ?Kick@LWorld@@QAEXPAD_N@Z  00406e90 f   LWorld.obj
 0001:00005fa0       ?CheckServerName@LWorld@@SA_NPAD@Z 00406fa0 f   LWorld.obj
 0001:00006060       ?SetRemoteInfo@LWorld@@QAEXIIPAD00IIEHH@Z 00407060 f   LWorld.obj
 0001:000060f0       ??_G?$ListElement@PAVLWorld@@@@QAEPAXI@Z 004070f0 f i LWorld.obj
 0001:00006140       ??_G?$ListElement@PAUPeerInfo@LWorldList@@@@QAEPAXI@Z 00407140 f i LWorld.obj
 0001:00006190       ?Clear@?$LinkedList@PAVLWorld@@@@QAEXXZ 00407190 f i LWorld.obj
 0001:00006200       ?Clear@?$LinkedList@PAUPeerInfo@LWorldList@@@@QAEXXZ 00407200 f i LWorld.obj
 0001:00006250       ?Add@LWorldList@@QAEXPAVLWorld@@@Z 00407250 f   LWorld.obj
 0001:00006290       ??1?$LinkedList@PAVLWorld@@@@QAE@XZ 00407290 f i LWorld.obj
 0001:000062a0       ??1?$LinkedList@PAUPeerInfo@LWorldList@@@@QAE@XZ 004072a0 f i LWorld.obj
 0001:000062b0       ?RemoveCurrent@?$LinkedListIterator@PAVLWorld@@@@QAEX_N@Z 004072b0 f i LWorld.obj
 0001:00006370       ?Reset@?$LinkedListIterator@PAVEQNetworkPacket@@@@QAEXXZ 00407370 f i EQNetwork.obj
 0001:00006370       ?Reset@?$LinkedListIterator@PAUPeerInfo@LWorldList@@@@QAEXXZ 00407370 f i LWorld.obj
 0001:00006370       ?Reset@?$LinkedListIterator@PAVEQNetworkConnection@@@@QAEXXZ 00407370 f i EQNetwork.obj
 0001:00006370       ?Reset@?$LinkedListIterator@PAVClient@@@@QAEXXZ 00407370 f i client.obj
 0001:00006370       ?Reset@?$LinkedListIterator@PAVTCPConnection@@@@QAEXXZ 00407370 f i TCPConnection.obj
 0001:00006370       ?Reset@?$LinkedListIterator@PAVLWorld@@@@QAEXXZ 00407370 f i LWorld.obj
 0001:00006370       ?Reset@?$LinkedListIterator@PAVEQNetworkFragmentGroup@@@@QAEXXZ 00407370 f i EQNetwork.obj
 0001:000063f0       ?RemoveCurrent@?$LinkedListIterator@PAUPeerInfo@LWorldList@@@@QAEX_N@Z 004073f0 f i LWorld.obj
 0001:00006490       ??0LWorldList@@QAE@XZ      00407490 f   LWorld.obj
 0001:00006580       ??1LWorldList@@QAE@XZ      00407580 f   LWorld.obj
 0001:00006610       ?Shutdown@LWorldList@@QAEXXZ 00407610 f   LWorld.obj
 0001:00006660       ?SendPacket@LWorldList@@QAEXPAVServerPacket@@PAVLWorld@@@Z 00407660 f   LWorld.obj
 0001:000067e0       ?SendPacketLocal@LWorldList@@QAEXPAVServerPacket@@PAVLWorld@@@Z 004077e0 f   LWorld.obj
 0001:00006860       ?SendPacketLogin@LWorldList@@QAEXPAVServerPacket@@PAVLWorld@@@Z 00407860 f   LWorld.obj
 0001:000068e0       ?FindByID@LWorldList@@QAEPAVLWorld@@I@Z 004078e0 f   LWorld.obj
 0001:00006960       ?FindByAddress@LWorldList@@QAEPAVLWorld@@PAD@Z 00407960 f   LWorld.obj
 0001:000069f0       ?FindByLink@LWorldList@@QAEPAVLWorld@@PAVTCPConnection@@I@Z 004079f0 f   LWorld.obj
 0001:00006a90       ?FindByAccount@LWorldList@@QAEPAVLWorld@@IW4ConType@@@Z 00407a90 f   LWorld.obj
 0001:00006b30       ?MakeServerListPacket@LWorldList@@QAEXPAVAPPLAYER@@E@Z 00407b30 f   LWorld.obj
 0001:00006de0       ?SendWorldStatus@LWorldList@@QAEXPAVLWorld@@PAD@Z 00407de0 f   LWorld.obj
 0001:00006f30       ?RemoveByLink@LWorldList@@QAEXPAVTCPConnection@@IPAVLWorld@@@Z 00407f30 f   LWorld.obj
 0001:00006fd0       ?RemoveByID@LWorldList@@QAEXI@Z 00407fd0 f   LWorld.obj
 0001:00007050       ?AddPeer@LWorldList@@QAEXPAVLWorld@@@Z 00408050 f   LWorld.obj
 0001:000070a0       ?RemovePeer@LWorldList@@QAEXPAVLWorld@@@Z 004080a0 f   LWorld.obj
 0001:00007120       ?ConnectPeer@LWorldList@@QAECPAVLWorld@@@Z 00408120 f   LWorld.obj
 0001:000071f0       ?WriteXML@LWorldList@@QAE_NXZ 004081f0 f   LWorld.obj
 0001:00007280       ??1LWorld@@QAE@XZ          00408280 f   LWorld.obj
 0001:000073d0       ?UpdateWorldList@LWorld@@QAEXPAV1@@Z 004083d0 f   LWorld.obj
 0001:00007590       ?UpdateWorldList@LWorldList@@QAEXPAVLWorld@@@Z 00408590 f   LWorld.obj
 0001:00007610       ?UpdateStatus@LWorld@@QAEXHHH@Z 00408610 f i LWorld.obj
 0001:00007640       ??6?$basic_ostream@DU?$char_traits@D@std@@@std@@QAEAAV01@H@Z 00408640 f i LWorld.obj
 0001:00007830       ?KickGhostIP@LWorldList@@QAEXIPAVLWorld@@G@Z 00408830 f   LWorld.obj
 0001:00007a70       ?KickGhost@LWorldList@@QAEXW4ConType@@IPAVLWorld@@@Z 00408a70 f   LWorld.obj
 0001:00007bd0       ?ConnectUplink@LWorldList@@QAEXXZ 00408bd0 f   LWorld.obj
 0001:00007f30       ?AddPeer@LWorldList@@QAEXIG_N@Z 00408f30 f   LWorld.obj
 0001:00008140       ?AddPeer@LWorldList@@QAEXPAD_N@Z 00409140 f   LWorld.obj
 0001:00008220       ?ListWorldsToConsole@LWorldList@@QAEXXZ 00409220 f   LWorld.obj
 0001:000086d0       ?LoadWorldList@Database@@QAEXXZ 004096d0 f   LWorld.obj
 0001:00008910       ?SetupWorld@LWorld@@QAE_NPAD0000@Z 00409910 f   LWorld.obj
 0001:00008ae0       ?SetupChat@LWorld@@QAE_NPAD0@Z 00409ae0 f   LWorld.obj
 0001:00008c00       ?SetupLogin@LWorld@@QAE_NPAD00@Z 00409c00 f   LWorld.obj
 0001:00008de0       ?Init@LWorldList@@QAE_NXZ  00409de0 f   LWorld.obj
 0001:00008e40       ?Process@LWorld@@QAE_NXZ   00409e40 f   LWorld.obj
 0001:00009fe0       ?Process@LWorldList@@QAEXXZ 0040afe0 f   LWorld.obj
 0001:0000a2c0       ?IsNumber@Seperator@@SA_NPBD@Z 0040b2c0 f i net.obj
 0001:0000a330       ??0NetConnection@@QAE@XZ   0040b330 f i net.obj
 0001:0000a3b0       ?HitKey@NetConnection@@QAEXH@Z 0040b3b0 f   net.obj
 0001:0000a460       ?Clear@?$LinkedList@PAVClient@@@@QAEXXZ 0040b460 f i net.obj
 0001:0000a4a0       ?CatchSignal@@YAXH@Z       0040b4a0 f   net.obj
 0001:0000a4e0       ?ReadLoginConfig@NetConnection@@QAE_NXZ 0040b4e0 f   net.obj
 0001:0000a9e0       _main                      0040b9e0 f   net.obj
 0001:0000ac60       ?Generate@CRC32@@SAIPBEI@Z 0040bc60 f   crc32.obj
 0001:0000acb0       ?HandleMysqlError@Database@@SAXI@Z 0040bcb0 f   database.obj
 0001:0000ad00       ?InitVars@Database@@AAEXXZ 0040bd00 f   database.obj
 0001:0000adc0       ??1Database@@QAE@XZ        0040bdc0 f   database.obj
 0001:0000b110       ?LoadVariables_result@Database@@QAE_NPAUst_mysql_res@@@Z 0040c110 f   database.obj
 0001:0000b3e0       ?GetVariable@Database@@QAE_NPBDPADG@Z 0040c3e0 f   database.obj
 0001:0000b4e0       ??0Database@@QAE@XZ        0040c4e0 f   database.obj
 0001:0000b8e0       ?LoadVariables@Database@@QAE_NXZ 0040c8e0 f   database.obj
 0001:0000ba30       ??0DBcore@@QAE@XZ          0040ca30 f   dbcore.obj
 0001:0000ba70       ??1DBcore@@QAE@XZ          0040ca70 f   dbcore.obj
 0001:0000baf0       ?ping@DBcore@@QAEXXZ       0040caf0 f   dbcore.obj
 0001:0000bb20       ?DoEscapeString@DBcore@@QAEIPADPBDI@Z 0040cb20 f   dbcore.obj
 0001:0000bb60       ?Open@DBcore@@AAE_NPAIPAD@Z 0040cb60 f   dbcore.obj
 0001:0000bcb0       ?Open@DBcore@@IAE_NPBD000PAIPAD_N3@Z 0040ccb0 f   dbcore.obj
 0001:0000be80       ?RunQuery@DBcore@@QAE_NPBDIPADPAPAUst_mysql_res@@PAI33_N@Z 0040ce80 f   dbcore.obj
 0001:0000c0e0       ??0EQEMuLog@@QAE@XZ        0040d0e0 f   debug.obj
 0001:0000c1c0       ??1EQEMuLog@@QAE@XZ        0040d1c0 f   debug.obj
 0001:0000c270       ?open@EQEMuLog@@AAE_NW4LogIDs@1@@Z 0040d270 f   debug.obj
 0001:0000c3e0       ?write@EQEMuLog@@QAA_NW4LogIDs@1@PBDZZ 0040d3e0 f   debug.obj
 0001:0000c570       ?Copy@APPLAYER@@QBEPAV1@XZ 0040d570 f i EQNetwork.obj
 0001:0000c640       ?CheckActive@EQNetworkConnection@@QAE_NXZ 0040d640 f   EQNetwork.obj
 0001:0000c670       ?ReturnPacket@EQNetworkPacket@@QAEIPAPAE@Z 0040d670 f   EQNetwork.obj
 0001:0000c810       ??0EQNetworkFragmentGroup@@QAE@GG@Z 0040d810 f   EQNetwork.obj
 0001:0000c910       ??1EQNetworkFragmentGroup@@UAE@XZ 0040d910 f   EQNetwork.obj
 0001:0000c970       ?Assemble@EQNetworkFragmentGroup@@QAEIPAPAE@Z 0040d970 f   EQNetwork.obj
 0001:0000ca10       ?clear@?$MyQueue@VAPPLAYER@@@@QAEXXZ 0040da10 f i EQNetwork.obj
 0001:0000ca60       ??_G?$ListElement@PAVEQNetworkConnection@@@@QAEPAXI@Z 0040da60 f i EQNetwork.obj
 0001:0000ca60       ??_G?$ListElement@PAVEQNetworkPacket@@@@QAEPAXI@Z 0040da60 f i EQNetwork.obj
 0001:0000ca60       ??_G?$ListElement@PAVEQNetworkFragmentGroup@@@@QAEPAXI@Z 0040da60 f i EQNetwork.obj
 0001:0000ca60       ??_G?$ListElement@PAVTCPConnection@@@@QAEPAXI@Z 0040da60 f i TCPConnection.obj
 0001:0000ca90       ??1?$ListElement@PAVEQNetworkFragmentGroup@@@@QAE@XZ 0040da90 f i EQNetwork.obj
 0001:0000ca90       ??1?$ListElement@PAVEQNetworkPacket@@@@QAE@XZ 0040da90 f i EQNetwork.obj
 0001:0000ca90       ??1?$ListElement@PAVEQNetworkConnection@@@@QAE@XZ 0040da90 f i EQNetwork.obj
 0001:0000ca90       ??1?$ListElement@PAVTCPConnection@@@@QAE@XZ 0040da90 f i TCPConnection.obj
 0001:0000cad0       ?Clear@?$LinkedList@PAVEQNetworkConnection@@@@QAEXXZ 0040dad0 f i EQNetwork.obj
 0001:0000cad0       ?Clear@?$LinkedList@PAVTCPConnection@@@@QAEXXZ 0040dad0 f i TCPConnection.obj
 0001:0000cad0       ?Clear@?$LinkedList@PAVEQNetworkFragmentGroup@@@@QAEXXZ 0040dad0 f i EQNetwork.obj
 0001:0000cad0       ?Clear@?$LinkedList@PAVEQNetworkPacket@@@@QAEXXZ 0040dad0 f i EQNetwork.obj
 0001:0000cb10       ?NewQueuePop@EQNetworkServer@@QAEPAVEQNetworkConnection@@XZ 0040db10 f   EQNetwork.obj
 0001:0000cb70       ?PopPacket@EQNetworkConnection@@QAEPAVAPPLAYER@@XZ 0040db70 f   EQNetwork.obj
 0001:0000cbd0       ??0EQNetworkPacket@@QAE@PAVEQNetworkConnection@@@Z 0040dbd0 f   EQNetwork.obj
 0001:0000cc20       ??_GEQNetworkPacket@@UAEPAXI@Z 0040dc20 f i EQNetwork.obj
 0001:0000cc20       ??_EEQNetworkPacket@@UAEPAXI@Z 0040dc20 f i EQNetwork.obj
 0001:0000cc60       ??_EEQNetworkFragmentGroup@@UAEPAXI@Z 0040dc60 f i EQNetwork.obj
 0001:0000cc60       ??_GEQNetworkFragmentGroup@@UAEPAXI@Z 0040dc60 f i EQNetwork.obj
 0001:0000cc90       ??1?$MyQueue@VAPPLAYER@@@@QAE@XZ 0040dc90 f i EQNetwork.obj
 0001:0000cca0       ??1?$LinkedList@PAVEQNetworkFragmentGroup@@@@QAE@XZ 0040dca0 f i EQNetwork.obj
 0001:0000cca0       ??1?$LinkedList@PAVEQNetworkPacket@@@@QAE@XZ 0040dca0 f i EQNetwork.obj
 0001:0000ccb0       ?Advance@?$LinkedListIterator@PAVLWorld@@@@QAEXXZ 0040dcb0 f i LWorld.obj
 0001:0000ccb0       ?Advance@?$LinkedListIterator@PAVEQNetworkPacket@@@@QAEXXZ 0040dcb0 f i EQNetwork.obj
 0001:0000ccb0       ?Advance@?$LinkedListIterator@PAVEQNetworkConnection@@@@QAEXXZ 0040dcb0 f i EQNetwork.obj
 0001:0000cd00       ?RemoveCurrent@?$LinkedListIterator@PAVEQNetworkPacket@@@@QAEX_N@Z 0040dd00 f i EQNetwork.obj
 0001:0000cd00       ?RemoveCurrent@?$LinkedListIterator@PAVEQNetworkFragmentGroup@@@@QAEX_N@Z 0040dd00 f i EQNetwork.obj
 0001:0000cda0       ??0EQNetworkServer@@QAE@G@Z 0040dda0 f   EQNetwork.obj
 0001:0000ce70       ?Close@EQNetworkConnection@@QAEXXZ 0040de70 f   EQNetwork.obj
 0001:0000cef0       ??1EQNetworkFragmentGroupList@@UAE@XZ 0040def0 f   EQNetwork.obj
 0001:0000cf20       ?Append@?$LinkedList@PAVEQNetworkPacket@@@@QAEXABQAVEQNetworkPacket@@@Z 0040df20 f i EQNetwork.obj
 0001:0000cf20       ?Append@?$LinkedList@PAUPeerInfo@LWorldList@@@@QAEXABQAUPeerInfo@LWorldList@@@Z 0040df20 f i LWorld.obj
 0001:0000cf20       ?Append@?$LinkedList@PAVTCPConnection@@@@QAEXABQAVTCPConnection@@@Z 0040df20 f i TCPConnection.obj
 0001:0000cf20       ?Append@?$LinkedList@PAVEQNetworkConnection@@@@QAEXABQAVEQNetworkConnection@@@Z 0040df20 f i EQNetwork.obj
 0001:0000cf90       ??1EQNetworkServer@@UAE@XZ 0040df90 f   EQNetwork.obj
 0001:0000d0c0       ??0EQNetworkConnection@@QAE@IG@Z 0040e0c0 f   EQNetwork.obj
 0001:0000d2e0       ?Free@EQNetworkConnection@@QAEXXZ 0040e2e0 f   EQNetwork.obj
 0001:0000d320       ?IncomingARSP@EQNetworkConnection@@AAEXG@Z 0040e320 f   EQNetwork.obj
 0001:0000d410       ?MakeEQPacket@EQNetworkConnection@@AAEXPAVAPPLAYER@@_N@Z 0040e410 f   EQNetwork.obj
 0001:0000d740       ??_EEQNetworkFragmentGroupList@@UAEPAXI@Z 0040e740 f i EQNetwork.obj
 0001:0000d740       ??_GEQNetworkFragmentGroupList@@UAEPAXI@Z 0040e740 f i EQNetwork.obj
 0001:0000d780       ?CheckTimers@EQNetworkFragmentGroupList@@QAEXXZ 0040e780 f   EQNetwork.obj
 0001:0000d880       ?GotPacket@EQNetworkFragmentGroupList@@QAEPAVEQNetworkFragmentGroup@@PAVEQNetworkPacket@@@Z 0040e880 f   EQNetwork.obj
 0001:0000da30       ?DeleteGroup@EQNetworkFragmentGroupList@@QAEXG@Z 0040ea30 f   EQNetwork.obj
 0001:0000dac0       ??_EEQNetworkServer@@UAEPAXI@Z 0040eac0 f i EQNetwork.obj
 0001:0000dac0       ??_GEQNetworkServer@@UAEPAXI@Z 0040eac0 f i EQNetwork.obj
 0001:0000daf0       ?Process@EQNetworkConnection@@IAEXI@Z 0040eaf0 f   EQNetwork.obj
 0001:0000de60       ?QueuePacket@EQNetworkConnection@@QAEXPBVAPPLAYER@@_N@Z 0040ee60 f   EQNetwork.obj
 0001:0000df70       ?FastQueuePacket@EQNetworkConnection@@QAEXPAPAVAPPLAYER@@_N@Z 0040ef70 f   EQNetwork.obj
 0001:0000e0b0       ?CloseSock@EQNetworkConnection@@QAEXXZ 0040f0b0 f   EQNetwork.obj
 0001:0000e290       ?ProcessPacket@EQNetworkConnection@@AAE_NPAVEQNetworkPacket@@_N@Z 0040f290 f   EQNetwork.obj
 0001:0000e560       ?CheckBufferedPackets@EQNetworkConnection@@AAEXXZ 0040f560 f   EQNetwork.obj
 0001:0000e6e0       ?DecodePacket@EQNetworkPacket@@QAE_NPAEI@Z 0040f6e0 f   EQNetwork.obj
 0001:0000e850       ??1EQNetworkConnection@@UAE@XZ 0040f850 f   EQNetwork.obj
 0001:0000ea80       ?RecvData@EQNetworkConnection@@QAEXPAEI@Z 0040fa80 f   EQNetwork.obj
 0001:0000edd0       ?RecvData@EQNetworkServer@@AAEXPAEIIG@Z 0040fdd0 f   EQNetwork.obj
 0001:0000ef20       ??_GEQNetworkConnection@@UAEPAXI@Z 0040ff20 f i EQNetwork.obj
 0001:0000ef20       ??_EEQNetworkConnection@@UAEPAXI@Z 0040ff20 f i EQNetwork.obj
 0001:0000ef50       ?EQNetworkServerLoop@@YAXPAX@Z 0040ff50 f   EQNetwork.obj
 0001:0000f1f0       ?Open@EQNetworkServer@@QAE_NG@Z 004101f0 f   EQNetwork.obj
 0001:0000f360       ??BMD5@@QAEPBDXZ           00410360 f   md5.obj
 0001:0000f3d0       ?byteSwap@MD5@@CAXPAII@Z   004103d0 f   md5.obj
 0001:0000f410       ?Transform@MD5@@CAXQAIQBI@Z 00410410 f   md5.obj
 0001:0000faa0       ?Update@MD5@@SAXPAUMD5Context@1@PBEI@Z 00410aa0 f   md5.obj
 0001:0000fb90       ?Final@MD5@@SAXQAEPAUMD5Context@1@@Z 00410b90 f   md5.obj
 0001:0000fc50       ??0MD5@@QAE@PBDI@Z         00410c50 f   md5.obj
 0001:0000fcc0       ??0Seperator@@QAE@PBDDGG_NDD1@Z 00410cc0 f i MiscFunctions.obj
 0001:0000ff30       ??1Seperator@@QAE@XZ       00410f30 f i MiscFunctions.obj
 0001:0000ff70       ?strn0cpy@@YAPADPADPBDI@Z  00410f70 f   MiscFunctions.obj
 0001:0000ffb0       ?MakeAnyLenString@@YAHPAPADPBDZZ 00410fb0 f   MiscFunctions.obj
 0001:00010010       ?atobool@@YA_NPAD@Z        00411010 f   MiscFunctions.obj
 0001:00010120       ??0InitWinsock@@QAE@XZ     00411120 f   MiscFunctions.obj
 0001:00010160       ??1InitWinsock@@QAE@XZ     00411160 f   MiscFunctions.obj
 0001:00010170       ?ResolveIP@@YAIPBDPAD@Z    00411170 f   MiscFunctions.obj
 0001:00010260       ?ParseAddress@@YA_NPBDPAIPAGPAD@Z 00411260 f   MiscFunctions.obj
 0001:000102f0       ?IsTryLockSupported@@YA_NXZ 004112f0 f   Mutex.obj
 0001:00010390       ??0Mutex@@QAE@XZ           00411390 f   Mutex.obj
 0001:000103a0       ??1Mutex@@QAE@XZ           004113a0 f   Mutex.obj
 0001:000103b0       ?lock@Mutex@@QAEXXZ        004113b0 f   Mutex.obj
 0001:000103c0       ?trylock@Mutex@@QAE_NXZ    004113c0 f   Mutex.obj
 0001:000103e0       ?unlock@Mutex@@QAEXXZ      004113e0 f   Mutex.obj
 0001:000103f0       ??0LockMutex@@QAE@PAVMutex@@_N@Z 004113f0 f   Mutex.obj
 0001:00010420       ??1LockMutex@@QAE@XZ       00411420 f   Mutex.obj
 0001:00010430       ?DumpPacketHex@@YAXPBEIII@Z 00411430 f   packet_dump.obj
 0001:00010650       ?DumpPacket@@YAXPBEI@Z     00411650 f   packet_dump.obj
 0001:00010670       ?DumpPacket@@YAXPBVAPPLAYER@@_N@Z 00411670 f   packet_dump.obj
 0001:00010750       ?DumpPacket@@YAXPBVServerPacket@@_N@Z 00411750 f   packet_dump.obj
 0001:00010830       ?InflatePacket@@YAIPAEI0I_N@Z 00411830 f   packet_functions.obj
 0001:00010950       ?MakePacket@TCPConnection@@SAPAUTCPNetPacket_Struct@1@PBVServerPacket@@I@Z 00411950 f   TCPConnection.obj
 0001:000109d0       ?MakeOldPacket@TCPConnection@@SAPAUSPackSendQueue@@PBVServerPacket@@@Z 004119d0 f   TCPConnection.obj
 0001:00010a20       ?SetState@TCPConnection@@IAEXE@Z 00411a20 f   TCPConnection.obj
 0001:00010a50       ?GetState@TCPConnection@@UAEEXZ 00411a50 f   TCPConnection.obj
 0001:00010a80       ?ServerSendQueuePushEnd@TCPConnection@@AAEXPBEH@Z 00411a80 f   TCPConnection.obj
 0001:00010b50       ?ServerSendQueuePushEnd@TCPConnection@@AAEXPAPAEH@Z 00411b50 f   TCPConnection.obj
 0001:00010c40       ?ServerSendQueuePushFront@TCPConnection@@AAEXPBEH@Z 00411c40 f   TCPConnection.obj
 0001:00010d10       ?SetAsyncConnect@TCPConnection@@IAE_N_N@Z 00411d10 f   TCPConnection.obj
 0001:00010d40       ?SetEcho@TCPConnection@@QAEX_N@Z 00411d40 f   TCPConnection.obj
 0001:00010d70       ?SendNetErrorPacket@TCPConnection@@AAEXPBD@Z 00411d70 f   TCPConnection.obj
 0001:00010e60       ?RemoveRelay@TCPConnection@@IAEXPAV1@_N@Z 00411e60 f   TCPConnection.obj
 0001:00010f40       ?Open@TCPServer@@QAE_NGPAD@Z 00411f40 f   TCPConnection.obj
 0001:00011120       ?IsOpen@TCPServer@@QAE_NXZ 00412120 f   TCPConnection.obj
 0001:00011150       ?clear@?$MyQueue@VServerPacket@@@@QAEXXZ 00412150 f i TCPConnection.obj
 0001:000111a0       ?PopPacket@TCPConnection@@QAEPAVServerPacket@@XZ 004121a0 f   TCPConnection.obj
 0001:00011210       ?ClearBuffers@TCPConnection@@AAEXXZ 00412210 f   TCPConnection.obj
 0001:000113e0       ?NewQueuePop@TCPServer@@QAEPAVTCPConnection@@XZ 004123e0 f   TCPConnection.obj
 0001:00011440       ??1?$MyQueue@UTCPNetPacket_Struct@TCPConnection@@@@QAE@XZ 00412440 f i TCPConnection.obj
 0001:00011440       ??1?$MyQueue@D@@QAE@XZ     00412440 f i TCPConnection.obj
 0001:00011440       ??1?$MyQueue@UInQueue_Struct@@@@QAE@XZ 00412440 f i EQNetwork.obj
 0001:00011470       ?push@?$MyQueue@D@@QAEXPAD@Z 00412470 f i TCPConnection.obj
 0001:00011470       ?push@?$MyQueue@VServerPacket@@@@QAEXPAVServerPacket@@@Z 00412470 f i TCPConnection.obj
 0001:00011470       ?push@?$MyQueue@VEQNetworkConnection@@@@QAEXPAVEQNetworkConnection@@@Z 00412470 f i EQNetwork.obj
 0001:00011470       ?push@?$MyQueue@VTCPConnection@@@@QAEXPAVTCPConnection@@@Z 00412470 f i TCPConnection.obj
 0001:00011470       ?push@?$MyQueue@UTCPNetPacket_Struct@TCPConnection@@@@QAEXPAUTCPNetPacket_Struct@TCPConnection@@@Z 00412470 f i TCPConnection.obj
 0001:00011470       ?push@?$MyQueue@UInQueue_Struct@@@@QAEXPAUInQueue_Struct@@@Z 00412470 f i EQNetwork.obj
 0001:00011470       ?push@?$MyQueue@VAPPLAYER@@@@QAEXPAVAPPLAYER@@@Z 00412470 f i EQNetwork.obj
 0001:000114f0       ??1?$MyQueue@VServerPacket@@@@QAE@XZ 004124f0 f i TCPConnection.obj
 0001:00011500       ??1?$MyQueue@VTCPConnection@@@@QAE@XZ 00412500 f i TCPConnection.obj
 0001:00011500       ??1?$MyQueue@VEQNetworkConnection@@@@QAE@XZ 00412500 f i EQNetwork.obj
 0001:00011530       ??0TCPConnection@@QAE@_NPAVTCPServer@@W4eTCPMode@@@Z 00412530 f   TCPConnection.obj
 0001:000116c0       ??0TCPConnection@@QAE@PAVTCPServer@@IIG_N@Z 004126c0 f   TCPConnection.obj
 0001:00011860       ?InModeQueuePush@TCPConnection@@AAEXPAUTCPNetPacket_Struct@1@@Z 00412860 f   TCPConnection.obj
 0001:000118a0       ?LineOutQueuePush@TCPConnection@@AAEXPAD@Z 004128a0 f   TCPConnection.obj
 0001:000119c0       ?ProcessReceivedDataAsOldPackets@TCPConnection@@AAE_NPAD@Z 004129c0 f   TCPConnection.obj
 0001:00011bc0       ?SendPacket@TCPConnection@@UAE_NPBVServerPacket@@I@Z 00412bc0 f   TCPConnection.obj
 0001:00011d00       ?SendPacket@TCPConnection@@UAE_NPBUTCPNetPacket_Struct@1@@Z 00412d00 f   TCPConnection.obj
 0001:00011e00       ??1TCPServer@@UAE@XZ       00412e00 f   TCPConnection.obj
 0001:00011f60       ?AddConnection@TCPServer@@IAEXPAVTCPConnection@@@Z 00412f60 f   TCPConnection.obj
 0001:00011fa0       ?GetConnection@TCPServer@@IAEPAVTCPConnection@@I@Z 00412fa0 f   TCPConnection.obj
 0001:00012020       ?CheckInQueue@TCPServer@@AAEXXZ 00413020 f   TCPConnection.obj
 0001:00012100       ??_ETCPServer@@UAEPAXI@Z   00413100 f i TCPConnection.obj
 0001:00012100       ??_GTCPServer@@UAEPAXI@Z   00413100 f i TCPConnection.obj
 0001:00012130       ?ListenNewConnections@TCPServer@@AAEXXZ 00413130 f   TCPConnection.obj
 0001:000122f0       ?Process@TCPServer@@IAEXXZ 004132f0 f   TCPConnection.obj
 0001:00012430       ??0TCPConnection@@QAE@PAVTCPServer@@PAV0@IIG@Z 00413430 f   TCPConnection.obj
 0001:00012610       ?Free@TCPConnection@@QAEXXZ 00413610 f   TCPConnection.obj
 0001:000126d0       ?Connect@TCPConnection@@QAE_NIGPAD@Z 004136d0 f   TCPConnection.obj
 0001:000129f0       ?ProcessNetworkLayerPacket@TCPConnection@@AAEXPAVServerPacket@@@Z 004139f0 f   TCPConnection.obj
 0001:00012c50       ?SendData@TCPConnection@@AAE_NPAD@Z 00413c50 f   TCPConnection.obj
 0001:00012ea0       ?TCPServerLoop@@YAXPAX@Z   00413ea0 f   TCPConnection.obj
 0001:00012fb0       ?Disconnect@TCPConnection@@UAEX_N@Z 00413fb0 f   TCPConnection.obj
 0001:00013070       ?ProcessReceivedDataAsPackets@TCPConnection@@AAE_NPAD@Z 00414070 f   TCPConnection.obj
 0001:00013320       ?TCPConnectionLoop@@YAXPAX@Z 00414320 f   TCPConnection.obj
 0001:000134d0       ??0TCPServer@@QAE@G_N@Z    004144d0 f   TCPConnection.obj
 0001:000135b0       ??1TCPConnection@@UAE@XZ   004145b0 f   TCPConnection.obj
 0001:00013790       ?AsyncConnect@TCPConnection@@QAEXIG@Z 00414790 f   TCPConnection.obj
 0001:000138c0       ?ProcessReceivedData@TCPConnection@@AAE_NPAD@Z 004148c0 f   TCPConnection.obj
 0001:00013bf0       ??_GTCPConnection@@UAEPAXI@Z 00414bf0 f i TCPConnection.obj
 0001:00013bf0       ??_ETCPConnection@@UAEPAXI@Z 00414bf0 f i TCPConnection.obj
 0001:00013c20       ?RecvData@TCPConnection@@AAE_NPAD@Z 00414c20 f   TCPConnection.obj
 0001:00013dc0       ?Process@TCPConnection@@MAE_NXZ 00414dc0 f   TCPConnection.obj
 0001:00013f70       ??0Timer@@QAE@I_N@Z        00414f70 f   timer.obj
 0001:00013fa0       ?gettimeofday@@YAHPAUtimeval@@ZZ 00414fa0 f   timer.obj
 0001:00013ff0       ?Check@Timer@@QAE_N_N@Z    00414ff0 f   timer.obj
 0001:00014050       ?Disable@Timer@@QAEXXZ     00415050 f   timer.obj
 0001:00014060       ?Start@Timer@@QAEXI_N@Z    00415060 f   timer.obj
 0001:00014090       ?Trigger@Timer@@QAEXXZ     00415090 f   timer.obj
 0001:000140b0       ?GetTickCount@Timer@@SAABIXZ 004150b0 f   timer.obj
 0001:000140c0       ?SetCurrentTime@Timer@@SAABIXZ 004150c0 f   timer.obj
 0001:00014122       _ntohs@4                   00415122 f   wsock32:WSOCK32.dll
 0001:00014128       _inet_ntoa@4               00415128 f   wsock32:WSOCK32.dll
 0001:0001412e       _htonl@4                   0041512e f   wsock32:WSOCK32.dll
 0001:00014134       _closesocket@4             00415134 f   wsock32:WSOCK32.dll
 0001:0001413a       _WSAStartup@8              0041513a f   wsock32:WSOCK32.dll
 0001:00014140       _WSACleanup@0              00415140 f   wsock32:WSOCK32.dll
 0001:00014146       _sendto@24                 00415146 f   wsock32:WSOCK32.dll
 0001:0001414c       _ntohl@4                   0041514c f   wsock32:WSOCK32.dll
 0001:00014152       _recv@16                   00415152 f   wsock32:WSOCK32.dll
 0001:00014158       _recvfrom@24               00415158 f   wsock32:WSOCK32.dll
 0001:0001415e       _ioctlsocket@12            0041515e f   wsock32:WSOCK32.dll
 0001:00014164       _connect@12                00415164 f   wsock32:WSOCK32.dll
 0001:0001416a       _socket@12                 0041516a f   wsock32:WSOCK32.dll
 0001:00014170       _htons@4                   00415170 f   wsock32:WSOCK32.dll
 0001:00014176       _bind@12                   00415176 f   wsock32:WSOCK32.dll
 0001:0001417c       _setsockopt@20             0041517c f   wsock32:WSOCK32.dll
 0001:00014182       _WSAGetLastError@0         00415182 f   wsock32:WSOCK32.dll
 0001:00014188       _gethostbyname@4           00415188 f   wsock32:WSOCK32.dll
 0001:0001418e       _listen@8                  0041518e f   wsock32:WSOCK32.dll
 0001:00014194       _accept@12                 00415194 f   wsock32:WSOCK32.dll
 0001:0001419a       _send@16                   0041519a f   wsock32:WSOCK32.dll
 0001:000141a0       _shutdown@8                004151a0 f   wsock32:WSOCK32.dll
 0001:000141b0       _my_connect                004151b0 f   mysqlclient:client.obj
 0001:000141d0       _set_mysql_error           004151d0 f   mysqlclient:client.obj
 0001:00014230       _net_clear_error           00415230 f   mysqlclient:client.obj
 0001:000142a0       _create_named_pipe         004152a0 f   mysqlclient:client.obj
 0001:00014480       _create_shared_memory      00415480 f   mysqlclient:client.obj
 0001:00014900       _free_rows                 00415900 f   mysqlclient:client.obj
 0001:00014920       _free_old_query            00415920 f   mysqlclient:client.obj
 0001:000149a0       _mysql_free_result@4       004159a0 f   mysqlclient:client.obj
 0001:00014ab0       _mysql_read_default_options 00415ab0 f   mysqlclient:client.obj
 0001:00014f80       _unpack_fields             00415f80 f   mysqlclient:client.obj
 0001:000152f0       _mysql_init@4              004162f0 f   mysqlclient:client.obj
 0001:00015580       _mysql_init_character_set  00416580 f   mysqlclient:client.obj
 0001:00015790       _mysql_select_db@8         00416790 f   mysqlclient:client.obj
 0001:000159d0       _mysql_detach_stmt_list    004169d0 f   mysqlclient:client.obj
 0001:00015a60       _mysql_send_query@12       00416a60 f   mysqlclient:client.obj
 0001:00015ae0       _mysql_real_query@12       00416ae0 f   mysqlclient:client.obj
 0001:00015b20       _mysql_store_result@4      00416b20 f   mysqlclient:client.obj
 0001:00015d60       _mysql_num_rows@4          00416d60 f   mysqlclient:client.obj
 0001:00015d70       _mysql_num_fields@4        00416d70 f   mysqlclient:client.obj
 0001:00015d80       _mysql_errno@4             00416d80 f   mysqlclient:client.obj
 0001:00015da0       _mysql_error@4             00416da0 f   mysqlclient:client.obj
 0001:00015dc0       _mysql_get_server_version@4 00416dc0 f   mysqlclient:client.obj
 0001:00015e20       _mysql_set_character_set@8 00416e20 f   mysqlclient:client.obj
 0001:00015f30       _end_server                00416f30 f   mysqlclient:client.obj
 0001:00015f80       _mysql_close@4             00416f80 f   mysqlclient:client.obj
 0001:00016060       _cli_safe_read             00417060 f   mysqlclient:client.obj
 0001:000161d0       _cli_read_rows             004171d0 f   mysqlclient:client.obj
 0001:00016500       _mysql_real_connect@32     00417500 f   mysqlclient:client.obj
 0001:000172c0       _mysql_reconnect           004182c0 f   mysqlclient:client.obj
 0001:000176b0       _mysql_fetch_row@4         004186b0 f   mysqlclient:client.obj
 0001:00017770       _cli_advanced_command      00418770 f   mysqlclient:client.obj
 0001:000178f0       _mysql_master_send_query@12 004188f0 f   mysqlclient:libmysql.obj
 0001:00017960       _mysql_slave_send_query@12 00418960 f   mysqlclient:libmysql.obj
 0001:00017a50       _mysql_rpl_query_type@8    00418a50 f   mysqlclient:libmysql.obj
 0001:00017b20       _cli_read_change_user_result 00418b20 f   mysqlclient:libmysql.obj
 0001:00017bc0       _read_user_name            00418bc0 f   mysqlclient:libmysql.obj
 0001:00017da0       _mysql_set_local_infile_default 00418da0 f   mysqlclient:libmysql.obj
 0001:00017dd0       _mysql_query@8             00418dd0 f   mysqlclient:libmysql.obj
 0001:00017ee0       _cli_list_fields           00418ee0 f   mysqlclient:libmysql.obj
 0001:00017f40       _cli_read_statistics       00418f40 f   mysqlclient:libmysql.obj
 0001:00017f80       _mysql_ping@4              00418f80 f   mysqlclient:libmysql.obj
 0001:00017fe0       _mysql_field_count@4       00418fe0 f   mysqlclient:libmysql.obj
 0001:00018000       _mysql_affected_rows@4     00419000 f   mysqlclient:libmysql.obj
 0001:00018020       _mysql_insert_id@4         00419020 f   mysqlclient:libmysql.obj
 0001:00018040       _my_net_local_init         00419040 f   mysqlclient:libmysql.obj
 0001:00018090       _mysql_real_escape_string@16 00419090 f   mysqlclient:libmysql.obj
 0001:00018130       _set_stmt_error            00419130 f   mysqlclient:libmysql.obj
 0001:00018170       _set_stmt_errmsg           00419170 f   mysqlclient:libmysql.obj
 0001:000181c0       _cli_read_prepare_result   004191c0 f   mysqlclient:libmysql.obj
 0001:00018430       _cli_stmt_execute          00419430 f   mysqlclient:libmysql.obj
 0001:00018610       _cli_unbuffered_fetch      00419610 f   mysqlclient:libmysql.obj
 0001:00018650       _cli_read_binary_rows      00419650 f   mysqlclient:libmysql.obj
 0001:00018790       _mysql_next_result@4       00419790 f   mysqlclient:libmysql.obj
 0001:00018800       _mysql_server_init@12      00419800 f   mysqlclient:libmysql.obj
 0001:00018a60       _mysql_rpl_probe@4         00419a60 f   mysqlclient:libmysql.obj
 0001:00018b00       _handle_local_infile       00419b00 f   mysqlclient:libmysql.obj
 0001:00018d20       _deflate                   00419d20 f   mysqlclient:deflate.obj
 0001:00019500       _deflateEnd                0041a500 f   mysqlclient:deflate.obj
 0001:0001a260       _deflateReset              0041b260 f   mysqlclient:deflate.obj
 0001:0001a2f0       _deflateInit2_             0041b2f0 f   mysqlclient:deflate.obj
 0001:0001a510       _deflateInit_              0041b510 f   mysqlclient:deflate.obj
 0001:0001a540       _inflateReset              0041b540 f   mysqlclient:inflate.obj
 0001:0001a5a0       _inflateInit2_             0041b5a0 f   mysqlclient:inflate.obj
 0001:0001a670       _inflateInit_              0041b670 f   mysqlclient:inflate.obj
 0001:0001a7a0       _inflate                   0041b7a0 f   mysqlclient:inflate.obj
 0001:0001bd90       _inflateEnd                0041cd90 f   mysqlclient:inflate.obj
 0001:0001c070       _my_hash_sort_latin1_de    0041d070 f   mysqlclient:ctype-latin1.obj
 0001:0001c110       _strmov                    0041d110 f   mysqlclient:strmov.obj
 0001:0001c130       _init_client_errs          0041d130 f   mysqlclient:errmsg.obj
 0001:0001c150       _my_vsnprintf              0041d150 f   mysqlclient:my_vsnprintf.obj
 0001:0001c460       _my_snprintf               0041d460 f   mysqlclient:my_vsnprintf.obj
 0001:0001c480       _strxnmov                  0041d480 f   mysqlclient:strxnmov.obj
 0001:0001c4d0       _vio_delete                0041d4d0 f   mysqlclient:vio.obj
 0001:0001c6e0       _vio_reset                 0041d6e0 f   mysqlclient:vio.obj
 0001:0001c710       _vio_new                   0041d710 f   mysqlclient:vio.obj
 0001:0001c790       _vio_new_win32pipe         0041d790 f   mysqlclient:vio.obj
 0001:0001c7e0       _vio_new_win32shared_memory 0041d7e0 f   mysqlclient:vio.obj
 0001:0001c880       _my_malloc                 0041d880 f   mysqlclient:my_malloc.obj
 0001:0001c900       _my_no_flags_free          0041d900 f   mysqlclient:my_malloc.obj
 0001:0001c920       _my_memdup                 0041d920 f   mysqlclient:my_malloc.obj
 0001:0001c950       _my_strdup                 0041d950 f   mysqlclient:my_malloc.obj
 0001:0001c9a0       _int2str                   0041d9a0 f   mysqlclient:int2str.obj
 0001:0001ca80       _int10_to_str              0041da80 f   mysqlclient:int2str.obj
 0001:0001cb30       _strxmov                   0041db30 f   mysqlclient:strxmov.obj
 0001:0001cb70       _init_alloc_root           0041db70 f   mysqlclient:my_alloc.obj
 0001:0001cbd0       _alloc_root                0041dbd0 f   mysqlclient:my_alloc.obj
 0001:0001cd00       _free_root                 0041dd00 f   mysqlclient:my_alloc.obj
 0001:0001cda0       _strmake_root              0041dda0 f   mysqlclient:my_alloc.obj
 0001:0001cde0       _strdup_root               0041dde0 f   mysqlclient:my_alloc.obj
 0001:0001ce10       _init_dynamic_array2       0041de10 f   mysqlclient:array.obj
 0001:0001ce90       _init_dynamic_array        0041de90 f   mysqlclient:array.obj
 0001:0001ceb0       _alloc_dynamic             0041deb0 f   mysqlclient:array.obj
 0001:0001cf40       _delete_dynamic            0041df40 f   mysqlclient:array.obj
 0001:0001cf80       _insert_dynamic            0041df80 f   mysqlclient:array.obj
 0001:0001d060       _get_defaults_options      0041e060 f   mysqlclient:default.obj
 0001:0001d130       _free_defaults             0041e130 f   mysqlclient:default.obj
 0001:0001dc30       _my_search_option_files    0041ec30 f   mysqlclient:default.obj
 0001:0001dea0       _my_load_defaults          0041eea0 f   mysqlclient:default.obj
 0001:0001e180       _find_type                 0041f180 f   mysqlclient:typelib.obj
 0001:0001e310       _strcend                   0041f310 f   mysqlclient:strcend.obj
 0001:0001e340       ??_GMD5@TaoCrypt@@UAEPAXI@Z 0041f340 f i mysqlclient:ssl.obj
 0001:0001e340       ??_EMD5@TaoCrypt@@UAEPAXI@Z 0041f340 f i mysqlclient:ssl.obj
 0001:0001e340       ??_ERIPEMD160@TaoCrypt@@UAEPAXI@Z 0041f340 f i mysqlclient:crypto_wrapper.obj
 0001:0001e340       ??_GHASHwithTransform@TaoCrypt@@UAEPAXI@Z 0041f340 f i mysqlclient:hash.cpp.obj
 0001:0001e340       ??_GSHA@TaoCrypt@@UAEPAXI@Z 0041f340 f i mysqlclient:crypto_wrapper.obj
 0001:0001e340       ??_ESHA@TaoCrypt@@UAEPAXI@Z 0041f340 f i mysqlclient:crypto_wrapper.obj
 0001:0001e340       ??_EHASHwithTransform@TaoCrypt@@UAEPAXI@Z 0041f340 f i mysqlclient:hash.cpp.obj
 0001:0001e340       ??_GHASH@TaoCrypt@@UAEPAXI@Z 0041f340 f i mysqlclient:ssl.obj
 0001:0001e340       ??_EHASH@TaoCrypt@@UAEPAXI@Z 0041f340 f i mysqlclient:ssl.obj
 0001:0001e340       ??_GRIPEMD160@TaoCrypt@@UAEPAXI@Z 0041f340 f i mysqlclient:crypto_wrapper.obj
 0001:0001e360       ?getPadSize@SHA@TaoCrypt@@UBEIXZ 0041f360 f i mysqlclient:crypto_wrapper.obj
 0001:0001e360       ?getPadSize@RIPEMD160@TaoCrypt@@UBEIXZ 0041f360 f i mysqlclient:crypto_wrapper.obj
 0001:0001e360       ?getPadSize@MD5@TaoCrypt@@UBEIXZ 0041f360 f i mysqlclient:ssl.obj
 0001:0001e370       _yaTLSv1_server_method     0041f370 f   mysqlclient:ssl.obj
 0001:0001e3b0       _yaTLSv1_client_method     0041f3b0 f   mysqlclient:ssl.obj
 0001:0001e3f0       _yaSSL_CTX_new             0041f3f0 f   mysqlclient:ssl.obj
 0001:0001e420       _yaSSL_new                 0041f420 f   mysqlclient:ssl.obj
 0001:0001e450       _yaSSL_set_fd              0041f450 f   mysqlclient:ssl.obj
 0001:0001e470       _yaSSL_get_fd              0041f470 f   mysqlclient:ssl.obj
 0001:0001e480       _yaSSL_connect             0041f480 f   mysqlclient:ssl.obj
 0001:0001e730       _yaSSL_write               0041f730 f   mysqlclient:ssl.obj
 0001:0001e740       _yaSSL_clear               0041f740 f   mysqlclient:ssl.obj
 0001:0001e760       _yaSSL_shutdown            0041f760 f   mysqlclient:ssl.obj
 0001:0001e7d0       _yaSSL_set_quiet_shutdown  0041f7d0 f   mysqlclient:ssl.obj
 0001:0001e7f0       _yaSSL_get_session         0041f7f0 f   mysqlclient:ssl.obj
 0001:0001e840       _yaSSL_SESSION_set_timeout 0041f840 f   mysqlclient:ssl.obj
 0001:0001e860       _yaSSL_CTX_set_cipher_list 0041f860 f   mysqlclient:ssl.obj
 0001:0001e880       _yaSSL_get_peer_certificate 0041f880 f   mysqlclient:ssl.obj
 0001:0001e8a0       _yaX509_NAME_oneline       0041f8a0 f   mysqlclient:ssl.obj
 0001:0001e920       _yaX509_get_subject_name   0041f920 f   mysqlclient:ssl.obj
 0001:0001e930       _yaSSL_CTX_set_tmp_dh      0041f930 f   mysqlclient:ssl.obj
 0001:0001e950       _yaSSL_CTX_set_verify      0041f950 f   mysqlclient:ssl.obj
 0001:0001e990       _yaSSL_CTX_set_default_verify_paths 0041f990 f   mysqlclient:ssl.obj
 0001:0001e990       _yaSSL_CTX_check_private_key 0041f990 f   mysqlclient:ssl.obj
 0001:0001e9a0       _yaDH_new                  0041f9a0 f   mysqlclient:ssl.obj
 0001:0001e9c0       _yaEVP_BytesToKey          0041f9c0 f   mysqlclient:ssl.obj
 0001:0001ec30       ??$ysDelete@UBulkCipher@yaSSL@@@yaSSL@@YAXPAUBulkCipher@0@@Z 0041fc30 f i mysqlclient:ssl.obj
 0001:0001ec50       _yaSSL_read                0041fc50 f   mysqlclient:ssl.obj
 0001:0001ec90       ??$ysDelete@VSSL_CTX@yaSSL@@@yaSSL@@YAXPAVSSL_CTX@0@@Z 0041fc90 f i mysqlclient:ssl.obj
 0001:0001ecb0       ??$StdReallocate@EV?$AllocatorWithCleanup@E@TaoCrypt@@@TaoCrypt@@YAPAEAAV?$AllocatorWithCleanup@E@0@PAEII_N@Z 0041fcb0 f i mysqlclient:ssl.obj
 0001:0001ed50       ??1SSL@yaSSL@@QAE@XZ       0041fd50 f i mysqlclient:ssl.obj
 0001:0001edb0       _yaSSL_CTX_free            0041fdb0 f   mysqlclient:ssl.obj
 0001:0001edc0       ?reset@?$auto_ptr@UBulkCipher@yaSSL@@@mySTL@@QAEXPAUBulkCipher@yaSSL@@@Z 0041fdc0 f i mysqlclient:ssl.obj
 0001:0001ede0       ??$ysDelete@UBIGNUM@yaSSL@@@yaSSL@@YAXPAUBIGNUM@0@@Z 0041fde0 f i mysqlclient:ssl.obj
 0001:0001ee00       ??0Source@TaoCrypt@@QAE@PBEI@Z 0041fe00 f i mysqlclient:ssl.obj
 0001:0001ee50       ??1Source@TaoCrypt@@QAE@XZ 0041fe50 f i mysqlclient:ssl.obj
 0001:0001ee50       ??1HexDecoder@TaoCrypt@@QAE@XZ 0041fe50 f i mysqlclient:ssl.obj
 0001:0001ee70       _yaDH_free                 0041fe70 f   mysqlclient:ssl.obj
 0001:0001eea0       ??$ysDelete@VSSL@yaSSL@@@yaSSL@@YAXPAVSSL@0@@Z 0041fea0 f i mysqlclient:ssl.obj
 0001:0001eec0       _yaSSL_free                0041fec0 f   mysqlclient:ssl.obj
 0001:0001eed0       ??0?$Block@EV?$AllocatorWithCleanup@E@TaoCrypt@@@TaoCrypt@@QAE@I@Z 0041fed0 f i mysqlclient:ssl.obj
 0001:0001ef20       ??0HexDecoder@TaoCrypt@@QAE@AAVSource@1@@Z 0041ff20 f i mysqlclient:ssl.obj
 0001:0001ef70       ?read_file@yaSSL@@YAHPAVSSL_CTX@1@PBDHW4CertType@1@@Z 0041ff70 f   mysqlclient:ssl.obj
 0001:0001f3c0       _yaSSL_CTX_use_certificate_file 004203c0 f   mysqlclient:ssl.obj
 0001:0001f3e0       _yaSSL_CTX_use_PrivateKey_file 004203e0 f   mysqlclient:ssl.obj
 0001:0001f400       _yaSSL_CTX_load_verify_locations 00420400 f   mysqlclient:ssl.obj
 0001:0001f540       _yaBN_bin2bn               00420540 f   mysqlclient:ssl.obj
 0001:0001f5b0       _my_charset_same           004205b0 f   mysqlclient:charset.obj
 0001:0001fc10       _get_charsets_dir          00420c10 f   mysqlclient:charset.obj
 0001:0001fcd0       _add_compiled_collation    00420cd0 f   mysqlclient:charset.obj
 0001:0001fda0       _get_collation_number      00420da0 f   mysqlclient:charset.obj
 0001:0001fdc0       _get_charset_number        00420dc0 f   mysqlclient:charset.obj
 0001:0001ff20       _get_charset_by_name       00420f20 f   mysqlclient:charset.obj
 0001:0001ffc0       _get_charset_by_csname     00420fc0 f   mysqlclient:charset.obj
 0001:00020070       _escape_string_for_mysql   00421070 f   mysqlclient:charset.obj
 0001:00020220       _fs_character_set          00421220 f   mysqlclient:charset.obj
 0001:000202b0       _escape_quotes_for_mysql   004212b0 f   mysqlclient:charset.obj
 0001:00020390       _my_error                  00421390 f   mysqlclient:my_error.obj
 0001:00020440       _my_printf_error           00421440 f   mysqlclient:my_error.obj
 0001:000204b0       _my_error_register         004214b0 f   mysqlclient:my_error.obj
 0001:00020530       _list_add                  00421530 f   mysqlclient:list.obj
 0001:00020560       _my_net_init               00421560 f   mysqlclient:net_serv.obj
 0001:000205e0       _net_end                   004215e0 f   mysqlclient:net_serv.obj
 0001:00020600       _net_realloc               00421600 f   mysqlclient:net_serv.obj
 0001:000206f0       _net_clear                 004216f0 f   mysqlclient:net_serv.obj
 0001:00020760       _net_real_write            00421760 f   mysqlclient:net_serv.obj
 0001:000209f0       _my_net_read               004219f0 f   mysqlclient:net_serv.obj
 0001:00020bc0       _my_net_set_read_timeout   00421bc0 f   mysqlclient:net_serv.obj
 0001:00020bf0       _my_net_set_write_timeout  00421bf0 f   mysqlclient:net_serv.obj
 0001:00020c20       _net_flush                 00421c20 f   mysqlclient:net_serv.obj
 0001:00020d40       _my_net_write              00421d40 f   mysqlclient:net_serv.obj
 0001:00020e10       _net_write_command         00421e10 f   mysqlclient:net_serv.obj
 0001:00020f90       _strmake                   00421f90 f   mysqlclient:strmake.obj
 0001:00020fc0       _net_field_length@4        00421fc0 f   mysqlclient:pack.obj
 0001:00021020       _net_field_length_ll       00422020 f   mysqlclient:pack.obj
 0001:00021080       _randominit                00422080 f   mysqlclient:password.obj
 0001:000210c0       _my_rnd                    004220c0 f   mysqlclient:password.obj
 0001:00021100       _hash_password             00422100 f   mysqlclient:password.obj
 0001:00021180       _scramble_323              00422180 f   mysqlclient:password.obj
 0001:000212c0       _scramble                  004222c0 f   mysqlclient:password.obj
 0001:000213c0       _vio_ssl_read              004223c0 f   mysqlclient:viossl.obj
 0001:000213e0       _vio_ssl_write             004223e0 f   mysqlclient:viossl.obj
 0001:00021400       _vio_ssl_close             00422400 f   mysqlclient:viossl.obj
 0001:00021440       _vio_ssl_delete            00422440 f   mysqlclient:viossl.obj
 0001:00021550       _sslconnect                00422550 f   mysqlclient:viossl.obj
 0001:00021570       _vio_ssl_blocking          00422570 f   mysqlclient:viossl.obj
 0001:00021610       _sslGetErrString           00422610 f   mysqlclient:viosslfactories.obj
 0001:00021850       _new_VioSSLConnectorFd     00422850 f   mysqlclient:viosslfactories.obj
 0001:000218b0       _my_multi_malloc           004228b0 f   mysqlclient:mulalloc.obj
 0001:00021920       _strend                    00422920 f   mysqlclient:strend.obj
 0001:00021940       _vio_read                  00422940 f   mysqlclient:viosocket.obj
 0001:00021960       _vio_read_buff             00422960 f   mysqlclient:viosocket.obj
 0001:00021a00       _vio_write                 00422a00 f   mysqlclient:viosocket.obj
 0001:00021a20       _vio_blocking              00422a20 f   mysqlclient:viosocket.obj
 0001:00021a90       _vio_is_blocking           00422a90 f   mysqlclient:viosocket.obj
 0001:00021aa0       _vio_fastsend              00422aa0 f   mysqlclient:viosocket.obj
 0001:00021ad0       _vio_keepalive             00422ad0 f   mysqlclient:viosocket.obj
 0001:00021b10       _vio_should_retry          00422b10 f   mysqlclient:viosocket.obj
 0001:00021b40       _vio_was_interrupted       00422b40 f   mysqlclient:viosocket.obj
 0001:00021b70       _mysql_socket_shutdown     00422b70 f   mysqlclient:viosocket.obj
 0001:00021c40       _vio_close                 00422c40 f   mysqlclient:viosocket.obj
 0001:00021c90       _vio_fd                    00422c90 f   mysqlclient:viosocket.obj
 0001:00021ca0       _vio_peer_addr             00422ca0 f   mysqlclient:viosocket.obj
 0001:00021d20       _vio_in_addr               00422d20 f   mysqlclient:viosocket.obj
 0001:00021d40       _vio_timeout               00422d40 f   mysqlclient:viosocket.obj
 0001:00021dc0       _vio_read_pipe             00422dc0 f   mysqlclient:viosocket.obj
 0001:00021e10       _vio_write_pipe            00422e10 f   mysqlclient:viosocket.obj
 0001:00021e60       _vio_close_pipe            00422e60 f   mysqlclient:viosocket.obj
 0001:00021ea0       _vio_win32_timeout         00422ea0 f   mysqlclient:viosocket.obj
 0001:00021ee0       _vio_read_shared_memory    00422ee0 f   mysqlclient:viosocket.obj
 0001:00021fc0       _vio_write_shared_memory   00422fc0 f   mysqlclient:viosocket.obj
 0001:00022070       _vio_close_shared_memory   00423070 f   mysqlclient:viosocket.obj
 0001:00022120       _my_inet_ntoa              00423120 f   mysqlclient:my_net.obj
 0001:00022150       _my_gethostbyname_r        00423150 f   mysqlclient:my_net.obj
 0001:00022180       _my_gethostbyname_r_free   00423180 f   mysqlclient:my_net.obj
 0001:000224f0       _my_init                   004234f0 f   mysqlclient:my_init.obj
 0001:000225c0       _my_thread_global_end      004235c0 f   mysqlclient:my_thr_init.obj
 0001:000226d0       __my_thread_var            004236d0 f   mysqlclient:my_thr_init.obj
 0001:000226e0       _my_thread_init            004236e0 f   mysqlclient:my_thr_init.obj
 0001:00022780       _my_thread_global_init     00423780 f   mysqlclient:my_thr_init.obj
 0001:00022850       _yaX509_free               00423850 f   mysqlclient:ssl.obj
 0001:00022850       _my_xml_parser_free        00423850 f   mysqlclient:xml.obj
 0001:00022850       _yaSSL_load_error_strings  00423850 f   mysqlclient:ssl.obj
 0001:00022850       ??1Socket@yaSSL@@QAE@XZ    00423850 f   mysqlclient:socket_wrapper.obj
 0001:00022850       _yaOpenSSL_add_all_algorithms 00423850 f   mysqlclient:ssl.obj
 0001:00022850       _my_parameter_handler      00423850 f   mysqlclient:my_init.obj
 0001:00022850       ??1Log@yaSSL@@QAE@XZ       00423850 f   mysqlclient:log.obj
 0001:00022850       _init_glob_errs            00423850 f   mysqlclient:errors.obj
 0001:00022860       _my_close                  00423860 f   mysqlclient:my_open.obj
 0001:00022920       _my_register_filename      00423920 f   mysqlclient:my_open.obj
 0001:00022a30       _my_sopen                  00423a30 f   mysqlclient:my_open.obj
 0001:00022d00       _my_open                   00423d00 f   mysqlclient:my_open.obj
 0001:00022d70       _strlength                 00423d70 f   mysqlclient:mf_format.obj
 0001:00022dc0       _fn_format                 00423dc0 f   mysqlclient:mf_format.obj
 0001:00023000       _my_read                   00424000 f   mysqlclient:my_read.obj
 0001:00023130       _my_strtoll10              00424130 f   mysqlclient:my_strtoll10.obj
 0001:00023400       _bmove_upp                 00424400 f   mysqlclient:bmove_upp.obj
 0001:00023430       _adler32                   00424430 f   mysqlclient:adler32.obj
 0001:000236b0       _compress2                 004246b0 f   mysqlclient:compress.obj
 0001:00023760       _compress                  00424760 f   mysqlclient:compress.obj
 0001:000249d0       __tr_init                  004259d0 f   mysqlclient:trees.obj
 0001:00024d90       __tr_stored_block          00425d90 f   mysqlclient:trees.obj
 0001:00024e30       __tr_align                 00425e30 f   mysqlclient:trees.obj
 0001:00025020       __tr_flush_block           00426020 f   mysqlclient:trees.obj
 0001:000254d0       _crc32                     004264d0 f   mysqlclient:crc32.obj
 0001:000254f0       _zcalloc                   004264f0 f   mysqlclient:zutil.obj
 0001:00025510       _zcfree                    00426510 f   mysqlclient:zutil.obj
 0001:00025520       _inflate_fast              00426520 f   mysqlclient:inffast.obj
 0001:000259e0       _inflate_table             004269e0 f   mysqlclient:inftrees.obj
 0001:00025fa0       _my_lengthsp_binary        00426fa0 f   mysqlclient:ctype-bin.obj
 0001:00026030       _my_hash_sort_8bit_bin     00427030 f   mysqlclient:ctype-bin.obj
 0001:00026090       _my_hash_sort_bin          00427090 f   mysqlclient:ctype-bin.obj
 0001:000262c0       _my_wildcmp_bin            004272c0 f   mysqlclient:ctype-bin.obj
 0001:00026420       _my_strnxfrmlen_simple     00427420 f   mysqlclient:ctype-simple.obj
 0001:00026440       _my_strnxfrm_simple        00427440 f   mysqlclient:ctype-simple.obj
 0001:000264c0       _my_strnncoll_simple       004274c0 f   mysqlclient:ctype-simple.obj
 0001:00026540       _my_strnncollsp_simple     00427540 f   mysqlclient:ctype-simple.obj
 0001:00026600       _my_caseup_str_8bit        00427600 f   mysqlclient:ctype-simple.obj
 0001:00026640       _my_casedn_str_8bit        00427640 f   mysqlclient:ctype-simple.obj
 0001:00026680       _my_caseup_8bit            00427680 f   mysqlclient:ctype-simple.obj
 0001:000266b0       _my_casedn_8bit            004276b0 f   mysqlclient:ctype-simple.obj
 0001:000266e0       _my_strcasecmp_8bit        004276e0 f   mysqlclient:ctype-simple.obj
 0001:00026740       _my_mb_wc_8bit             00427740 f   mysqlclient:ctype-simple.obj
 0001:00026780       _my_wc_mb_8bit             00427780 f   mysqlclient:ctype-simple.obj
 0001:000267e0       _my_snprintf_8bit          004277e0 f   mysqlclient:ctype-simple.obj
 0001:00026800       _my_hash_sort_simple       00427800 f   mysqlclient:ctype-simple.obj
 0001:00026880       _my_strntol_8bit           00427880 f   mysqlclient:ctype-simple.obj
 0001:000269e0       _my_strntoul_8bit          004279e0 f   mysqlclient:ctype-simple.obj
 0001:00026b20       _my_strntoll_8bit          00427b20 f   mysqlclient:ctype-simple.obj
 0001:00026ce0       _my_strntoull_8bit         00427ce0 f   mysqlclient:ctype-simple.obj
 0001:00026e70       _my_strntod_8bit           00427e70 f   mysqlclient:ctype-simple.obj
 0001:00026ea0       _my_long10_to_str_8bit     00427ea0 f   mysqlclient:ctype-simple.obj
 0001:00026f70       _my_longlong10_to_str_8bit 00427f70 f   mysqlclient:ctype-simple.obj
 0001:00027270       _my_wildcmp_8bit           00428270 f   mysqlclient:ctype-simple.obj
 0001:000272b0       _my_like_range_simple      004282b0 f   mysqlclient:ctype-simple.obj
 0001:000273d0       _my_scan_8bit              004283d0 f   mysqlclient:ctype-simple.obj
 0001:00027440       _my_fill_8bit              00428440 f   mysqlclient:ctype-simple.obj
 0001:00027460       _my_numchars_8bit          00428460 f   mysqlclient:ctype-simple.obj
 0001:00027460       _my_numcells_8bit          00428460 f   mysqlclient:ctype-simple.obj
 0001:00027470       _my_charpos_8bit           00428470 f   mysqlclient:ctype-simple.obj
 0001:00027480       _my_well_formed_len_8bit   00428480 f   mysqlclient:ctype-simple.obj
 0001:000274a0       _my_lengthsp_8bit          004284a0 f   mysqlclient:ctype-simple.obj
 0001:000274c0       _my_instr_simple           004284c0 f   mysqlclient:ctype-simple.obj
 0001:00027980       _my_strtoll10_8bit         00428980 f   mysqlclient:ctype-simple.obj
 0001:000279a0       _my_mb_ctype_8bit          004289a0 f   mysqlclient:ctype-simple.obj
 0001:000279e0       _my_strntoull10rnd_8bit    004289e0 f   mysqlclient:ctype-simple.obj
 0001:00027e80       ?IsMontgomeryRepresentation@MontgomeryRepresentation@TaoCrypt@@UBE_NXZ 00428e80 f   mysqlclient:integer.obj
 0001:00027e80       _my_propagate_simple       00428e80 f   mysqlclient:ctype-simple.obj
 0001:00027e90       _my_propagate_complex      00428e90 f   mysqlclient:ctype-simple.obj
 0001:00027e90       _vio_poll_read             00428e90 f   mysqlclient:viosocket.obj
 0001:00027e90       ?IsMontgomeryRepresentation@ModularArithmetic@TaoCrypt@@UBE_NXZ 00428e90 f   mysqlclient:integer.obj
 0001:00027e90       ?InversionIsFast@AbstractGroup@TaoCrypt@@UBE_NXZ 00428e90 f   mysqlclient:integer.obj
 0001:000281b0       _my_wildcmp_unicode        004291b0 f   mysqlclient:ctype-utf8.obj
 0001:000290b0       _strnmov                   0042a0b0 f   mysqlclient:strnmov.obj
 0001:000290e0       ?c32to24@yaSSL@@YAXIAAY02E@Z 0042a0e0 f   mysqlclient:yassl_int.obj
 0001:00029100       ?c24to32@yaSSL@@YAXQBEAAI@Z 0042a100 f   mysqlclient:yassl_int.obj
 0001:00029130       ?c24to32@yaSSL@@YAIQBE@Z   0042a130 f   mysqlclient:yassl_int.obj
 0001:00029150       ?ato16@yaSSL@@YAXPBEAAG@Z  0042a150 f   mysqlclient:yassl_int.obj
 0001:00029170       ?c16toa@yaSSL@@YAXGPAE@Z   0042a170 f   mysqlclient:yassl_int.obj
 0001:00029180       ?c32toa@yaSSL@@YAXIPAE@Z   0042a180 f   mysqlclient:yassl_int.obj
 0001:000291b0       ??0States@yaSSL@@QAE@XZ    0042a1b0 f   mysqlclient:yassl_int.obj
 0001:000291e0       ?What@States@yaSSL@@QBE?AW4YasslError@2@XZ 0042a1e0 f   mysqlclient:yassl_int.obj
 0001:000291f0       ?MultiplicativeGroup@AbstractRing@TaoCrypt@@UBEABVAbstractGroup@2@XZ 0042a1f0 f   mysqlclient:integer.obj
 0001:000291f0       ?useHandShake@States@yaSSL@@QAEAAW4HandShakeState@2@XZ 0042a1f0 f   mysqlclient:yassl_int.obj
 0001:000291f0       ?getHandShake@States@yaSSL@@QBEABW4HandShakeState@2@XZ 0042a1f0 f   mysqlclient:yassl_int.obj
 0001:00029200       ?use_SHA@sslHashes@yaSSL@@QAEAAVSHA@2@XZ 0042a200 f   mysqlclient:yassl_int.obj
 0001:00029200       ?useClient@States@yaSSL@@QAEAAW4ClientState@2@XZ 0042a200 f   mysqlclient:yassl_int.obj
 0001:00029200       ?get_SHA@sslHashes@yaSSL@@QBEABVSHA@2@XZ 0042a200 f   mysqlclient:yassl_int.obj
 0001:00029200       ?set_md5@Finished@yaSSL@@QAEPAEXZ 0042a200 f   mysqlclient:yassl_imp.obj
 0001:00029200       ?getClient@States@yaSSL@@QBEABW4ClientState@2@XZ 0042a200 f   mysqlclient:yassl_int.obj
 0001:00029200       ?useData@Buffers@yaSSL@@QAEAAV?$list@PAVinput_buffer@yaSSL@@@mySTL@@XZ 0042a200 f   mysqlclient:yassl_int.obj
 0001:00029200       ?getData@Buffers@yaSSL@@QBEABV?$list@PAVinput_buffer@yaSSL@@@mySTL@@XZ 0042a200 f   mysqlclient:yassl_int.obj
 0001:00029210       ?SetError@States@yaSSL@@QAEXW4YasslError@2@@Z 0042a210 f   mysqlclient:yassl_int.obj
 0001:00029220       ?getClientKey@sslFactory@yaSSL@@QBEABV?$Factory@UClientKeyBase@yaSSL@@HP6APAU12@XZ@2@XZ 0042a220 f   mysqlclient:yassl_int.obj
 0001:00029230       ?SetError@SSL@yaSSL@@QAEXW4YasslError@2@@Z 0042a230 f   mysqlclient:yassl_int.obj
 0001:00029240       ?SetQuietShutdown@SSL@yaSSL@@QAEX_N@Z 0042a240 f   mysqlclient:yassl_int.obj
 0001:00029250       ?useBuffers@SSL@yaSSL@@QAEAAVBuffers@2@XZ 0042a250 f   mysqlclient:yassl_int.obj
 0001:00029310       ?order_error@SSL@yaSSL@@QAEXXZ 0042a310 f   mysqlclient:yassl_int.obj
 0001:00029320       ?GetError@SSL@yaSSL@@QBE?AW4YasslError@2@XZ 0042a320 f   mysqlclient:yassl_int.obj
 0001:00029330       ?GetQuietShutdown@SSL@yaSSL@@QBE_NXZ 0042a330 f   mysqlclient:yassl_int.obj
 0001:00029340       ?useSecurity@SSL@yaSSL@@QAEAAVSecurity@2@XZ 0042a340 f   mysqlclient:yassl_int.obj
 0001:00029340       ?getSecurity@SSL@yaSSL@@QBEABVSecurity@2@XZ 0042a340 f   mysqlclient:yassl_int.obj
 0001:00029350       ?getStates@SSL@yaSSL@@QBEABVStates@2@XZ 0042a350 f   mysqlclient:yassl_int.obj
 0001:00029350       ?useStates@SSL@yaSSL@@QAEAAVStates@2@XZ 0042a350 f   mysqlclient:yassl_int.obj
 0001:00029360       ?useHashes@SSL@yaSSL@@QAEAAVsslHashes@2@XZ 0042a360 f   mysqlclient:yassl_int.obj
 0001:00029360       ?getHashes@SSL@yaSSL@@QBEABVsslHashes@2@XZ 0042a360 f   mysqlclient:yassl_int.obj
 0001:00029370       ?getSocket@SSL@yaSSL@@QBEABVSocket@2@XZ 0042a370 f   mysqlclient:yassl_int.obj
 0001:00029370       ?useSocket@SSL@yaSSL@@QAEAAVSocket@2@XZ 0042a370 f   mysqlclient:yassl_int.obj
 0001:00029380       ?useLog@SSL@yaSSL@@QAEAAVLog@2@XZ 0042a380 f   mysqlclient:yassl_int.obj
 0001:00029390       ?HasData@SSL@yaSSL@@QBE_NXZ 0042a390 f   mysqlclient:yassl_int.obj
 0001:000293a0       ??0SSL_SESSION@yaSSL@@QAE@AAVRandomPool@1@@Z 0042a3a0 f   mysqlclient:yassl_int.obj
 0001:000293f0       ?GetSecret@SSL_SESSION@yaSSL@@QBEPBEXZ 0042a3f0 f   mysqlclient:yassl_int.obj
 0001:000293f0       ?GetSubGroupGenerator@DSA_PublicKey@TaoCrypt@@QBEABVInteger@2@XZ 0042a3f0 f   mysqlclient:dsa.obj
 0001:00029400       ?GetSuite@SSL_SESSION@yaSSL@@QBEPBEXZ 0042a400 f   mysqlclient:yassl_int.obj
 0001:00029410       ?GetPeerX509@SSL_SESSION@yaSSL@@QBEPAVX509@2@XZ 0042a410 f   mysqlclient:yassl_int.obj
 0001:00029420       ?GetBornOn@SSL_SESSION@yaSSL@@QBEIXZ 0042a420 f   mysqlclient:yassl_int.obj
 0001:00029430       ?GetTimeOut@SSL_SESSION@yaSSL@@QBEIXZ 0042a430 f   mysqlclient:yassl_int.obj
 0001:00029440       ?SetTimeOut@SSL_SESSION@yaSSL@@QAEXI@Z 0042a440 f   mysqlclient:yassl_int.obj
 0001:00029450       ??Rsess_match@yassl_int_cpp_local2@yaSSL@@QAE_NPAVSSL_SESSION@2@@Z 0042a450 f i mysqlclient:yassl_int.obj
 0001:000294f0       ?GetSelf@yassl_int_cpp_local2@yaSSL@@YAKXZ 0042a4f0 f   mysqlclient:yassl_int.obj
 0001:00029500       ??0SSL_METHOD@yaSSL@@QAE@W4ConnectionEnd@1@UProtocolVersion@1@_N@Z 0042a500 f   mysqlclient:yassl_int.obj
 0001:00029530       ?getVersion@SSL_METHOD@yaSSL@@QBE?AUProtocolVersion@2@XZ 0042a530 f   mysqlclient:yassl_int.obj
 0001:00029540       ?setVerifyPeer@SSL_METHOD@yaSSL@@QAEXXZ 0042a540 f   mysqlclient:yassl_int.obj
 0001:00029550       ?setVerifyNone@SSL_METHOD@yaSSL@@QAEXXZ 0042a550 f   mysqlclient:yassl_int.obj
 0001:00029560       ?setFailNoCert@SSL_METHOD@yaSSL@@QAEXXZ 0042a560 f   mysqlclient:yassl_int.obj
 0001:00029570       ?verifyPeer@SSL_METHOD@yaSSL@@QBE_NXZ 0042a570 f   mysqlclient:yassl_int.obj
 0001:00029580       ?verifyNone@SSL_METHOD@yaSSL@@QBE_NXZ 0042a580 f   mysqlclient:yassl_int.obj
 0001:00029590       ?failNoCert@SSL_METHOD@yaSSL@@QBE_NXZ 0042a590 f   mysqlclient:yassl_int.obj
 0001:000295a0       ?multipleProtocol@SSL_METHOD@yaSSL@@QBE_NXZ 0042a5a0 f   mysqlclient:yassl_int.obj
 0001:000295b0       ?use_random@Crypto@yaSSL@@QAEAAVRandomPool@2@XZ 0042a5b0 f   mysqlclient:yassl_int.obj
 0001:000295b0       ?GetCA_List@SSL_CTX@yaSSL@@QBEABV?$list@PAVx509@yaSSL@@@mySTL@@XZ 0042a5b0 f   mysqlclient:yassl_int.obj
 0001:000295b0       ?get_random@Crypto@yaSSL@@QBEABVRandomPool@2@XZ 0042a5b0 f   mysqlclient:yassl_int.obj
 0001:000295b0       ?getServer@States@yaSSL@@QBEABW4ServerState@2@XZ 0042a5b0 f   mysqlclient:yassl_int.obj
 0001:000295b0       ?useServer@States@yaSSL@@QAEAAW4ServerState@2@XZ 0042a5b0 f   mysqlclient:yassl_int.obj
 0001:000295b0       ?getHandShake@sslFactory@yaSSL@@QBEABV?$Factory@VHandShakeBase@yaSSL@@HP6APAV12@XZ@2@XZ 0042a5b0 f   mysqlclient:yassl_int.obj
 0001:000295c0       ?getVerifyCallback@SSL_CTX@yaSSL@@QBEQ6AHHPAUX509_STORE_CTX@2@@ZXZ 0042a5c0 f   mysqlclient:yassl_int.obj
 0001:000295d0       ?GetCiphers@SSL_CTX@yaSSL@@QBEABUCiphers@2@XZ 0042a5d0 f   mysqlclient:yassl_int.obj
 0001:000295d0       ?getServerKey@sslFactory@yaSSL@@QBEABV?$Factory@UServerKeyBase@yaSSL@@HP6APAU12@XZ@2@XZ 0042a5d0 f   mysqlclient:yassl_int.obj
 0001:000295d0       ?set_sha@Finished@yaSSL@@QAEPAEXZ 0042a5d0 f   mysqlclient:yassl_imp.obj
 0001:000295e0       ?GetDH_Parms@SSL_CTX@yaSSL@@QBEABUDH_Parms@2@XZ 0042a5e0 f   mysqlclient:yassl_int.obj
 0001:000295f0       ?GetPasswordCb@SSL_CTX@yaSSL@@QBEP6AHPADHHPAX@ZXZ 0042a5f0 f   mysqlclient:yassl_int.obj
 0001:00029600       ?GetUserData@SSL_CTX@yaSSL@@QBEPAXXZ 0042a600 f   mysqlclient:yassl_int.obj
 0001:00029610       ?GetSessionCacheOff@SSL_CTX@yaSSL@@QBE_NXZ 0042a610 f   mysqlclient:yassl_int.obj
 0001:00029620       ?GetSessionCacheFlushOff@SSL_CTX@yaSSL@@QBE_NXZ 0042a620 f   mysqlclient:yassl_int.obj
 0001:00029630       ?setVerifyPeer@SSL_CTX@yaSSL@@QAEXXZ 0042a630 f   mysqlclient:yassl_int.obj
 0001:00029640       ?setVerifyNone@SSL_CTX@yaSSL@@QAEXXZ 0042a640 f   mysqlclient:yassl_int.obj
 0001:00029650       ?setFailNoCert@SSL_CTX@yaSSL@@QAEXXZ 0042a650 f   mysqlclient:yassl_int.obj
 0001:00029660       ?setVerifyCallback@SSL_CTX@yaSSL@@QAEXP6AHHPAUX509_STORE_CTX@2@@Z@Z 0042a660 f   mysqlclient:yassl_int.obj
 0001:00029670       ?SetDH@SSL_CTX@yaSSL@@QAE_NABUDH@2@@Z 0042a670 f   mysqlclient:yassl_int.obj
 0001:000296b0       ?SetCipherList@SSL_CTX@yaSSL@@QAE_NPBD@Z 0042a6b0 f   mysqlclient:yassl_int.obj
 0001:000297f0       ??0Crypto@yaSSL@@QAE@XZ    0042a7f0 f   mysqlclient:yassl_int.obj
 0001:00029820       ?get_certManager@Crypto@yaSSL@@QBEABVCertManager@2@XZ 0042a820 f   mysqlclient:yassl_int.obj
 0001:00029820       ?get_verify@sslHashes@yaSSL@@QBEABVFinished@2@XZ 0042a820 f   mysqlclient:yassl_int.obj
 0001:00029820       ?GetSubGroupOrder@DSA_PublicKey@TaoCrypt@@QBEABVInteger@2@XZ 0042a820 f   mysqlclient:dsa.obj
 0001:00029820       ?use_certManager@Crypto@yaSSL@@QAEAAVCertManager@2@XZ 0042a820 f   mysqlclient:yassl_int.obj
 0001:00029820       ?GetConnect@States@yaSSL@@QBEABW4ConnectState@2@XZ 0042a820 f   mysqlclient:yassl_int.obj
 0001:00029820       ?UseConnect@States@yaSSL@@QAEAAW4ConnectState@2@XZ 0042a820 f   mysqlclient:yassl_int.obj
 0001:00029820       ?use_verify@sslHashes@yaSSL@@QAEAAVFinished@2@XZ 0042a820 f   mysqlclient:yassl_int.obj
 0001:00029830       ?SetDH@Crypto@yaSSL@@QAEXPAVDiffieHellman@2@@Z 0042a830 f   mysqlclient:yassl_int.obj
 0001:00029840       ?SetDH@Crypto@yaSSL@@QAEXABUDH_Parms@2@@Z 0042a840 f   mysqlclient:yassl_int.obj
 0001:00029880       ?use_certVerify@sslHashes@yaSSL@@QAEAAUHashes@2@XZ 0042a880 f   mysqlclient:yassl_int.obj
 0001:00029880       ?get_certVerify@sslHashes@yaSSL@@QBEABUHashes@2@XZ 0042a880 f   mysqlclient:yassl_int.obj
 0001:00029890       ?use_connection@Security@yaSSL@@QAEAAUConnection@2@XZ 0042a890 f   mysqlclient:yassl_int.obj
 0001:00029890       ?getCrypto@SSL@yaSSL@@QBEABVCrypto@2@XZ 0042a890 f   mysqlclient:yassl_int.obj
 0001:00029890       ?GetString@StringHolder@yaSSL@@QAEPAUASN1_STRING@2@XZ 0042a890 f   mysqlclient:yassl_int.obj
 0001:00029890       ?get_connection@Security@yaSSL@@QBEABUConnection@2@XZ 0042a890 f   mysqlclient:yassl_int.obj
 0001:00029890       ?useRecord@States@yaSSL@@QAEAAW4RecordLayerState@2@XZ 0042a890 f   mysqlclient:yassl_int.obj
 0001:00029890       ?get_MD5@sslHashes@yaSSL@@QBEABVMD5@2@XZ 0042a890 f   mysqlclient:yassl_int.obj
 0001:00029890       ?GetID@SSL_SESSION@yaSSL@@QBEPBEXZ 0042a890 f   mysqlclient:yassl_int.obj
 0001:00029890       ?GetModulus@DSA_PublicKey@TaoCrypt@@QBEABVInteger@2@XZ 0042a890 f   mysqlclient:dsa.obj
 0001:00029890       ?useCrypto@SSL@yaSSL@@QAEAAVCrypto@2@XZ 0042a890 f   mysqlclient:yassl_int.obj
 0001:00029890       ?getRecord@States@yaSSL@@QBEABW4RecordLayerState@2@XZ 0042a890 f   mysqlclient:yassl_int.obj
 0001:00029890       ?use_MD5@sslHashes@yaSSL@@QAEAAVMD5@2@XZ 0042a890 f   mysqlclient:yassl_int.obj
 0001:00029890       ?GetIssuer@X509@yaSSL@@QAEPAVX509_NAME@2@XZ 0042a890 f   mysqlclient:yassl_int.obj
 0001:00029890       ?getMessage@sslFactory@yaSSL@@QBEABV?$Factory@UMessage@yaSSL@@HP6APAU12@XZ@2@XZ 0042a890 f   mysqlclient:yassl_int.obj
 0001:000298a0       ?SetOutput@Buffers@yaSSL@@QAEXPAVoutput_buffer@2@@Z 0042a8a0 f   mysqlclient:yassl_int.obj
 0001:000298b0       ?SetRawInput@Buffers@yaSSL@@QAEXPAVinput_buffer@2@@Z 0042a8b0 f   mysqlclient:yassl_int.obj
 0001:000298c0       ?TakeRawInput@Buffers@yaSSL@@QAEPAVinput_buffer@2@XZ 0042a8c0 f   mysqlclient:yassl_int.obj
 0001:000298d0       ?TakeOutput@Buffers@yaSSL@@QAEPAVoutput_buffer@2@XZ 0042a8d0 f   mysqlclient:yassl_int.obj
 0001:000298e0       ?useHandShake@Buffers@yaSSL@@QAEAAV?$list@PAVoutput_buffer@yaSSL@@@mySTL@@XZ 0042a8e0 f   mysqlclient:yassl_int.obj
 0001:000298e0       ?getHandShake@Buffers@yaSSL@@QBEABV?$list@PAVoutput_buffer@yaSSL@@@mySTL@@XZ 0042a8e0 f   mysqlclient:yassl_int.obj
 0001:000298e0       ?GetSubject@X509@yaSSL@@QAEPAVX509_NAME@2@XZ 0042a8e0 f   mysqlclient:yassl_int.obj
 0001:000298f0       ?GetContext@Security@yaSSL@@QBEPBVSSL_CTX@2@XZ 0042a8f0 f   mysqlclient:yassl_int.obj
 0001:00029900       ?get_resuming@Security@yaSSL@@QBE_NXZ 0042a900 f   mysqlclient:yassl_int.obj
 0001:00029910       ?use_parms@Security@yaSSL@@QAEAAUParameters@2@XZ 0042a910 f   mysqlclient:yassl_int.obj
 0001:00029910       ?get_parms@Security@yaSSL@@QBEABUParameters@2@XZ 0042a910 f   mysqlclient:yassl_int.obj
 0001:00029920       ?get_resume@Security@yaSSL@@QBEABVSSL_SESSION@2@XZ 0042a920 f   mysqlclient:yassl_int.obj
 0001:00029920       ?use_resume@Security@yaSSL@@QAEAAVSSL_SESSION@2@XZ 0042a920 f   mysqlclient:yassl_int.obj
 0001:00029930       ?set_resuming@Security@yaSSL@@QAEX_N@Z 0042a930 f   mysqlclient:yassl_int.obj
 0001:00029940       ??0X509_NAME@yaSSL@@QAE@PBDI@Z 0042a940 f   mysqlclient:yassl_int.obj
 0001:00029980       ??0StringHolder@yaSSL@@QAE@PBDH@Z 0042a980 f   mysqlclient:yassl_int.obj
 0001:000299c0       ?SetCompression@SSL@yaSSL@@QAEHXZ 0042a9c0 f   mysqlclient:yassl_int.obj
 0001:000299c0       ?Compress@yaSSL@@YAHPBEHAAVinput_buffer@1@@Z 0042a9c0 f   mysqlclient:yassl_int.obj
 0001:000299c0       ?DeCompress@yaSSL@@YAHAAVinput_buffer@1@H0@Z 0042a9c0 f   mysqlclient:yassl_int.obj
 0001:000299d0       ??$GetArrayMemory@E@mySTL@@YAPAEI@Z 0042a9d0 f i mysqlclient:yassl_int.obj
 0001:000299e0       ??$find_if@Viterator@?$list@PAVSSL_SESSION@yaSSL@@@mySTL@@Usess_match@yassl_int_cpp_local2@yaSSL@@@mySTL@@YA?AViterator@?$list@PAVSSL_SESSION@yaSSL@@@0@V120@0Usess_match@yassl_int_cpp_local2@yaSSL@@@Z 0042a9e0 f i mysqlclient:yassl_int.obj
 0001:00029a20       ??$ysDelete@UDigest@yaSSL@@@yaSSL@@YAXPAUDigest@0@@Z 0042aa20 f i mysqlclient:yassl_int.obj
 0001:00029a20       ??$ysDelete@UMessage@yaSSL@@@yaSSL@@YAXPAUMessage@0@@Z 0042aa20 f i mysqlclient:handshake.obj
 0001:00029a40       ??$FreeArrayMemory@UWindowSlider@TaoCrypt@@@mySTL@@YAXPAUWindowSlider@TaoCrypt@@@Z 0042aa40 f i mysqlclient:algebra.obj
 0001:00029a40       ??$FreeArrayMemory@U?$pair@HP6APAVHandShakeBase@yaSSL@@XZ@mySTL@@@mySTL@@YAXPAU?$pair@HP6APAVHandShakeBase@yaSSL@@XZ@0@@Z 0042aa40 f i mysqlclient:yassl_int.obj
 0001:00029a40       ??$FreeArrayMemory@U?$pair@HP6APAUClientKeyBase@yaSSL@@XZ@mySTL@@@mySTL@@YAXPAU?$pair@HP6APAUClientKeyBase@yaSSL@@XZ@0@@Z 0042aa40 f i mysqlclient:yassl_int.obj
 0001:00029a40       ??$FreeArrayMemory@X@mySTL@@YAXPAX@Z 0042aa40 f i mysqlclient:yassl_int.obj
 0001:00029a40       ??$FreeArrayMemory@U?$pair@HP6APAUServerKeyBase@yaSSL@@XZ@mySTL@@@mySTL@@YAXPAU?$pair@HP6APAUServerKeyBase@yaSSL@@XZ@0@@Z 0042aa40 f i mysqlclient:yassl_int.obj
 0001:00029a40       ??$FreeArrayMemory@U?$pair@HP6APAUMessage@yaSSL@@XZ@mySTL@@@mySTL@@YAXPAU?$pair@HP6APAUMessage@yaSSL@@XZ@0@@Z 0042aa40 f i mysqlclient:yassl_int.obj
 0001:00029a40       ??$FreeArrayMemory@VInteger@TaoCrypt@@@mySTL@@YAXPAVInteger@TaoCrypt@@@Z 0042aa40 f i mysqlclient:algebra.obj
 0001:00029a40       ??$FreeArrayMemory@V?$vector@VInteger@TaoCrypt@@@mySTL@@@mySTL@@YAXPAV?$vector@VInteger@TaoCrypt@@@0@@Z 0042aa40 f i mysqlclient:algebra.obj
 0001:00029a50       ?set_pending@SSL@yaSSL@@QAEXE@Z 0042aa50 f   mysqlclient:yassl_int.obj
 0001:0002a790       ?set_random@SSL@yaSSL@@QAEXPBEW4ConnectionEnd@2@@Z 0042b790 f   mysqlclient:yassl_int.obj
 0001:0002a7c0       ?set_preMaster@SSL@yaSSL@@QAEXPBEI@Z 0042b7c0 f   mysqlclient:yassl_int.obj
 0001:0002a7f0       ?UnSetCompression@SSL@yaSSL@@QAEXXZ 0042b7f0 f   mysqlclient:yassl_int.obj
 0001:0002a800       ?CompressionOn@SSL@yaSSL@@QBE_NXZ 0042b800 f   mysqlclient:yassl_int.obj
 0001:0002a810       ?set_masterSecret@SSL@yaSSL@@QAEXPBE@Z 0042b810 f   mysqlclient:yassl_int.obj
 0001:0002a830       ?set_sessionID@SSL@yaSSL@@QAEXPBE@Z 0042b830 f   mysqlclient:yassl_int.obj
 0001:0002a860       ?setKeys@SSL@yaSSL@@AAEXXZ 0042b860 f   mysqlclient:yassl_int.obj
 0001:0002a900       ?Send@SSL@yaSSL@@QAEXPBEI@Z 0042b900 f   mysqlclient:yassl_int.obj
 0001:0002a9b0       ?get_SEQIncrement@SSL@yaSSL@@QAEI_N@Z 0042b9b0 f   mysqlclient:yassl_int.obj
 0001:0002a9e0       ?get_macSecret@SSL@yaSSL@@QAEPBE_N@Z 0042b9e0 f   mysqlclient:yassl_int.obj
 0001:0002aa20       ?verifyState@SSL@yaSSL@@QAEXABURecordLayerHeader@2@@Z 0042ba20 f   mysqlclient:yassl_int.obj
 0001:0002aa80       ?verifyState@SSL@yaSSL@@QAEXW4ClientState@2@@Z 0042ba80 f   mysqlclient:yassl_int.obj
 0001:0002aab0       ?verifyState@SSL@yaSSL@@QAEXW4ServerState@2@@Z 0042bab0 f   mysqlclient:yassl_int.obj
 0001:0002aae0       ?verfiyHandShakeComplete@SSL@yaSSL@@QAEXXZ 0042bae0 f   mysqlclient:yassl_int.obj
 0001:0002ab10       ?verifyClientState@SSL@yaSSL@@AAEXW4HandShakeType@2@@Z 0042bb10 f   mysqlclient:yassl_int.obj
 0001:0002abe0       ?verifyServerState@SSL@yaSSL@@AAEXW4HandShakeType@2@@Z 0042bbe0 f   mysqlclient:yassl_int.obj
 0001:0002ac90       ?matchSuite@SSL@yaSSL@@QAEXPBEI@Z 0042bc90 f   mysqlclient:yassl_int.obj
 0001:0002ad20       ?GetMultiProtocol@SSL@yaSSL@@QBE_NXZ 0042bd20 f   mysqlclient:yassl_int.obj
 0001:0002ad40       ?isTLS@SSL@yaSSL@@QBE_NXZ  0042bd40 f   mysqlclient:yassl_int.obj
 0001:0002ad50       ?isTLSv1_1@SSL@yaSSL@@QBE_NXZ 0042bd50 f   mysqlclient:yassl_int.obj
 0001:0002ad60       ??1X509_NAME@yaSSL@@QAE@XZ 0042bd60 f   mysqlclient:yassl_int.obj
 0001:0002ad80       ?GetBefore@X509@yaSSL@@QAEPAUASN1_STRING@2@XZ 0042bd80 f   mysqlclient:yassl_int.obj
 0001:0002ad90       ?GetAfter@X509@yaSSL@@QAEPAUASN1_STRING@2@XZ 0042bd90 f   mysqlclient:yassl_int.obj
 0001:0002ada0       ?push_back@?$list@PAVinput_buffer@yaSSL@@@mySTL@@QAEXPAVinput_buffer@yaSSL@@@Z 0042bda0 f i mysqlclient:yassl_int.obj
 0001:0002ada0       ?push_back@?$list@PAVSigner@TaoCrypt@@@mySTL@@QAEXPAVSigner@TaoCrypt@@@Z 0042bda0 f i mysqlclient:cert_wrapper.obj
 0001:0002ada0       ?push_back@?$list@PAVoutput_buffer@yaSSL@@@mySTL@@QAEXPAVoutput_buffer@yaSSL@@@Z 0042bda0 f i mysqlclient:yassl_int.obj
 0001:0002ada0       ?push_back@?$list@PAVx509@yaSSL@@@mySTL@@QAEXPAVx509@yaSSL@@@Z 0042bda0 f i mysqlclient:yassl_int.obj
 0001:0002ada0       ?push_back@?$list@PAE@mySTL@@QAEXPAE@Z 0042bda0 f i mysqlclient:yassl_imp.obj
 0001:0002ada0       ?push_back@?$list@PAVSSL_SESSION@yaSSL@@@mySTL@@QAEXPAVSSL_SESSION@yaSSL@@@Z 0042bda0 f i mysqlclient:yassl_int.obj
 0001:0002adf0       ?push_back@?$list@UThreadError@yaSSL@@@mySTL@@QAEXUThreadError@yaSSL@@@Z 0042bdf0 f i mysqlclient:yassl_int.obj
 0001:0002ae50       ??$for_each@Viterator@?$list@PAVinput_buffer@yaSSL@@@mySTL@@USumData@yassl_int_cpp_local1@yaSSL@@@mySTL@@YA?AUSumData@yassl_int_cpp_local1@yaSSL@@Viterator@?$list@PAVinput_buffer@yaSSL@@@0@0U123@@Z 0042be50 f i mysqlclient:yassl_int.obj
 0001:0002ae90       ??$ysDelete@Vinput_buffer@yaSSL@@@yaSSL@@YAXPAVinput_buffer@0@@Z 0042be90 f i mysqlclient:yassl_int.obj
 0001:0002aeb0       ??$for_each@Viterator@?$list@PAVoutput_buffer@yaSSL@@@mySTL@@USumBuffer@yassl_int_cpp_local1@yaSSL@@@mySTL@@YA?AUSumBuffer@yassl_int_cpp_local1@yaSSL@@Viterator@?$list@PAVoutput_buffer@yaSSL@@@0@0U123@@Z 0042beb0 f i mysqlclient:yassl_int.obj
 0001:0002aef0       ??$ysDelete@Vx509@yaSSL@@@yaSSL@@YAXPAVx509@0@@Z 0042bef0 f i mysqlclient:ssl.obj
 0001:0002aef0       ??$ysDelete@Voutput_buffer@yaSSL@@@yaSSL@@YAXPAVoutput_buffer@0@@Z 0042bef0 f i mysqlclient:yassl_int.obj
 0001:0002af10       ??$find_if@Viterator@?$list@UThreadError@yaSSL@@@mySTL@@Uthr_match@yassl_int_cpp_local2@yaSSL@@@mySTL@@YA?AViterator@?$list@UThreadError@yaSSL@@@0@V120@0Uthr_match@yassl_int_cpp_local2@yaSSL@@@Z 0042bf10 f i mysqlclient:yassl_int.obj
 0001:0002af40       ??$ysDelete@VDiffieHellman@yaSSL@@@yaSSL@@YAXPAVDiffieHellman@0@@Z 0042bf40 f i mysqlclient:yassl_int.obj
 0001:0002af60       ?storeKeys@SSL@yaSSL@@AAEXPBE@Z 0042bf60 f   mysqlclient:yassl_int.obj
 0001:0002b020       ?bufferedData@SSL@yaSSL@@QAEIXZ 0042c020 f   mysqlclient:yassl_int.obj
 0001:0002b050       ?PeekData@SSL@yaSSL@@QAEXAAVData@2@@Z 0042c050 f   mysqlclient:yassl_int.obj
 0001:0002b170       ?verifyState@SSL@yaSSL@@QAEXABVHandShakeHeader@2@@Z 0042c170 f   mysqlclient:yassl_int.obj
 0001:0002b1d0       ?addData@SSL@yaSSL@@QAEXPAVinput_buffer@2@@Z 0042c1d0 f   mysqlclient:yassl_int.obj
 0001:0002b200       ?addBuffer@SSL@yaSSL@@QAEXPAVoutput_buffer@2@@Z 0042c200 f   mysqlclient:yassl_int.obj
 0001:0002b220       ?AddCA@SSL_CTX@yaSSL@@QAEXPAVx509@2@@Z 0042c220 f   mysqlclient:yassl_int.obj
 0001:0002b230       ??1Crypto@yaSSL@@QAE@XZ    0042c230 f   mysqlclient:yassl_int.obj
 0001:0002b270       ??0X509@yaSSL@@QAE@PBDI0I0H0H@Z 0042c270 f   mysqlclient:yassl_int.obj
 0001:0002b2c0       ??1?$list@PAVinput_buffer@yaSSL@@@mySTL@@QAE@XZ 0042c2c0 f i mysqlclient:yassl_int.obj
 0001:0002b2c0       ??1?$list@PAVoutput_buffer@yaSSL@@@mySTL@@QAE@XZ 0042c2c0 f i mysqlclient:yassl_int.obj
 0001:0002b2c0       ??1?$list@PAE@mySTL@@QAE@XZ 0042c2c0 f i mysqlclient:yassl_imp.obj
 0001:0002b2c0       ??1?$list@PAVx509@yaSSL@@@mySTL@@QAE@XZ 0042c2c0 f i mysqlclient:yassl_int.obj
 0001:0002b2c0       ??1?$list@PAVSigner@TaoCrypt@@@mySTL@@QAE@XZ 0042c2c0 f i mysqlclient:cert_wrapper.obj
 0001:0002b2e0       ?pop_front@?$list@PAVinput_buffer@yaSSL@@@mySTL@@QAEXXZ 0042c2e0 f i mysqlclient:yassl_int.obj
 0001:0002b2e0       ?pop_front@?$list@PAVoutput_buffer@yaSSL@@@mySTL@@QAEXXZ 0042c2e0 f i mysqlclient:yassl_int.obj
 0001:0002b2e0       ?pop_front@?$list@PAVSSL_SESSION@yaSSL@@@mySTL@@QAEXXZ 0042c2e0 f i mysqlclient:yassl_int.obj
 0001:0002b2e0       ?pop_front@?$list@UThreadError@yaSSL@@@mySTL@@QAEXXZ 0042c2e0 f i mysqlclient:yassl_int.obj
 0001:0002b330       ?pop_back@?$list@UThreadError@yaSSL@@@mySTL@@QAEXXZ 0042c330 f i mysqlclient:yassl_int.obj
 0001:0002b330       ?pop_back@?$list@PAVSSL_SESSION@yaSSL@@@mySTL@@QAEXXZ 0042c330 f i mysqlclient:yassl_int.obj
 0001:0002b370       ?deriveKeys@SSL@yaSSL@@QAEXXZ 0042c370 f   mysqlclient:yassl_int.obj
 0001:0002b550       ?deriveTLSKeys@SSL@yaSSL@@QAEXXZ 0042c550 f   mysqlclient:yassl_int.obj
 0001:0002b610       ?fillData@SSL@yaSSL@@QAEXAAVData@2@@Z 0042c610 f   mysqlclient:yassl_int.obj
 0001:0002b780       ?flushBuffer@SSL@yaSSL@@QAEXXZ 0042c780 f   mysqlclient:yassl_int.obj
 0001:0002b850       ?CopyX509@SSL_SESSION@yaSSL@@AAEXPAVX509@2@@Z 0042c850 f   mysqlclient:yassl_int.obj
 0001:0002b8f0       ??0SSL_SESSION@yaSSL@@QAE@ABVSSL@1@AAVRandomPool@1@@Z 0042c8f0 f   mysqlclient:yassl_int.obj
 0001:0002b980       ?GetSessions@yaSSL@@YAAAVSessions@1@XZ 0042c980 f   mysqlclient:yassl_int.obj
 0001:0002b9d0       ?GetErrors@yaSSL@@YAAAVErrors@1@XZ 0042c9d0 f   mysqlclient:yassl_int.obj
 0001:0002ba10       ??0SSL_CTX@yaSSL@@QAE@PAVSSL_METHOD@1@@Z 0042ca10 f   mysqlclient:yassl_int.obj
 0001:0002bad0       ??0Buffers@yaSSL@@QAE@XZ   0042cad0 f   mysqlclient:yassl_int.obj
 0001:0002bb00       ?erase@?$list@UThreadError@yaSSL@@@mySTL@@QAE_NViterator@12@@Z 0042cb00 f i mysqlclient:yassl_int.obj
 0001:0002bb00       ?erase@?$list@PAVSSL_SESSION@yaSSL@@@mySTL@@QAE_NViterator@12@@Z 0042cb00 f i mysqlclient:yassl_int.obj
 0001:0002bb60       ??$ysDelete@VX509@yaSSL@@@yaSSL@@YAXPAVX509@0@@Z 0042cb60 f i mysqlclient:yassl_int.obj
 0001:0002bba0       ??$for_each@Viterator@?$list@PAVoutput_buffer@yaSSL@@@mySTL@@Udel_ptr_zero@yaSSL@@@mySTL@@YA?AUdel_ptr_zero@yaSSL@@Viterator@?$list@PAVoutput_buffer@yaSSL@@@0@0U12@@Z 0042cba0 f i mysqlclient:yassl_int.obj
 0001:0002bba0       ??$for_each@Viterator@?$list@PAVx509@yaSSL@@@mySTL@@Udel_ptr_zero@yaSSL@@@mySTL@@YA?AUdel_ptr_zero@yaSSL@@Viterator@?$list@PAVx509@yaSSL@@@0@0U12@@Z 0042cba0 f i mysqlclient:yassl_int.obj
 0001:0002bbe0       ??$for_each@Viterator@?$list@PAVinput_buffer@yaSSL@@@mySTL@@Udel_ptr_zero@yaSSL@@@mySTL@@YA?AUdel_ptr_zero@yaSSL@@Viterator@?$list@PAVinput_buffer@yaSSL@@@0@0U12@@Z 0042cbe0 f i mysqlclient:yassl_int.obj
 0001:0002bc20       ??0sslFactory@yaSSL@@AAE@XZ 0042cc20 f   mysqlclient:yassl_int.obj
 0001:0002bc70       ?makeTLSMasterSecret@SSL@yaSSL@@QAEXXZ 0042cc70 f   mysqlclient:yassl_int.obj
 0001:0002bcf0       ?SendWriteBuffered@SSL@yaSSL@@QAEXXZ 0042ccf0 f   mysqlclient:yassl_int.obj
 0001:0002bd30       ??4SSL_SESSION@yaSSL@@QAEAAV01@ABV01@@Z 0042cd30 f   mysqlclient:yassl_int.obj
 0001:0002bda0       ??1SSL_SESSION@yaSSL@@QAE@XZ 0042cda0 f   mysqlclient:yassl_int.obj
 0001:0002bdc0       ?GetSSL_Factory@yaSSL@@YAAAVsslFactory@1@XZ 0042cdc0 f   mysqlclient:yassl_int.obj
 0001:0002bdf0       ?Remove@Errors@yaSSL@@QAEXXZ 0042cdf0 f   mysqlclient:yassl_int.obj
 0001:0002be20       ?Add@Errors@yaSSL@@QAEXH@Z 0042ce20 f   mysqlclient:yassl_int.obj
 0001:0002be50       ??1SSL_CTX@yaSSL@@QAE@XZ   0042ce50 f   mysqlclient:yassl_int.obj
 0001:0002beb0       ??1Buffers@yaSSL@@QAE@XZ   0042ceb0 f   mysqlclient:yassl_int.obj
 0001:0002bf20       ??0Security@yaSSL@@QAE@UProtocolVersion@1@AAVRandomPool@1@W4ConnectionEnd@1@ABUCiphers@1@PAVSSL_CTX@1@_N@Z 0042cf20 f   mysqlclient:yassl_int.obj
 0001:0002bf80       ?makeMasterSecret@SSL@yaSSL@@QAEXXZ 0042cf80 f   mysqlclient:yassl_int.obj
 0001:0002c180       ?getFactory@SSL@yaSSL@@QBEABVsslFactory@2@XZ 0042d180 f   mysqlclient:yassl_int.obj
 0001:0002c190       ??$ysDelete@VSSL_SESSION@yaSSL@@@yaSSL@@YAXPAVSSL_SESSION@0@@Z 0042d190 f i mysqlclient:yassl_int.obj
 0001:0002c1b0       ??0SSL@yaSSL@@QAE@PAVSSL_CTX@1@@Z 0042d1b0 f   mysqlclient:yassl_int.obj
 0001:0002c420       ?lookup@Sessions@yaSSL@@QAEPAVSSL_SESSION@2@PBEPAV32@@Z 0042d420 f   mysqlclient:yassl_int.obj
 0001:0002c4a0       ?Flush@Sessions@yaSSL@@QAEXXZ 0042d4a0 f   mysqlclient:yassl_int.obj
 0001:0002c500       ?set_session@SSL@yaSSL@@QAEXPAVSSL_SESSION@2@@Z 0042d500 f   mysqlclient:yassl_int.obj
 0001:0002c570       ?add@Sessions@yaSSL@@QAEXABVSSL@2@@Z 0042d570 f   mysqlclient:yassl_int.obj
 0001:0002c5f0       _my_realloc                0042d5f0 f   mysqlclient:my_realloc.obj
 0001:0002c670       _is_prefix                 0042d670 f   mysqlclient:is_prefix.obj
 0001:0002c6a0       _array_append_string_unique 0042d6a0 f   mysqlclient:mf_arr_appstr.obj
 0001:0002c720       _cleanup_dirname           0042d720 f   mysqlclient:mf_pack.obj
 0001:0002cb80       _symdirget                 0042db80 f   mysqlclient:mf_pack.obj
 0001:0002ccc0       _system_filename           0042dcc0 f   mysqlclient:mf_pack.obj
 0001:0002cce0       _intern_filename           0042dce0 f   mysqlclient:mf_pack.obj
 0001:0002cd60       _pack_dirname              0042dd60 f   mysqlclient:mf_pack.obj
 0001:0002d0f0       _normalize_dirname         0042e0f0 f   mysqlclient:mf_pack.obj
 0001:0002d190       _unpack_dirname            0042e190 f   mysqlclient:mf_pack.obj
 0001:0002d290       _my_fclose                 0042e290 f   mysqlclient:my_fopen.obj
 0001:0002d3b0       _my_fopen                  0042e3b0 f   mysqlclient:my_fopen.obj
 0001:0002d550       _my_dirend                 0042e550 f   mysqlclient:my_lib.obj
 0001:0002d5c0       _my_dir                    0042e5c0 f   mysqlclient:my_lib.obj
 0001:0002d850       _my_stat                   0042e850 f   mysqlclient:my_lib.obj
 0001:0002d8e0       _fn_ext                    0042e8e0 f   mysqlclient:mf_fn_ext.obj
 0001:0002d940       _dirname_length            0042e940 f   mysqlclient:mf_dirname.obj
 0001:0002d990       _convert_dirname           0042e990 f   mysqlclient:mf_dirname.obj
 0001:0002da40       _dirname_part              0042ea40 f   mysqlclient:mf_dirname.obj
 0001:0002da70       ??_GDigest@yaSSL@@UAEPAXI@Z 0042ea70 f i mysqlclient:crypto_wrapper.obj
 0001:0002da70       ??_EDigest@yaSSL@@UAEPAXI@Z 0042ea70 f i mysqlclient:crypto_wrapper.obj
 0001:0002da90       ??_GBulkCipher@yaSSL@@UAEPAXI@Z 0042ea90 f i mysqlclient:crypto_wrapper.obj
 0001:0002da90       ??_EBulkCipher@yaSSL@@UAEPAXI@Z 0042ea90 f i mysqlclient:crypto_wrapper.obj
 0001:0002dab0       ??_EAuth@yaSSL@@UAEPAXI@Z  0042eab0 f i mysqlclient:crypto_wrapper.obj
 0001:0002dab0       ??_GAuth@yaSSL@@UAEPAXI@Z  0042eab0 f i mysqlclient:crypto_wrapper.obj
 0001:0002dad0       ?getBlockSize@SHA@TaoCrypt@@UBEIXZ 0042ead0 f i mysqlclient:crypto_wrapper.obj
 0001:0002dad0       ?getBlockSize@MD5@TaoCrypt@@UBEIXZ 0042ead0 f i mysqlclient:ssl.obj
 0001:0002dad0       ?getBlockSize@RIPEMD160@TaoCrypt@@UBEIXZ 0042ead0 f i mysqlclient:crypto_wrapper.obj
 0001:0002dae0       ??_GAES@TaoCrypt@@UAEPAXI@Z 0042eae0 f i mysqlclient:crypto_wrapper.obj
 0001:0002dae0       ??_EAES@TaoCrypt@@UAEPAXI@Z 0042eae0 f i mysqlclient:crypto_wrapper.obj
 0001:0002dae0       ??_GMode_BASE@TaoCrypt@@UAEPAXI@Z 0042eae0 f i mysqlclient:crypto_wrapper.obj
 0001:0002dae0       ??_EDES@TaoCrypt@@UAEPAXI@Z 0042eae0 f i mysqlclient:crypto_wrapper.obj
 0001:0002dae0       ??_GDES@TaoCrypt@@UAEPAXI@Z 0042eae0 f i mysqlclient:crypto_wrapper.obj
 0001:0002dae0       ??_EMode_BASE@TaoCrypt@@UAEPAXI@Z 0042eae0 f i mysqlclient:crypto_wrapper.obj
 0001:0002dae0       ??_GDES_EDE3@TaoCrypt@@UAEPAXI@Z 0042eae0 f i mysqlclient:crypto_wrapper.obj
 0001:0002dae0       ??_EDES_EDE3@TaoCrypt@@UAEPAXI@Z 0042eae0 f i mysqlclient:crypto_wrapper.obj
 0001:0002db00       ?ECB_Process@Mode_BASE@TaoCrypt@@IAEXPAEPBEI@Z 0042eb00 f i mysqlclient:crypto_wrapper.obj
 0001:0002db50       ?CBC_Encrypt@Mode_BASE@TaoCrypt@@IAEXPAEPBEI@Z 0042eb50 f i mysqlclient:crypto_wrapper.obj
 0001:0002dbc0       ?CBC_Decrypt@Mode_BASE@TaoCrypt@@IAEXPAEPBEI@Z 0042ebc0 f i mysqlclient:crypto_wrapper.obj
 0001:0002dc80       ??0MD5@yaSSL@@QAE@ABV01@@Z 0042ec80 f   mysqlclient:crypto_wrapper.obj
 0001:0002dcc0       ??4MD5@yaSSL@@QAEAAV01@ABV01@@Z 0042ecc0 f   mysqlclient:crypto_wrapper.obj
 0001:0002dce0       ?get_padSize@HMAC_MD5@yaSSL@@UBEIXZ 0042ece0 f   mysqlclient:crypto_wrapper.obj
 0001:0002dce0       ?get_padSize@MD5@yaSSL@@UBEIXZ 0042ece0 f   mysqlclient:crypto_wrapper.obj
 0001:0002dcf0       ?get_digest@RMD@yaSSL@@UAEXPAE@Z 0042ecf0 f   mysqlclient:crypto_wrapper.obj
 0001:0002dcf0       ?get_digest@MD5@yaSSL@@UAEXPAE@Z 0042ecf0 f   mysqlclient:crypto_wrapper.obj
 0001:0002dcf0       ?get_digest@SHA@yaSSL@@UAEXPAE@Z 0042ecf0 f   mysqlclient:crypto_wrapper.obj
 0001:0002dd00       ??0SHA@yaSSL@@QAE@XZ       0042ed00 f   mysqlclient:crypto_wrapper.obj
 0001:0002dd50       ??0SHA@yaSSL@@QAE@ABV01@@Z 0042ed50 f   mysqlclient:crypto_wrapper.obj
 0001:0002dd90       ??4SHA@yaSSL@@QAEAAV01@ABV01@@Z 0042ed90 f   mysqlclient:crypto_wrapper.obj
 0001:0002ddb0       ?get_digest@RMD@yaSSL@@UAEXPAEPBEI@Z 0042edb0 f   mysqlclient:crypto_wrapper.obj
 0001:0002ddb0       ?get_digest@SHA@yaSSL@@UAEXPAEPBEI@Z 0042edb0 f   mysqlclient:crypto_wrapper.obj
 0001:0002ddb0       ?get_digest@MD5@yaSSL@@UAEXPAEPBEI@Z 0042edb0 f   mysqlclient:crypto_wrapper.obj
 0001:0002dde0       ?update@MD5@yaSSL@@UAEXPBEI@Z 0042ede0 f   mysqlclient:crypto_wrapper.obj
 0001:0002dde0       ?Equal@MultiplicativeGroupT@AbstractRing@TaoCrypt@@UBE_NABVInteger@3@0@Z 0042ede0 f   mysqlclient:integer.obj
 0001:0002dde0       ?update@SHA@yaSSL@@UAEXPBEI@Z 0042ede0 f   mysqlclient:crypto_wrapper.obj
 0001:0002dde0       ?encrypt@DES@yaSSL@@UAEXPAEPBEI@Z 0042ede0 f   mysqlclient:crypto_wrapper.obj
 0001:0002dde0       ?encrypt@AES@yaSSL@@UAEXPAEPBEI@Z 0042ede0 f   mysqlclient:crypto_wrapper.obj
 0001:0002dde0       ?encrypt@DES_EDE@yaSSL@@UAEXPAEPBEI@Z 0042ede0 f   mysqlclient:crypto_wrapper.obj
 0001:0002dde0       ?update@RMD@yaSSL@@UAEXPBEI@Z 0042ede0 f   mysqlclient:crypto_wrapper.obj
 0001:0002ddf0       ??0RMD@yaSSL@@QAE@XZ       0042edf0 f   mysqlclient:crypto_wrapper.obj
 0001:0002de40       ?getDigestSize@SHA@TaoCrypt@@UBEIXZ 0042ee40 f   mysqlclient:crypto_wrapper.obj
 0001:0002de40       ?get_digestSize@HMAC_SHA@yaSSL@@UBEIXZ 0042ee40 f   mysqlclient:crypto_wrapper.obj
 0001:0002de40       ?get_digestSize@RMD@yaSSL@@UBEIXZ 0042ee40 f   mysqlclient:crypto_wrapper.obj
 0001:0002de40       ?getDigestSize@RIPEMD160@TaoCrypt@@UBEIXZ 0042ee40 f   mysqlclient:crypto_wrapper.obj
 0001:0002de40       ?get_type@Finished@yaSSL@@UBE?AW4HandShakeType@2@XZ 0042ee40 f   mysqlclient:yassl_imp.obj
 0001:0002de40       ?get_digestSize@SHA@yaSSL@@UBEIXZ 0042ee40 f   mysqlclient:crypto_wrapper.obj
 0001:0002de40       ?get_digestSize@HMAC_RMD@yaSSL@@UBEIXZ 0042ee40 f   mysqlclient:crypto_wrapper.obj
 0001:0002de40       ?get_type@ChangeCipherSpec@yaSSL@@UBE?AW4ContentType@2@XZ 0042ee40 f   mysqlclient:yassl_imp.obj
 0001:0002de50       ?get_padSize@SHA@yaSSL@@UBEIXZ 0042ee50 f   mysqlclient:crypto_wrapper.obj
 0001:0002de50       ?get_padSize@HMAC_SHA@yaSSL@@UBEIXZ 0042ee50 f   mysqlclient:crypto_wrapper.obj
 0001:0002de60       ?get_padSize@RMD@yaSSL@@UBEIXZ 0042ee60 f   mysqlclient:crypto_wrapper.obj
 0001:0002de60       ?get_padSize@HMAC_RMD@yaSSL@@UBEIXZ 0042ee60 f   mysqlclient:crypto_wrapper.obj
 0001:0002de70       ?set_encryptKey@RC4@yaSSL@@UAEXPBE0@Z 0042ee70 f   mysqlclient:crypto_wrapper.obj
 0001:0002de80       ?set_decryptKey@RC4@yaSSL@@UAEXPBE0@Z 0042ee80 f   mysqlclient:crypto_wrapper.obj
 0001:0002dea0       ?encrypt@RC4@yaSSL@@UAEXPAEPBEI@Z 0042eea0 f   mysqlclient:crypto_wrapper.obj
 0001:0002deb0       ?decrypt@RC4@yaSSL@@UAEXPAEPBEI@Z 0042eeb0 f   mysqlclient:crypto_wrapper.obj
 0001:0002dec0       ?get_keySize@AES@yaSSL@@UBEHXZ 0042eec0 f   mysqlclient:crypto_wrapper.obj
 0001:0002ded0       ?GetError@RandomPool@yaSSL@@QBEHXZ 0042eed0 f   mysqlclient:crypto_wrapper.obj
 0001:0002dee0       ?Fill@RandomPool@yaSSL@@QBEXPAEI@Z 0042eee0 f   mysqlclient:crypto_wrapper.obj
 0001:0002def0       ?get_signatureLength@DSS@yaSSL@@UBEIXZ 0042eef0 f   mysqlclient:crypto_wrapper.obj
 0001:0002df00       ?get_cipherLength@RSA@yaSSL@@QBEIXZ 0042ef00 f   mysqlclient:crypto_wrapper.obj
 0001:0002df10       ?get_signatureLength@RSA@yaSSL@@UBEIXZ 0042ef10 f   mysqlclient:crypto_wrapper.obj
 0001:0002df20       ??4Integer@yaSSL@@QAEAAV01@ABV01@@Z 0042ef20 f   mysqlclient:crypto_wrapper.obj
 0001:0002df40       ?makeAgreement@DiffieHellman@yaSSL@@QAEXPBEI@Z 0042ef40 f   mysqlclient:crypto_wrapper.obj
 0001:0002df60       ?get_agreedKeyLength@DiffieHellman@yaSSL@@QBEIXZ 0042ef60 f   mysqlclient:crypto_wrapper.obj
 0001:0002df70       ?get_agreedKey@DiffieHellman@yaSSL@@QBEPBEXZ 0042ef70 f   mysqlclient:crypto_wrapper.obj
 0001:0002df80       ?get_publicKey@DiffieHellman@yaSSL@@QBEPBEXZ 0042ef80 f   mysqlclient:crypto_wrapper.obj
 0001:0002df90       ?SetKey@?$HMAC@VMD5@TaoCrypt@@@TaoCrypt@@QAEXPBEI@Z 0042ef90 f i mysqlclient:crypto_wrapper.obj
 0001:0002e070       ?Init@?$HMAC@VSHA@TaoCrypt@@@TaoCrypt@@QAEXXZ 0042f070 f i mysqlclient:crypto_wrapper.obj
 0001:0002e070       ?Init@?$HMAC@VRIPEMD160@TaoCrypt@@@TaoCrypt@@QAEXXZ 0042f070 f i mysqlclient:crypto_wrapper.obj
 0001:0002e070       ?Init@?$HMAC@VMD5@TaoCrypt@@@TaoCrypt@@QAEXXZ 0042f070 f i mysqlclient:crypto_wrapper.obj
 0001:0002e090       ?SetKey@?$HMAC@VSHA@TaoCrypt@@@TaoCrypt@@QAEXPBEI@Z 0042f090 f i mysqlclient:crypto_wrapper.obj
 0001:0002e090       ?SetKey@?$HMAC@VRIPEMD160@TaoCrypt@@@TaoCrypt@@QAEXPBEI@Z 0042f090 f i mysqlclient:crypto_wrapper.obj
 0001:0002e170       ?KeyInnerHash@?$HMAC@VRIPEMD160@TaoCrypt@@@TaoCrypt@@AAEXXZ 0042f170 f i mysqlclient:crypto_wrapper.obj
 0001:0002e170       ?KeyInnerHash@?$HMAC@VSHA@TaoCrypt@@@TaoCrypt@@AAEXXZ 0042f170 f i mysqlclient:crypto_wrapper.obj
 0001:0002e170       ?KeyInnerHash@?$HMAC@VMD5@TaoCrypt@@@TaoCrypt@@AAEXXZ 0042f170 f i mysqlclient:crypto_wrapper.obj
 0001:0002e190       ?Process@Mode_BASE@TaoCrypt@@UAEXPAEPBEI@Z 0042f190 f i mysqlclient:crypto_wrapper.obj
 0001:0002e1c0       ??0MD5@yaSSL@@QAE@XZ       0042f1c0 f   mysqlclient:crypto_wrapper.obj
 0001:0002e210       ??0DESImpl@DES@yaSSL@@QAE@XZ 0042f210 f i mysqlclient:crypto_wrapper.obj
 0001:0002e270       ?set_encryptKey@DES@yaSSL@@UAEXPBE0@Z 0042f270 f   mysqlclient:crypto_wrapper.obj
 0001:0002e2a0       ?set_decryptKey@DES@yaSSL@@UAEXPBE0@Z 0042f2a0 f   mysqlclient:crypto_wrapper.obj
 0001:0002e2e0       ?decrypt@DES@yaSSL@@UAEXPAEPBEI@Z 0042f2e0 f   mysqlclient:crypto_wrapper.obj
 0001:0002e300       ??0DES_EDEImpl@DES_EDE@yaSSL@@QAE@XZ 0042f300 f i mysqlclient:crypto_wrapper.obj
 0001:0002e360       ?set_encryptKey@DES_EDE@yaSSL@@UAEXPBE0@Z 0042f360 f   mysqlclient:crypto_wrapper.obj
 0001:0002e390       ?set_decryptKey@DES_EDE@yaSSL@@UAEXPBE0@Z 0042f390 f   mysqlclient:crypto_wrapper.obj
 0001:0002e3c0       ?decrypt@DES_EDE@yaSSL@@UAEXPAEPBEI@Z 0042f3c0 f   mysqlclient:crypto_wrapper.obj
 0001:0002e3e0       ??0RC4@yaSSL@@QAE@XZ       0042f3e0 f   mysqlclient:crypto_wrapper.obj
 0001:0002e400       ?getByteOrder@MD5@TaoCrypt@@UBE?AW4ByteOrder@2@XZ 0042f400 f i mysqlclient:ssl.obj
 0001:0002e400       ?get_type@HelloRequest@yaSSL@@UBE?AW4HandShakeType@2@XZ 0042f400 f i mysqlclient:yassl_imp.obj
 0001:0002e400       ?get_clientKey@ClientKeyBase@yaSSL@@UBEPAEXZ 0042f400 f i mysqlclient:yassl_imp.obj
 0001:0002e400       ?get_blockSize@RC4@yaSSL@@UBEIXZ 0042f400 f i mysqlclient:crypto_wrapper.obj
 0001:0002e400       _yaERR_get_error_line_data 0042f400 f i mysqlclient:ssl.obj
 0001:0002e400       ?get_serverKey@ServerKeyBase@yaSSL@@UBEPAEXZ 0042f400 f i mysqlclient:yassl_imp.obj
 0001:0002e400       ?getByteOrder@RIPEMD160@TaoCrypt@@UBE?AW4ByteOrder@2@XZ 0042f400 f i mysqlclient:crypto_wrapper.obj
 0001:0002e400       ?get_length@ClientKeyBase@yaSSL@@UBEHXZ 0042f400 f i mysqlclient:yassl_imp.obj
 0001:0002e400       ?get_ivSize@RC4@yaSSL@@UBEHXZ 0042f400 f i mysqlclient:crypto_wrapper.obj
 0001:0002e400       ?get_length@ServerKeyBase@yaSSL@@UBEHXZ 0042f400 f i mysqlclient:yassl_imp.obj
 0001:0002e410       ?get_type@ClientKeyExchange@yaSSL@@UBE?AW4HandShakeType@2@XZ 0042f410 f i mysqlclient:yassl_imp.obj
 0001:0002e410       ?get_digestSize@HMAC_MD5@yaSSL@@UBEIXZ 0042f410 f i mysqlclient:crypto_wrapper.obj
 0001:0002e410       ?get_keySize@RC4@yaSSL@@UBEHXZ 0042f410 f i mysqlclient:crypto_wrapper.obj
 0001:0002e410       ?get_ivSize@AES@yaSSL@@UBEHXZ 0042f410 f i mysqlclient:crypto_wrapper.obj
 0001:0002e410       ?get_digestSize@MD5@yaSSL@@UBEIXZ 0042f410 f i mysqlclient:crypto_wrapper.obj
 0001:0002e410       ?getBlockSize@MD2@TaoCrypt@@UBEIXZ 0042f410 f i mysqlclient:md2.obj
 0001:0002e410       ?get_blockSize@AES@yaSSL@@UBEIXZ 0042f410 f i mysqlclient:crypto_wrapper.obj
 0001:0002e410       ?getDigestSize@MD5@TaoCrypt@@UBEIXZ 0042f410 f i mysqlclient:ssl.obj
 0001:0002e410       ?getDigestSize@MD2@TaoCrypt@@UBEIXZ 0042f410 f i mysqlclient:md2.obj
 0001:0002e420       ??1RC4@yaSSL@@UAE@XZ       0042f420 f   mysqlclient:crypto_wrapper.obj
 0001:0002e440       ??0AESImpl@AES@yaSSL@@QAE@I@Z 0042f440 f i mysqlclient:crypto_wrapper.obj
 0001:0002e4b0       ??0AES@yaSSL@@QAE@I@Z      0042f4b0 f   mysqlclient:crypto_wrapper.obj
 0001:0002e4f0       ?set_encryptKey@AES@yaSSL@@UAEXPBE0@Z 0042f4f0 f   mysqlclient:crypto_wrapper.obj
 0001:0002e530       ?set_decryptKey@AES@yaSSL@@UAEXPBE0@Z 0042f530 f   mysqlclient:crypto_wrapper.obj
 0001:0002e570       ?decrypt@AES@yaSSL@@UAEXPAEPBEI@Z 0042f570 f   mysqlclient:crypto_wrapper.obj
 0001:0002e590       ??0RandomPool@yaSSL@@QAE@XZ 0042f590 f   mysqlclient:crypto_wrapper.obj
 0001:0002e5c0       ??1DSA_PrivateKey@TaoCrypt@@QAE@XZ 0042f5c0 f i mysqlclient:crypto_wrapper.obj
 0001:0002e620       ??1RSA_PrivateKey@TaoCrypt@@QAE@XZ 0042f620 f i mysqlclient:crypto_wrapper.obj
 0001:0002e6b0       ??0Integer@yaSSL@@QAE@XZ   0042f6b0 f   mysqlclient:crypto_wrapper.obj
 0001:0002e6e0       ?assign@Integer@yaSSL@@QAEXPBEI@Z 0042f6e0 f   mysqlclient:crypto_wrapper.obj
 0001:0002e720       ??0DHImpl@DiffieHellman@yaSSL@@QAE@ABU012@@Z 0042f720 f i mysqlclient:crypto_wrapper.obj
 0001:0002e780       ??0DiffieHellman@yaSSL@@QAE@PBEI0I0IABVRandomPool@1@@Z 0042f780 f   mysqlclient:crypto_wrapper.obj
 0001:0002e860       ??0DiffieHellman@yaSSL@@QAE@ABVInteger@1@0ABVRandomPool@1@@Z 0042f860 f   mysqlclient:crypto_wrapper.obj
 0001:0002e910       ??0DiffieHellman@yaSSL@@QAE@ABV01@@Z 0042f910 f   mysqlclient:crypto_wrapper.obj
 0001:0002e950       ?set_sizes@DiffieHellman@yaSSL@@QBEXAAH00@Z 0042f950 f   mysqlclient:crypto_wrapper.obj
 0001:0002e9d0       ?get_parms@DiffieHellman@yaSSL@@QBEXPAE00@Z 0042f9d0 f   mysqlclient:crypto_wrapper.obj
 0001:0002ea70       ?Update@?$HMAC@VRIPEMD160@TaoCrypt@@@TaoCrypt@@QAEXPBEI@Z 0042fa70 f i mysqlclient:crypto_wrapper.obj
 0001:0002ea70       ?Update@?$HMAC@VMD5@TaoCrypt@@@TaoCrypt@@QAEXPBEI@Z 0042fa70 f i mysqlclient:crypto_wrapper.obj
 0001:0002ea70       ?Update@?$HMAC@VSHA@TaoCrypt@@@TaoCrypt@@QAEXPBEI@Z 0042fa70 f i mysqlclient:crypto_wrapper.obj
 0001:0002ea90       ?Final@?$HMAC@VMD5@TaoCrypt@@@TaoCrypt@@QAEXPAE@Z 0042fa90 f i mysqlclient:crypto_wrapper.obj
 0001:0002eaf0       ?Final@?$HMAC@VSHA@TaoCrypt@@@TaoCrypt@@QAEXPAE@Z 0042faf0 f i mysqlclient:crypto_wrapper.obj
 0001:0002eaf0       ?Final@?$HMAC@VRIPEMD160@TaoCrypt@@@TaoCrypt@@QAEXPAE@Z 0042faf0 f i mysqlclient:crypto_wrapper.obj
 0001:0002eb50       ??4RSA_PublicKey@TaoCrypt@@QAEAAV01@ABV01@@Z 0042fb50 f i mysqlclient:crypto_wrapper.obj
 0001:0002ebc0       ??0HMAC_MD5Impl@HMAC_MD5@yaSSL@@QAE@XZ 0042fbc0 f i mysqlclient:crypto_wrapper.obj
 0001:0002ec10       ??0HMAC_MD5@yaSSL@@QAE@PBEI@Z 0042fc10 f   mysqlclient:crypto_wrapper.obj
 0001:0002ec50       ?get_digest@HMAC_MD5@yaSSL@@UAEXPAEPBEI@Z 0042fc50 f   mysqlclient:crypto_wrapper.obj
 0001:0002ec80       ?get_digest@HMAC_MD5@yaSSL@@UAEXPAE@Z 0042fc80 f   mysqlclient:crypto_wrapper.obj
 0001:0002ec90       ?update@HMAC_SHA@yaSSL@@UAEXPBEI@Z 0042fc90 f   mysqlclient:crypto_wrapper.obj
 0001:0002ec90       ?update@HMAC_MD5@yaSSL@@UAEXPBEI@Z 0042fc90 f   mysqlclient:crypto_wrapper.obj
 0001:0002ec90       ?update@HMAC_RMD@yaSSL@@UAEXPBEI@Z 0042fc90 f   mysqlclient:crypto_wrapper.obj
 0001:0002eca0       ??0HMAC_SHAImpl@HMAC_SHA@yaSSL@@QAE@XZ 0042fca0 f i mysqlclient:crypto_wrapper.obj
 0001:0002ecf0       ??0HMAC_SHA@yaSSL@@QAE@PBEI@Z 0042fcf0 f   mysqlclient:crypto_wrapper.obj
 0001:0002ed30       ?get_digest@HMAC_RMD@yaSSL@@UAEXPAE@Z 0042fd30 f   mysqlclient:crypto_wrapper.obj
 0001:0002ed30       ?get_digest@HMAC_SHA@yaSSL@@UAEXPAE@Z 0042fd30 f   mysqlclient:crypto_wrapper.obj
 0001:0002ed40       ??0HMAC_RMDImpl@HMAC_RMD@yaSSL@@QAE@XZ 0042fd40 f i mysqlclient:crypto_wrapper.obj
 0001:0002ed90       ??0HMAC_RMD@yaSSL@@QAE@PBEI@Z 0042fd90 f   mysqlclient:crypto_wrapper.obj
 0001:0002edd0       ?get_digest@HMAC_SHA@yaSSL@@UAEXPAEPBEI@Z 0042fdd0 f   mysqlclient:crypto_wrapper.obj
 0001:0002edd0       ?get_digest@HMAC_RMD@yaSSL@@UAEXPAEPBEI@Z 0042fdd0 f   mysqlclient:crypto_wrapper.obj
 0001:0002ee00       ??0DES@yaSSL@@QAE@XZ       0042fe00 f   mysqlclient:crypto_wrapper.obj
 0001:0002ee40       ??0DES_EDE@yaSSL@@QAE@XZ   0042fe40 f   mysqlclient:crypto_wrapper.obj
 0001:0002ee80       ?get_keySize@DES_EDE@yaSSL@@UBEHXZ 0042fe80 f i mysqlclient:crypto_wrapper.obj
 0001:0002ee90       ?get_blockSize@DES_EDE@yaSSL@@UBEIXZ 0042fe90 f i mysqlclient:crypto_wrapper.obj
 0001:0002ee90       ?get_blockSize@DES@yaSSL@@UBEIXZ 0042fe90 f i mysqlclient:crypto_wrapper.obj
 0001:0002ee90       ?get_ivSize@DES_EDE@yaSSL@@UBEHXZ 0042fe90 f i mysqlclient:crypto_wrapper.obj
 0001:0002ee90       ?get_ivSize@DES@yaSSL@@UBEHXZ 0042fe90 f i mysqlclient:crypto_wrapper.obj
 0001:0002ee90       ?get_keySize@DES@yaSSL@@UBEHXZ 0042fe90 f i mysqlclient:crypto_wrapper.obj
 0001:0002eea0       ??_ERC4@yaSSL@@UAEPAXI@Z   0042fea0 f i mysqlclient:crypto_wrapper.obj
 0001:0002eea0       ??_GRC4@yaSSL@@UAEPAXI@Z   0042fea0 f i mysqlclient:crypto_wrapper.obj
 0001:0002eec0       ??0DSSImpl@DSS@yaSSL@@QAE@XZ 0042fec0 f i mysqlclient:crypto_wrapper.obj
 0001:0002ef10       ?sign@DSS@yaSSL@@UAEXPAEPBEIABVRandomPool@2@@Z 0042ff10 f   mysqlclient:crypto_wrapper.obj
 0001:0002ef70       ?verify@DSS@yaSSL@@UAE_NPBEI0I@Z 0042ff70 f   mysqlclient:crypto_wrapper.obj
 0001:0002efd0       ??0RSAImpl@RSA@yaSSL@@QAE@XZ 0042ffd0 f i mysqlclient:crypto_wrapper.obj
 0001:0002f030       ??$ysDelete@URMDImpl@RMD@yaSSL@@@yaSSL@@YAXPAURMDImpl@RMD@0@@Z 00430030 f i mysqlclient:crypto_wrapper.obj
 0001:0002f030       ??$ysDelete@USHAImpl@SHA@yaSSL@@@yaSSL@@YAXPAUSHAImpl@SHA@0@@Z 00430030 f i mysqlclient:crypto_wrapper.obj
 0001:0002f030       ??$ysDelete@UMD5Impl@MD5@yaSSL@@@yaSSL@@YAXPAUMD5Impl@MD5@0@@Z 00430030 f i mysqlclient:crypto_wrapper.obj
 0001:0002f050       ??$ysDelete@UHMAC_SHAImpl@HMAC_SHA@yaSSL@@@yaSSL@@YAXPAUHMAC_SHAImpl@HMAC_SHA@0@@Z 00430050 f i mysqlclient:crypto_wrapper.obj
 0001:0002f050       ??$ysDelete@UHMAC_MD5Impl@HMAC_MD5@yaSSL@@@yaSSL@@YAXPAUHMAC_MD5Impl@HMAC_MD5@0@@Z 00430050 f i mysqlclient:crypto_wrapper.obj
 0001:0002f050       ??$ysDelete@UHMAC_RMDImpl@HMAC_RMD@yaSSL@@@yaSSL@@YAXPAUHMAC_RMDImpl@HMAC_RMD@0@@Z 00430050 f i mysqlclient:crypto_wrapper.obj
 0001:0002f070       ??$ysDelete@UDESImpl@DES@yaSSL@@@yaSSL@@YAXPAUDESImpl@DES@0@@Z 00430070 f i mysqlclient:crypto_wrapper.obj
 0001:0002f0a0       ??$ysDelete@UDES_EDEImpl@DES_EDE@yaSSL@@@yaSSL@@YAXPAUDES_EDEImpl@DES_EDE@0@@Z 004300a0 f i mysqlclient:crypto_wrapper.obj
 0001:0002f0d0       ??$ysDelete@UAESImpl@AES@yaSSL@@@yaSSL@@YAXPAUAESImpl@AES@0@@Z 004300d0 f i mysqlclient:crypto_wrapper.obj
 0001:0002f100       ??$ysDelete@URandomImpl@RandomPool@yaSSL@@@yaSSL@@YAXPAURandomImpl@RandomPool@0@@Z 00430100 f i mysqlclient:crypto_wrapper.obj
 0001:0002f120       ??$ysDelete@UDHImpl@DiffieHellman@yaSSL@@@yaSSL@@YAXPAUDHImpl@DiffieHellman@0@@Z 00430120 f i mysqlclient:crypto_wrapper.obj
 0001:0002f180       ??1MD5@yaSSL@@UAE@XZ       00430180 f   mysqlclient:crypto_wrapper.obj
 0001:0002f1a0       ??1SHA@yaSSL@@UAE@XZ       004301a0 f   mysqlclient:crypto_wrapper.obj
 0001:0002f1c0       ??1RMD@yaSSL@@UAE@XZ       004301c0 f   mysqlclient:crypto_wrapper.obj
 0001:0002f1e0       ??1HMAC_MD5@yaSSL@@UAE@XZ  004301e0 f   mysqlclient:crypto_wrapper.obj
 0001:0002f200       ??1HMAC_SHA@yaSSL@@UAE@XZ  00430200 f   mysqlclient:crypto_wrapper.obj
 0001:0002f220       ??1HMAC_RMD@yaSSL@@UAE@XZ  00430220 f   mysqlclient:crypto_wrapper.obj
 0001:0002f240       ??1DES@yaSSL@@UAE@XZ       00430240 f   mysqlclient:crypto_wrapper.obj
 0001:0002f260       ??1DES_EDE@yaSSL@@UAE@XZ   00430260 f   mysqlclient:crypto_wrapper.obj
 0001:0002f280       ??1AES@yaSSL@@UAE@XZ       00430280 f   mysqlclient:crypto_wrapper.obj
 0001:0002f2a0       ??1RandomPool@yaSSL@@QAE@XZ 004302a0 f   mysqlclient:crypto_wrapper.obj
 0001:0002f2b0       ?SetPublic@DSSImpl@DSS@yaSSL@@QAEXPBEI@Z 004302b0 f   mysqlclient:crypto_wrapper.obj
 0001:0002f330       ?SetPrivate@DSSImpl@DSS@yaSSL@@QAEXPBEI@Z 00430330 f   mysqlclient:crypto_wrapper.obj
 0001:0002f410       ??0DSS@yaSSL@@QAE@PBEI_N@Z 00430410 f   mysqlclient:crypto_wrapper.obj
 0001:0002f470       ?SetPublic@RSAImpl@RSA@yaSSL@@QAEXPBEI@Z 00430470 f   mysqlclient:crypto_wrapper.obj
 0001:0002f4f0       ?SetPrivate@RSAImpl@RSA@yaSSL@@QAEXPBEI@Z 004304f0 f   mysqlclient:crypto_wrapper.obj
 0001:0002f5c0       ??0RSA@yaSSL@@QAE@PBEI_N@Z 004305c0 f   mysqlclient:crypto_wrapper.obj
 0001:0002f620       ??1DiffieHellman@yaSSL@@QAE@XZ 00430620 f   mysqlclient:crypto_wrapper.obj
 0001:0002f630       ??$ysDelete@UDSSImpl@DSS@yaSSL@@@yaSSL@@YAXPAUDSSImpl@DSS@0@@Z 00430630 f i mysqlclient:crypto_wrapper.obj
 0001:0002f690       ??$ysDelete@URSAImpl@RSA@yaSSL@@@yaSSL@@YAXPAURSAImpl@RSA@0@@Z 00430690 f i mysqlclient:crypto_wrapper.obj
 0001:0002f6d0       ??$ysDelete@UIntegerImpl@Integer@yaSSL@@@yaSSL@@YAXPAUIntegerImpl@Integer@0@@Z 004306d0 f i mysqlclient:crypto_wrapper.obj
 0001:0002f700       ??_EMD5@yaSSL@@UAEPAXI@Z   00430700 f i mysqlclient:crypto_wrapper.obj
 0001:0002f700       ??_GMD5@yaSSL@@UAEPAXI@Z   00430700 f i mysqlclient:crypto_wrapper.obj
 0001:0002f720       ??_GSHA@yaSSL@@UAEPAXI@Z   00430720 f i mysqlclient:crypto_wrapper.obj
 0001:0002f720       ??_ESHA@yaSSL@@UAEPAXI@Z   00430720 f i mysqlclient:crypto_wrapper.obj
 0001:0002f740       ??_ERMD@yaSSL@@UAEPAXI@Z   00430740 f i mysqlclient:crypto_wrapper.obj
 0001:0002f740       ??_GRMD@yaSSL@@UAEPAXI@Z   00430740 f i mysqlclient:crypto_wrapper.obj
 0001:0002f760       ??_EHMAC_MD5@yaSSL@@UAEPAXI@Z 00430760 f i mysqlclient:crypto_wrapper.obj
 0001:0002f760       ??_GHMAC_MD5@yaSSL@@UAEPAXI@Z 00430760 f i mysqlclient:crypto_wrapper.obj
 0001:0002f780       ??_GHMAC_SHA@yaSSL@@UAEPAXI@Z 00430780 f i mysqlclient:crypto_wrapper.obj
 0001:0002f780       ??_EHMAC_SHA@yaSSL@@UAEPAXI@Z 00430780 f i mysqlclient:crypto_wrapper.obj
 0001:0002f7a0       ??_EHMAC_RMD@yaSSL@@UAEPAXI@Z 004307a0 f i mysqlclient:crypto_wrapper.obj
 0001:0002f7a0       ??_GHMAC_RMD@yaSSL@@UAEPAXI@Z 004307a0 f i mysqlclient:crypto_wrapper.obj
 0001:0002f7c0       ??_GDES@yaSSL@@UAEPAXI@Z   004307c0 f i mysqlclient:crypto_wrapper.obj
 0001:0002f7c0       ??_EDES@yaSSL@@UAEPAXI@Z   004307c0 f i mysqlclient:crypto_wrapper.obj
 0001:0002f7e0       ??_EDES_EDE@yaSSL@@UAEPAXI@Z 004307e0 f i mysqlclient:crypto_wrapper.obj
 0001:0002f7e0       ??_GDES_EDE@yaSSL@@UAEPAXI@Z 004307e0 f i mysqlclient:crypto_wrapper.obj
 0001:0002f800       ??_EAES@yaSSL@@UAEPAXI@Z   00430800 f i mysqlclient:crypto_wrapper.obj
 0001:0002f800       ??_GAES@yaSSL@@UAEPAXI@Z   00430800 f i mysqlclient:crypto_wrapper.obj
 0001:0002f820       ??1DSS@yaSSL@@UAE@XZ       00430820 f   mysqlclient:crypto_wrapper.obj
 0001:0002f840       ??1RSA@yaSSL@@UAE@XZ       00430840 f   mysqlclient:crypto_wrapper.obj
 0001:0002f860       ??1Integer@yaSSL@@QAE@XZ   00430860 f   mysqlclient:crypto_wrapper.obj
 0001:0002f870       ?Decrypt@?$RSA_Decryptor@VRSA_BlockType2@TaoCrypt@@@TaoCrypt@@QAEIPBEIPAEAAVRandomNumberGenerator@2@@Z 00430870 f i mysqlclient:crypto_wrapper.obj
 0001:0002f970       ?Encrypt@?$RSA_Encryptor@VRSA_BlockType2@TaoCrypt@@@TaoCrypt@@QAEXPBEIPAEAAVRandomNumberGenerator@2@@Z 00430970 f i mysqlclient:crypto_wrapper.obj
 0001:0002fa50       ?SSL_Verify@?$RSA_Encryptor@VRSA_BlockType2@TaoCrypt@@@TaoCrypt@@QAE_NPBEI0@Z 00430a50 f i mysqlclient:crypto_wrapper.obj
 0001:0002fb90       ?Encrypt@?$RSA_Encryptor@VRSA_BlockType1@TaoCrypt@@@TaoCrypt@@QAEXPBEIPAEAAVRandomNumberGenerator@2@@Z 00430b90 f i mysqlclient:crypto_wrapper.obj
 0001:0002fc70       ??0Base64Decoder@TaoCrypt@@QAE@AAVSource@1@@Z 00430c70 f i mysqlclient:crypto_wrapper.obj
 0001:0002fcc0       ??_EDSS@yaSSL@@UAEPAXI@Z   00430cc0 f i mysqlclient:crypto_wrapper.obj
 0001:0002fcc0       ??_GDSS@yaSSL@@UAEPAXI@Z   00430cc0 f i mysqlclient:crypto_wrapper.obj
 0001:0002fce0       ??_ERSA@yaSSL@@UAEPAXI@Z   00430ce0 f i mysqlclient:crypto_wrapper.obj
 0001:0002fce0       ??_GRSA@yaSSL@@UAEPAXI@Z   00430ce0 f i mysqlclient:crypto_wrapper.obj
 0001:0002fd00       ?verify@RSA@yaSSL@@UAE_NPBEI0I@Z 00430d00 f   mysqlclient:crypto_wrapper.obj
 0001:0002fd30       ?encrypt@RSA@yaSSL@@QAEXPAEPBEIABVRandomPool@2@@Z 00430d30 f   mysqlclient:crypto_wrapper.obj
 0001:0002fd60       ?decrypt@RSA@yaSSL@@QAEXPAEPBEIABVRandomPool@2@@Z 00430d60 f   mysqlclient:crypto_wrapper.obj
 0001:0002fda0       ?PemToDer@yaSSL@@YAPAVx509@1@PAU_iobuf@@W4CertType@1@PAUEncryptedInfo@1@@Z 00430da0 f   mysqlclient:crypto_wrapper.obj
 0001:00030180       ?SSL_Sign@?$RSA_Decryptor@VRSA_BlockType2@TaoCrypt@@@TaoCrypt@@QAEXPBEIPAEAAVRandomNumberGenerator@2@@Z 00431180 f i mysqlclient:crypto_wrapper.obj
 0001:00030210       ?sign@RSA@yaSSL@@UAEXPAEPBEIABVRandomPool@2@@Z 00431210 f   mysqlclient:crypto_wrapper.obj
 0001:00030250       ?Init@MD5@TaoCrypt@@UAEXXZ 00431250 f   mysqlclient:md5.obj
 0001:00030280       ??0MD5@TaoCrypt@@QAE@ABV01@@Z 00431280 f   mysqlclient:md5.obj
 0001:000302e0       ?AsmTransform@MD5@TaoCrypt@@AAEXPBEI@Z 004312e0 f   mysqlclient:md5.obj
 0001:00030970       ?Transform@MD5@TaoCrypt@@EAEXXZ 00431970 f   mysqlclient:md5.obj
 0001:00030f70       ?Swap@MD5@TaoCrypt@@QAEXAAV12@@Z 00431f70 f   mysqlclient:md5.obj
 0001:00030fd0       ?Update@MD5@TaoCrypt@@UAEXPBEI@Z 00431fd0 f   mysqlclient:md5.obj
 0001:000310b0       ??4MD5@TaoCrypt@@QAEAAV01@ABV01@@Z 004320b0 f   mysqlclient:md5.obj
 0001:000310e0       ??$ByteReverse@I@TaoCrypt@@YAXPAIPBII@Z 004320e0 f i mysqlclient:hash.cpp.obj
 0001:00031120       ??0HASHwithTransform@TaoCrypt@@QAE@II@Z 00432120 f   mysqlclient:hash.cpp.obj
 0001:00031130       ?AddLength@HASHwithTransform@TaoCrypt@@IAEXI@Z 00432130 f   mysqlclient:hash.cpp.obj
 0001:00031150       ?Update@HASHwithTransform@TaoCrypt@@UAEXPBEI@Z 00432150 f   mysqlclient:hash.cpp.obj
 0001:00031220       ?Final@HASHwithTransform@TaoCrypt@@UAEXPAE@Z 00432220 f   mysqlclient:hash.cpp.obj
 0001:00031370       ?build@ServerKeyBase@yaSSL@@UAEXAAVSSL@2@@Z 00432370 f i mysqlclient:yassl_imp.obj
 0001:00031370       ?build@ClientKeyBase@yaSSL@@UAEXAAVSSL@2@@Z 00432370 f i mysqlclient:yassl_imp.obj
 0001:00031370       _mysql_debug@4             00432370 f i mysqlclient:libmysql.obj
 0001:00031370       ?Trace@Log@yaSSL@@QAEXPBD@Z 00432370 f i mysqlclient:log.obj
 0001:00031380       ??_GClientKeyBase@yaSSL@@UAEPAXI@Z 00432380 f i mysqlclient:yassl_imp.obj
 0001:00031380       ??_EClientKeyBase@yaSSL@@UAEPAXI@Z 00432380 f i mysqlclient:yassl_imp.obj
 0001:00031380       ??_GFortezzaKeys@yaSSL@@UAEPAXI@Z 00432380 f i mysqlclient:yassl_imp.obj
 0001:00031380       ??_EFortezzaKeys@yaSSL@@UAEPAXI@Z 00432380 f i mysqlclient:yassl_imp.obj
 0001:000313a0       ?isTLS@?A0x8a8c2c2e@yaSSL@@YA_NUProtocolVersion@2@@Z 004323a0 f   mysqlclient:yassl_imp.obj
 0001:000313c0       ??0ProtocolVersion@yaSSL@@QAE@EE@Z 004323c0 f   mysqlclient:yassl_imp.obj
 0001:000313e0       ?alloc@EncryptedPreMasterSecret@yaSSL@@QAEXH@Z 004323e0 f   mysqlclient:yassl_imp.obj
 0001:00031400       ??0ClientDiffieHellmanPublic@yaSSL@@QAE@XZ 00432400 f   mysqlclient:yassl_imp.obj
 0001:00031420       ?get_p@ServerDHParams@yaSSL@@QBEPBEXZ 00432420 f   mysqlclient:yassl_imp.obj
 0001:00031420       ?get_clientKey@ClientDiffieHellmanPublic@yaSSL@@UBEPAEXZ 00432420 f   mysqlclient:yassl_imp.obj
 0001:00031430       ?alloc@ClientDiffieHellmanPublic@yaSSL@@QAEXH_N@Z 00432430 f   mysqlclient:yassl_imp.obj
 0001:00031460       ?get_length@DH_Server@yaSSL@@UBEHXZ 00432460 f   mysqlclient:yassl_imp.obj
 0001:00031470       ?get_serverKey@DH_Server@yaSSL@@UBEPAEXZ 00432470 f   mysqlclient:yassl_imp.obj
 0001:00031480       ?SetCipherNames@Parameters@yaSSL@@QAEXXZ 00432480 f   mysqlclient:yassl_imp.obj
 0001:00031510       ??5yaSSL@@YAAAVinput_buffer@0@AAV10@AAURecordLayerHeader@0@@Z 00432510 f   mysqlclient:yassl_imp.obj
 0001:00031590       ??6yaSSL@@YAAAVoutput_buffer@0@AAV10@ABURecordLayerHeader@0@@Z 00432590 f   mysqlclient:yassl_imp.obj
 0001:00031610       ??5yaSSL@@YAAAVinput_buffer@0@AAV10@AAUMessage@0@@Z 00432610 f   mysqlclient:yassl_imp.obj
 0001:00031620       ??5yaSSL@@YAAAVinput_buffer@0@AAV10@AAVHandShakeHeader@0@@Z 00432620 f   mysqlclient:yassl_imp.obj
 0001:00031680       ??6yaSSL@@YAAAVoutput_buffer@0@AAV10@ABVHandShakeHeader@0@@Z 00432680 f   mysqlclient:yassl_imp.obj
 0001:000316b0       ?get_type@HandShakeHeader@yaSSL@@UBE?AW4ContentType@2@XZ 004326b0 f   mysqlclient:yassl_imp.obj
 0001:000316c0       ?get_length@HandShakeHeader@yaSSL@@UBEGXZ 004326c0 f   mysqlclient:yassl_imp.obj
 0001:000316d0       ?get_buffer@x509@yaSSL@@QBEPBEXZ 004326d0 f   mysqlclient:cert_wrapper.obj
 0001:000316d0       ?get_buffer@output_buffer@yaSSL@@QBEPBEXZ 004326d0 f   mysqlclient:buffer.obj
 0001:000316d0       ?get_current@input_buffer@yaSSL@@QBEIXZ 004326d0 f   mysqlclient:buffer.obj
 0001:000316d0       ?use_buffer@x509@yaSSL@@QAEPAEXZ 004326d0 f   mysqlclient:cert_wrapper.obj
 0001:000316d0       ?getCert@SSL_CTX@yaSSL@@QBEPBVx509@2@XZ 004326d0 f   mysqlclient:yassl_int.obj
 0001:000316d0       ?get_cipher@Crypto@yaSSL@@QBEABUBulkCipher@2@XZ 004326d0 f   mysqlclient:yassl_int.obj
 0001:000316d0       ?get_length@HandShakeBase@yaSSL@@QBEHXZ 004326d0 f   mysqlclient:yassl_imp.obj
 0001:000316d0       ?get_gSize@ServerDHParams@yaSSL@@QBEHXZ 004326d0 f   mysqlclient:yassl_imp.obj
 0001:000316d0       ?GetLength@X509_NAME@yaSSL@@QBEIXZ 004326d0 f   mysqlclient:yassl_int.obj
 0001:000316d0       ?getSide@SSL_METHOD@yaSSL@@QBE?AW4ConnectionEnd@2@XZ 004326d0 f   mysqlclient:yassl_int.obj
 0001:000316d0       ?get_clientKey@EncryptedPreMasterSecret@yaSSL@@UBEPAEXZ 004326d0 f   mysqlclient:yassl_imp.obj
 0001:000316d0       ?get_handshakeType@HandShakeHeader@yaSSL@@QBE?AW4HandShakeType@2@XZ 004326d0 f   mysqlclient:yassl_imp.obj
 0001:000316d0       ?use_cipher@Crypto@yaSSL@@QAEAAUBulkCipher@2@XZ 004326d0 f   mysqlclient:yassl_int.obj
 0001:000316e0       ?set_current@input_buffer@yaSSL@@QAEXI@Z 004326e0 f   mysqlclient:buffer.obj
 0001:000316e0       ?set_length@HandShakeBase@yaSSL@@QAEXH@Z 004326e0 f   mysqlclient:yassl_imp.obj
 0001:000316e0       ?setCipher@Crypto@yaSSL@@QAEXPAUBulkCipher@2@@Z 004326e0 f   mysqlclient:yassl_int.obj
 0001:000316e0       ?set_type@HandShakeHeader@yaSSL@@QAEXW4HandShakeType@2@@Z 004326e0 f   mysqlclient:yassl_imp.obj
 0001:000316f0       ?set_length@HandShakeHeader@yaSSL@@QAEXI@Z 004326f0 f   mysqlclient:yassl_imp.obj
 0001:00031710       ?set@HandShakeHeader@yaSSL@@UAEAAVinput_buffer@2@AAV32@@Z 00432710 f   mysqlclient:yassl_imp.obj
 0001:00031730       ?get@HandShakeHeader@yaSSL@@UBEAAVoutput_buffer@2@AAV32@@Z 00432730 f   mysqlclient:yassl_imp.obj
 0001:00031750       ??5yaSSL@@YAAAVinput_buffer@0@AAV10@AAVChangeCipherSpec@0@@Z 00432750 f   mysqlclient:yassl_imp.obj
 0001:00031770       ??6yaSSL@@YAAAVoutput_buffer@0@AAV10@ABVChangeCipherSpec@0@@Z 00432770 f   mysqlclient:yassl_imp.obj
 0001:00031790       ??0ChangeCipherSpec@yaSSL@@QAE@XZ 00432790 f   mysqlclient:yassl_imp.obj
 0001:000317a0       ?set@ChangeCipherSpec@yaSSL@@UAEAAVinput_buffer@2@AAV32@@Z 004327a0 f   mysqlclient:yassl_imp.obj
 0001:000317c0       ?get@ChangeCipherSpec@yaSSL@@UBEAAVoutput_buffer@2@AAV32@@Z 004327c0 f   mysqlclient:yassl_imp.obj
 0001:000317e0       ?get_length@ChangeCipherSpec@yaSSL@@UBEGXZ 004327e0 f   mysqlclient:yassl_imp.obj
 0001:000317f0       ?Process@ChangeCipherSpec@yaSSL@@UAEXAAVinput_buffer@2@AAVSSL@2@@Z 004327f0 f   mysqlclient:yassl_imp.obj
 0001:00031870       ??0Alert@yaSSL@@QAE@W4AlertLevel@1@W4AlertDescription@1@@Z 00432870 f   mysqlclient:yassl_imp.obj
 0001:00031890       ?get_type@Alert@yaSSL@@UBE?AW4ContentType@2@XZ 00432890 f   mysqlclient:yassl_imp.obj
 0001:000318a0       ?get_length@Alert@yaSSL@@UBEGXZ 004328a0 f   mysqlclient:yassl_imp.obj
 0001:000318b0       ??5yaSSL@@YAAAVinput_buffer@0@AAV10@AAVAlert@0@@Z 004328b0 f   mysqlclient:yassl_imp.obj
 0001:000318f0       ??6yaSSL@@YAAAVoutput_buffer@0@AAV10@ABVAlert@0@@Z 004328f0 f   mysqlclient:yassl_imp.obj
 0001:00031930       ?Process@Alert@yaSSL@@UAEXAAVinput_buffer@2@AAVSSL@2@@Z 00432930 f   mysqlclient:yassl_imp.obj
 0001:00031b40       ??0Data@yaSSL@@QAE@XZ      00432b40 f   mysqlclient:yassl_imp.obj
 0001:00031b60       ??0Data@yaSSL@@QAE@GPAE@Z  00432b60 f   mysqlclient:yassl_imp.obj
 0001:00031b90       ?SetData@Data@yaSSL@@QAEXGPBE@Z 00432b90 f   mysqlclient:yassl_imp.obj
 0001:00031bb0       ?get_type@Data@yaSSL@@UBE?AW4ContentType@2@XZ 00432bb0 f   mysqlclient:yassl_imp.obj
 0001:00031bc0       ?get_length@Data@yaSSL@@UBEGXZ 00432bc0 f   mysqlclient:yassl_imp.obj
 0001:00031bd0       ?set_length@Data@yaSSL@@QAEXG@Z 00432bd0 f   mysqlclient:yassl_imp.obj
 0001:00031be0       ?use_dh@Crypto@yaSSL@@QAEAAVDiffieHellman@2@XZ 00432be0 f   mysqlclient:yassl_int.obj
 0001:00031be0       ?getKey@SSL_CTX@yaSSL@@QBEPBVx509@2@XZ 00432be0 f   mysqlclient:yassl_int.obj
 0001:00031be0       ?set_buffer@Data@yaSSL@@QAEPAEXZ 00432be0 f   mysqlclient:yassl_imp.obj
 0001:00031be0       ?get_buffer@input_buffer@yaSSL@@QBEPAEXZ 00432be0 f   mysqlclient:buffer.obj
 0001:00031be0       ?get_length@ClientDiffieHellmanPublic@yaSSL@@UBEHXZ 00432be0 f   mysqlclient:yassl_imp.obj
 0001:00031be0       ?get_pubSize@ServerDHParams@yaSSL@@QBEHXZ 00432be0 f   mysqlclient:yassl_imp.obj
 0001:00031be0       ?get_length@EncryptedPreMasterSecret@yaSSL@@UBEHXZ 00432be0 f   mysqlclient:yassl_imp.obj
 0001:00031bf0       ??6yaSSL@@YAAAVoutput_buffer@0@AAV10@ABVData@0@@Z 00432bf0 f   mysqlclient:yassl_imp.obj
 0001:00031cf0       ??5yaSSL@@YAAAVinput_buffer@0@AAV10@AAVHandShakeBase@0@@Z 00432cf0 f   mysqlclient:yassl_imp.obj
 0001:00031cf0       ??6yaSSL@@YAAAVoutput_buffer@0@AAV10@ABUMessage@0@@Z 00432cf0 f   mysqlclient:yassl_imp.obj
 0001:00031d10       ??6yaSSL@@YAAAVoutput_buffer@0@AAV10@ABVHandShakeBase@0@@Z 00432d10 f   mysqlclient:yassl_imp.obj
 0001:00031d30       ?get_buffer@Certificate@yaSSL@@QBEPBEXZ 00432d30 f   mysqlclient:yassl_imp.obj
 0001:00031d40       ??6yaSSL@@YAAAVoutput_buffer@0@AAV10@ABVCertificate@0@@Z 00432d40 f   mysqlclient:yassl_imp.obj
 0001:00031db0       ?Process@Certificate@yaSSL@@UAEXAAVinput_buffer@2@AAVSSL@2@@Z 00432db0 f   mysqlclient:yassl_imp.obj
 0001:00031f60       ??0Certificate@yaSSL@@QAE@XZ 00432f60 f   mysqlclient:yassl_imp.obj
 0001:00031f70       ?get@Certificate@yaSSL@@UBEAAVoutput_buffer@2@AAV32@@Z 00432f70 f   mysqlclient:yassl_imp.obj
 0001:00031f90       ?get_type@Certificate@yaSSL@@UBE?AW4HandShakeType@2@XZ 00432f90 f   mysqlclient:yassl_imp.obj
 0001:00031fa0       ??0ServerDHParams@yaSSL@@QAE@XZ 00432fa0 f   mysqlclient:yassl_imp.obj
 0001:00031fc0       ?get_g@ServerDHParams@yaSSL@@QBEPBEXZ 00432fc0 f   mysqlclient:yassl_imp.obj
 0001:00031fd0       ?get_pub@ServerDHParams@yaSSL@@QBEPBEXZ 00432fd0 f   mysqlclient:yassl_imp.obj
 0001:00031fe0       ?alloc_p@ServerDHParams@yaSSL@@QAEPAEH@Z 00432fe0 f   mysqlclient:yassl_imp.obj
 0001:00032000       ?alloc_g@ServerDHParams@yaSSL@@QAEPAEH@Z 00433000 f   mysqlclient:yassl_imp.obj
 0001:00032020       ?alloc_pub@ServerDHParams@yaSSL@@QAEPAEH@Z 00433020 f   mysqlclient:yassl_imp.obj
 0001:00032040       ??5yaSSL@@YAAAVinput_buffer@0@AAV10@AAVServerHello@0@@Z 00433040 f   mysqlclient:yassl_imp.obj
 0001:000320e0       ??6yaSSL@@YAAAVoutput_buffer@0@AAV10@ABVServerHello@0@@Z 004330e0 f   mysqlclient:yassl_imp.obj
 0001:00032180       ??0ServerHello@yaSSL@@QAE@XZ 00433180 f   mysqlclient:yassl_imp.obj
 0001:000321d0       ?set@ServerHello@yaSSL@@UAEAAVinput_buffer@2@AAV32@@Z 004331d0 f   mysqlclient:yassl_imp.obj
 0001:000321f0       ?get@ServerHello@yaSSL@@UBEAAVoutput_buffer@2@AAV32@@Z 004331f0 f   mysqlclient:yassl_imp.obj
 0001:00032210       ?Process@ServerHelloDone@yaSSL@@UAEXAAVinput_buffer@2@AAVSSL@2@@Z 00433210 f   mysqlclient:yassl_imp.obj
 0001:00032230       ??0ServerHelloDone@yaSSL@@QAE@XZ 00433230 f   mysqlclient:yassl_imp.obj
 0001:00032240       ?set@ServerHelloDone@yaSSL@@UAEAAVinput_buffer@2@AAV32@@Z 00433240 f   mysqlclient:yassl_imp.obj
 0001:00032240       ?set@ServerKeyExchange@yaSSL@@UAEAAVinput_buffer@2@AAV32@@Z 00433240 f   mysqlclient:yassl_imp.obj
 0001:00032240       ?get@HelloRequest@yaSSL@@UBEAAVoutput_buffer@2@AAV32@@Z 00433240 f   mysqlclient:yassl_imp.obj
 0001:00032240       ?set@ClientKeyExchange@yaSSL@@UAEAAVinput_buffer@2@AAV32@@Z 00433240 f   mysqlclient:yassl_imp.obj
 0001:00032240       ?get@ServerHelloDone@yaSSL@@UBEAAVoutput_buffer@2@AAV32@@Z 00433240 f   mysqlclient:yassl_imp.obj
 0001:00032240       ?set@Data@yaSSL@@UAEAAVinput_buffer@2@AAV32@@Z 00433240 f   mysqlclient:yassl_imp.obj
 0001:00032240       ?set@Certificate@yaSSL@@UAEAAVinput_buffer@2@AAV32@@Z 00433240 f   mysqlclient:yassl_imp.obj
 0001:00032240       ?set@HelloRequest@yaSSL@@UAEAAVinput_buffer@2@AAV32@@Z 00433240 f   mysqlclient:yassl_imp.obj
 0001:00032250       ?get_type@ServerHelloDone@yaSSL@@UBE?AW4HandShakeType@2@XZ 00433250 f   mysqlclient:yassl_imp.obj
 0001:00032260       ??5yaSSL@@YAAAVinput_buffer@0@AAV10@AAVClientHello@0@@Z 00433260 f   mysqlclient:yassl_imp.obj
 0001:000323e0       ??6yaSSL@@YAAAVoutput_buffer@0@AAV10@ABVClientHello@0@@Z 004333e0 f   mysqlclient:yassl_imp.obj
 0001:000324c0       ?set@ClientHello@yaSSL@@UAEAAVinput_buffer@2@AAV32@@Z 004334c0 f   mysqlclient:yassl_imp.obj
 0001:000324e0       ?get@ClientHello@yaSSL@@UBEAAVoutput_buffer@2@AAV32@@Z 004334e0 f   mysqlclient:yassl_imp.obj
 0001:00032500       _yaSSL_library_init        00433500 f   mysqlclient:ssl.obj
 0001:00032500       _my_mbcharlen_8bit         00433500 f   mysqlclient:ctype-bin.obj
 0001:00032500       ?get_type@ClientHello@yaSSL@@UBE?AW4HandShakeType@2@XZ 00433500 f   mysqlclient:yassl_imp.obj
 0001:00032500       ?getByteOrder@SHA@TaoCrypt@@UBE?AW4ByteOrder@2@XZ 00433500 f   mysqlclient:crypto_wrapper.obj
 0001:00032510       ?get_random@ClientHello@yaSSL@@QBEPBEXZ 00433510 f   mysqlclient:yassl_imp.obj
 0001:00032520       ??0ClientHello@yaSSL@@QAE@XZ 00433520 f   mysqlclient:yassl_imp.obj
 0001:00032560       ??0ClientHello@yaSSL@@QAE@UProtocolVersion@1@_N@Z 00433560 f   mysqlclient:yassl_imp.obj
 0001:000325b0       ??0ServerKeyExchange@yaSSL@@QAE@XZ 004335b0 f   mysqlclient:yassl_imp.obj
 0001:000325c0       ?get_type@ServerKeyExchange@yaSSL@@UBE?AW4HandShakeType@2@XZ 004335c0 f   mysqlclient:yassl_imp.obj
 0001:000325d0       ?Process@CertificateRequest@yaSSL@@UAEXAAVinput_buffer@2@AAVSSL@2@@Z 004335d0 f   mysqlclient:yassl_imp.obj
 0001:00032610       ?get_type@CertificateRequest@yaSSL@@UBE?AW4HandShakeType@2@XZ 00433610 f   mysqlclient:yassl_imp.obj
 0001:00032620       ??0CertificateVerify@yaSSL@@QAE@XZ 00433620 f   mysqlclient:yassl_imp.obj
 0001:00032630       ??5yaSSL@@YAAAVinput_buffer@0@AAV10@AAVCertificateVerify@0@@Z 00433630 f   mysqlclient:yassl_imp.obj
 0001:00032690       ??6yaSSL@@YAAAVoutput_buffer@0@AAV10@ABVCertificateVerify@0@@Z 00433690 f   mysqlclient:yassl_imp.obj
 0001:000326b0       ?Process@CertificateVerify@yaSSL@@UAEXAAVinput_buffer@2@AAVSSL@2@@Z 004336b0 f   mysqlclient:yassl_imp.obj
 0001:000327d0       ?get_type@CertificateVerify@yaSSL@@UBE?AW4HandShakeType@2@XZ 004337d0 f   mysqlclient:yassl_imp.obj
 0001:000327e0       ??0ClientKeyExchange@yaSSL@@QAE@XZ 004337e0 f   mysqlclient:yassl_imp.obj
 0001:000327f0       ?build@ClientKeyExchange@yaSSL@@QAEXAAVSSL@2@@Z 004337f0 f   mysqlclient:yassl_imp.obj
 0001:00032820       ?getKey@ClientKeyExchange@yaSSL@@QBEPBEXZ 00433820 f   mysqlclient:yassl_imp.obj
 0001:00032820       ?getKey@ServerKeyExchange@yaSSL@@QBEPBEXZ 00433820 f   mysqlclient:yassl_imp.obj
 0001:00032830       ?getKeyLength@ClientKeyExchange@yaSSL@@QBEHXZ 00433830 f   mysqlclient:yassl_imp.obj
 0001:00032830       ?getKeyLength@ServerKeyExchange@yaSSL@@QBEHXZ 00433830 f   mysqlclient:yassl_imp.obj
 0001:00032840       ??5yaSSL@@YAAAVinput_buffer@0@AAV10@AAVFinished@0@@Z 00433840 f   mysqlclient:yassl_imp.obj
 0001:00032850       ??6yaSSL@@YAAAVoutput_buffer@0@AAV10@ABVFinished@0@@Z 00433850 f   mysqlclient:yassl_imp.obj
 0001:000328a0       ?Process@Finished@yaSSL@@UAEXAAVinput_buffer@2@AAVSSL@2@@Z 004338a0 f   mysqlclient:yassl_imp.obj
 0001:00032bb0       ??0Finished@yaSSL@@QAE@XZ  00433bb0 f   mysqlclient:yassl_imp.obj
 0001:00032bc0       ?set@Finished@yaSSL@@UAEAAVinput_buffer@2@AAV32@@Z 00433bc0 f   mysqlclient:yassl_imp.obj
 0001:00032be0       ?get@Finished@yaSSL@@UBEAAVoutput_buffer@2@AAV32@@Z 00433be0 f   mysqlclient:yassl_imp.obj
 0001:00032c00       ?clean@yaSSL@@YAXPCEIAAVRandomPool@1@@Z 00433c00 f   mysqlclient:yassl_imp.obj
 0001:00032c40       ??0Connection@yaSSL@@QAE@UProtocolVersion@1@AAVRandomPool@1@@Z 00433c40 f   mysqlclient:yassl_imp.obj
 0001:00032cf0       ?AllocPreSecret@Connection@yaSSL@@QAEXI@Z 00433cf0 f   mysqlclient:yassl_imp.obj
 0001:00032d10       ?TurnOffTLS@Connection@yaSSL@@QAEXXZ 00433d10 f   mysqlclient:yassl_imp.obj
 0001:00032d20       ?TurnOffTLS1_1@Connection@yaSSL@@QAEXXZ 00433d20 f   mysqlclient:yassl_imp.obj
 0001:00032d30       ?CleanMaster@Connection@yaSSL@@QAEXXZ 00433d30 f   mysqlclient:yassl_imp.obj
 0001:00032d60       ?CreateCipherSpec@yaSSL@@YAPAUMessage@1@XZ 00433d60 f   mysqlclient:yassl_imp.obj
 0001:00032d80       ?CreateHandShake@yaSSL@@YAPAUMessage@1@XZ 00433d80 f   mysqlclient:yassl_imp.obj
 0001:00032da0       ?CreateData@yaSSL@@YAPAUMessage@1@XZ 00433da0 f   mysqlclient:yassl_imp.obj
 0001:00032dc0       ?CreateClientHello@yaSSL@@YAPAVHandShakeBase@1@XZ 00433dc0 f   mysqlclient:yassl_imp.obj
 0001:00032de0       ?CreateServerHello@yaSSL@@YAPAVHandShakeBase@1@XZ 00433de0 f   mysqlclient:yassl_imp.obj
 0001:00032e00       ?CreateCertificate@yaSSL@@YAPAVHandShakeBase@1@XZ 00433e00 f   mysqlclient:yassl_imp.obj
 0001:00032e20       ?CreateServerKeyExchange@yaSSL@@YAPAVHandShakeBase@1@XZ 00433e20 f   mysqlclient:yassl_imp.obj
 0001:00032e40       ?CreateServerHelloDone@yaSSL@@YAPAVHandShakeBase@1@XZ 00433e40 f   mysqlclient:yassl_imp.obj
 0001:00032e60       ?CreateCertificateVerify@yaSSL@@YAPAVHandShakeBase@1@XZ 00433e60 f   mysqlclient:yassl_imp.obj
 0001:00032e80       ?CreateClientKeyExchange@yaSSL@@YAPAVHandShakeBase@1@XZ 00433e80 f   mysqlclient:yassl_imp.obj
 0001:00032ea0       ?CreateFinished@yaSSL@@YAPAVHandShakeBase@1@XZ 00433ea0 f   mysqlclient:yassl_imp.obj
 0001:00032ec0       ?CreateDHClient@yaSSL@@YAPAUClientKeyBase@1@XZ 00433ec0 f   mysqlclient:yassl_imp.obj
 0001:00032ee0       ??$tcDelete@VHASH@TaoCrypt@@@TaoCrypt@@YAXPAVHASH@0@@Z 00433ee0 f i mysqlclient:asn.obj
 0001:00032ee0       ??$ysDelete@UServerKeyBase@yaSSL@@@yaSSL@@YAXPAUServerKeyBase@0@@Z 00433ee0 f i mysqlclient:yassl_imp.obj
 0001:00032ee0       ??$ysDelete@UClientKeyBase@yaSSL@@@yaSSL@@YAXPAUClientKeyBase@0@@Z 00433ee0 f i mysqlclient:yassl_imp.obj
 0001:00032f00       ??$ysDelete@UAuth@yaSSL@@@yaSSL@@YAXPAUAuth@0@@Z 00433f00 f i mysqlclient:yassl_imp.obj
 0001:00032f20       ??$ysDelete@VHandShakeBase@yaSSL@@@yaSSL@@YAXPAVHandShakeBase@0@@Z 00433f20 f i mysqlclient:yassl_imp.obj
 0001:00032f40       ??$uninit_copy@PAU?$pair@HP6APAUServerKeyBase@yaSSL@@XZ@mySTL@@PAU12@@mySTL@@YAPAU?$pair@HP6APAUServerKeyBase@yaSSL@@XZ@0@PAU10@00@Z 00433f40 f i mysqlclient:yassl_imp.obj
 0001:00032f40       ??$uninit_copy@PAU?$pair@HP6APAVHandShakeBase@yaSSL@@XZ@mySTL@@PAU12@@mySTL@@YAPAU?$pair@HP6APAVHandShakeBase@yaSSL@@XZ@0@PAU10@00@Z 00433f40 f i mysqlclient:yassl_imp.obj
 0001:00032f40       ??$uninit_copy@PAU?$pair@HP6APAUMessage@yaSSL@@XZ@mySTL@@PAU12@@mySTL@@YAPAU?$pair@HP6APAUMessage@yaSSL@@XZ@0@PAU10@00@Z 00433f40 f i mysqlclient:yassl_imp.obj
 0001:00032f40       ??$uninit_copy@PAU?$pair@HP6APAUClientKeyBase@yaSSL@@XZ@mySTL@@PAU12@@mySTL@@YAPAU?$pair@HP6APAUClientKeyBase@yaSSL@@XZ@0@PAU10@00@Z 00433f40 f i mysqlclient:yassl_imp.obj
 0001:00032f70       ??$GetArrayMemory@U?$pair@HP6APAUMessage@yaSSL@@XZ@mySTL@@@mySTL@@YAPAU?$pair@HP6APAUMessage@yaSSL@@XZ@0@I@Z 00433f70 f i mysqlclient:yassl_imp.obj
 0001:00032f70       ??$GetArrayMemory@U?$pair@HP6APAUClientKeyBase@yaSSL@@XZ@mySTL@@@mySTL@@YAPAU?$pair@HP6APAUClientKeyBase@yaSSL@@XZ@0@I@Z 00433f70 f i mysqlclient:yassl_imp.obj
 0001:00032f70       ??$GetArrayMemory@U?$pair@HP6APAUServerKeyBase@yaSSL@@XZ@mySTL@@@mySTL@@YAPAU?$pair@HP6APAUServerKeyBase@yaSSL@@XZ@0@I@Z 00433f70 f i mysqlclient:yassl_imp.obj
 0001:00032f70       ??$GetArrayMemory@U?$pair@HP6APAVHandShakeBase@yaSSL@@XZ@mySTL@@@mySTL@@YAPAU?$pair@HP6APAVHandShakeBase@yaSSL@@XZ@0@I@Z 00433f70 f i mysqlclient:yassl_imp.obj
 0001:00032f90       ??$ysDelete@VSSL_METHOD@yaSSL@@@yaSSL@@YAXPAVSSL_METHOD@0@@Z 00433f90 f i mysqlclient:yassl_int.obj
 0001:00032f90       ??$ysDelete@E@yaSSL@@YAXPAE@Z 00433f90 f i mysqlclient:yassl_imp.obj
 0001:00032f90       ??$ysDelete@UDH@yaSSL@@@yaSSL@@YAXPAUDH@0@@Z 00433f90 f i mysqlclient:ssl.obj
 0001:00032f90       ??$ysDelete@URC4Impl@RC4@yaSSL@@@yaSSL@@YAXPAURC4Impl@RC4@0@@Z 00433f90 f i mysqlclient:crypto_wrapper.obj
 0001:00032fa0       ?build@EncryptedPreMasterSecret@yaSSL@@UAEXAAVSSL@2@@Z 00433fa0 f   mysqlclient:yassl_imp.obj
 0001:000330d0       ?build@ClientDiffieHellmanPublic@yaSSL@@UAEXAAVSSL@2@@Z 004340d0 f   mysqlclient:yassl_imp.obj
 0001:00033180       ?read@EncryptedPreMasterSecret@yaSSL@@UAEXAAVSSL@2@AAVinput_buffer@2@@Z 00434180 f   mysqlclient:yassl_imp.obj
 0001:000332a0       ??0EncryptedPreMasterSecret@yaSSL@@QAE@XZ 004342a0 f   mysqlclient:yassl_imp.obj
 0001:000332c0       ??1EncryptedPreMasterSecret@yaSSL@@UAE@XZ 004342c0 f   mysqlclient:yassl_imp.obj
 0001:000332e0       ?read@ClientDiffieHellmanPublic@yaSSL@@UAEXAAVSSL@2@AAVinput_buffer@2@@Z 004342e0 f   mysqlclient:yassl_imp.obj
 0001:000333b0       ??1ClientDiffieHellmanPublic@yaSSL@@UAE@XZ 004343b0 f   mysqlclient:yassl_imp.obj
 0001:000333d0       ?read@DH_Server@yaSSL@@UAEXAAVSSL@2@AAVinput_buffer@2@@Z 004343d0 f   mysqlclient:yassl_imp.obj
 0001:000337c0       ?SetSuites@Parameters@yaSSL@@QAEXUProtocolVersion@2@_N11@Z 004347c0 f   mysqlclient:yassl_imp.obj
 0001:000339a0       ?set@Alert@yaSSL@@UAEAAVinput_buffer@2@AAV32@@Z 004349a0 f   mysqlclient:yassl_imp.obj
 0001:000339c0       ?get@Alert@yaSSL@@UBEAAVoutput_buffer@2@AAV32@@Z 004349c0 f   mysqlclient:yassl_imp.obj
 0001:000339e0       ??_GData@yaSSL@@UAEPAXI@Z  004349e0 f i mysqlclient:yassl_imp.obj
 0001:000339e0       ??_EMessage@yaSSL@@UAEPAXI@Z 004349e0 f i mysqlclient:ssl.obj
 0001:000339e0       ??_GAlert@yaSSL@@UAEPAXI@Z 004349e0 f i mysqlclient:yassl_imp.obj
 0001:000339e0       ??_EChangeCipherSpec@yaSSL@@UAEPAXI@Z 004349e0 f i mysqlclient:yassl_imp.obj
 0001:000339e0       ??_EData@yaSSL@@UAEPAXI@Z  004349e0 f i mysqlclient:yassl_imp.obj
 0001:000339e0       ??_GChangeCipherSpec@yaSSL@@UAEPAXI@Z 004349e0 f i mysqlclient:yassl_imp.obj
 0001:000339e0       ??_EAlert@yaSSL@@UAEPAXI@Z 004349e0 f i mysqlclient:yassl_imp.obj
 0001:000339e0       ??_EHandShakeHeader@yaSSL@@UAEPAXI@Z 004349e0 f i mysqlclient:yassl_imp.obj
 0001:000339e0       ??_GMessage@yaSSL@@UAEPAXI@Z 004349e0 f i mysqlclient:ssl.obj
 0001:000339e0       ??_GHandShakeHeader@yaSSL@@UAEPAXI@Z 004349e0 f i mysqlclient:yassl_imp.obj
 0001:00033a00       ?get@Data@yaSSL@@UBEAAVoutput_buffer@2@AAV32@@Z 00434a00 f   mysqlclient:yassl_imp.obj
 0001:00033c10       ?Process@Data@yaSSL@@UAEXAAVinput_buffer@2@AAVSSL@2@@Z 00434c10 f   mysqlclient:yassl_imp.obj
 0001:00033f00       ??0Certificate@yaSSL@@QAE@PBVx509@1@@Z 00434f00 f   mysqlclient:yassl_imp.obj
 0001:00033f30       ??1ServerDHParams@yaSSL@@QAE@XZ 00434f30 f   mysqlclient:yassl_imp.obj
 0001:00033f60       ?Process@ServerHello@yaSSL@@UAEXAAVinput_buffer@2@AAVSSL@2@@Z 00434f60 f   mysqlclient:yassl_imp.obj
 0001:000341a0       ??_EHandShakeBase@yaSSL@@UAEPAXI@Z 004351a0 f i mysqlclient:ssl.obj
 0001:000341a0       ??_GServerHello@yaSSL@@UAEPAXI@Z 004351a0 f i mysqlclient:yassl_imp.obj
 0001:000341a0       ??_GFinished@yaSSL@@UAEPAXI@Z 004351a0 f i mysqlclient:yassl_imp.obj
 0001:000341a0       ??_GCertificate@yaSSL@@UAEPAXI@Z 004351a0 f i mysqlclient:yassl_imp.obj
 0001:000341a0       ??_GServerHelloDone@yaSSL@@UAEPAXI@Z 004351a0 f i mysqlclient:yassl_imp.obj
 0001:000341a0       ??_EServerHello@yaSSL@@UAEPAXI@Z 004351a0 f i mysqlclient:yassl_imp.obj
 0001:000341a0       ??_GClientHello@yaSSL@@UAEPAXI@Z 004351a0 f i mysqlclient:yassl_imp.obj
 0001:000341a0       ??_GHelloRequest@yaSSL@@UAEPAXI@Z 004351a0 f i mysqlclient:yassl_imp.obj
 0001:000341a0       ??_GHandShakeBase@yaSSL@@UAEPAXI@Z 004351a0 f i mysqlclient:ssl.obj
 0001:000341a0       ??_EClientHello@yaSSL@@UAEPAXI@Z 004351a0 f i mysqlclient:yassl_imp.obj
 0001:000341a0       ??_EHelloRequest@yaSSL@@UAEPAXI@Z 004351a0 f i mysqlclient:yassl_imp.obj
 0001:000341a0       ??_ECertificate@yaSSL@@UAEPAXI@Z 004351a0 f i mysqlclient:yassl_imp.obj
 0001:000341a0       ??_EServerHelloDone@yaSSL@@UAEPAXI@Z 004351a0 f i mysqlclient:yassl_imp.obj
 0001:000341a0       ??_EFinished@yaSSL@@UAEPAXI@Z 004351a0 f i mysqlclient:yassl_imp.obj
 0001:000341c0       ?Process@ClientHello@yaSSL@@UAEXAAVinput_buffer@2@AAVSSL@2@@Z 004351c0 f   mysqlclient:yassl_imp.obj
 0001:000344f0       ??1ServerKeyExchange@yaSSL@@UAE@XZ 004354f0 f   mysqlclient:yassl_imp.obj
 0001:00034510       ??1CertificateVerify@yaSSL@@UAE@XZ 00435510 f   mysqlclient:yassl_imp.obj
 0001:00034530       ?set@CertificateVerify@yaSSL@@UAEAAVinput_buffer@2@AAV32@@Z 00435530 f   mysqlclient:yassl_imp.obj
 0001:00034550       ?get@CertificateVerify@yaSSL@@UBEAAVoutput_buffer@2@AAV32@@Z 00435550 f   mysqlclient:yassl_imp.obj
 0001:00034570       ??6yaSSL@@YAAAVoutput_buffer@0@AAV10@ABVClientKeyExchange@0@@Z 00435570 f   mysqlclient:yassl_imp.obj
 0001:00034570       ??6yaSSL@@YAAAVoutput_buffer@0@AAV10@ABVServerKeyExchange@0@@Z 00435570 f   mysqlclient:yassl_imp.obj
 0001:000345a0       ??1ClientKeyExchange@yaSSL@@UAE@XZ 004355a0 f   mysqlclient:yassl_imp.obj
 0001:000345c0       ?get@ServerKeyExchange@yaSSL@@UBEAAVoutput_buffer@2@AAV32@@Z 004355c0 f   mysqlclient:yassl_imp.obj
 0001:000345c0       ?get@ClientKeyExchange@yaSSL@@UBEAAVoutput_buffer@2@AAV32@@Z 004355c0 f   mysqlclient:yassl_imp.obj
 0001:000345e0       ?CleanPreMaster@Connection@yaSSL@@QAEXXZ 004355e0 f   mysqlclient:yassl_imp.obj
 0001:00034610       ?CreateAlert@yaSSL@@YAPAUMessage@1@XZ 00435610 f   mysqlclient:yassl_imp.obj
 0001:00034630       ?CreateHelloRequest@yaSSL@@YAPAVHandShakeBase@1@XZ 00435630 f   mysqlclient:yassl_imp.obj
 0001:00034650       ?CreateRSAServerKEA@yaSSL@@YAPAUServerKeyBase@1@XZ 00435650 f   mysqlclient:yassl_imp.obj
 0001:00034670       ??_GFortezza_Server@yaSSL@@UAEPAXI@Z 00435670 f i mysqlclient:yassl_imp.obj
 0001:00034670       ??_EFortezza_Server@yaSSL@@UAEPAXI@Z 00435670 f i mysqlclient:yassl_imp.obj
 0001:00034670       ??_GServerKeyBase@yaSSL@@UAEPAXI@Z 00435670 f i mysqlclient:yassl_imp.obj
 0001:00034670       ??_ERSA_Server@yaSSL@@UAEPAXI@Z 00435670 f i mysqlclient:yassl_imp.obj
 0001:00034670       ??_GRSA_Server@yaSSL@@UAEPAXI@Z 00435670 f i mysqlclient:yassl_imp.obj
 0001:00034670       ??_EServerKeyBase@yaSSL@@UAEPAXI@Z 00435670 f i mysqlclient:yassl_imp.obj
 0001:00034690       ?CreateFortezzaServerKEA@yaSSL@@YAPAUServerKeyBase@1@XZ 00435690 f   mysqlclient:yassl_imp.obj
 0001:000346b0       ?CreateRSAClient@yaSSL@@YAPAUClientKeyBase@1@XZ 004356b0 f   mysqlclient:yassl_imp.obj
 0001:000346d0       ?CreateFortezzaClient@yaSSL@@YAPAUClientKeyBase@1@XZ 004356d0 f   mysqlclient:yassl_imp.obj
 0001:000346f0       ?createKey@ClientKeyExchange@yaSSL@@QAEXAAVSSL@2@@Z 004356f0 f   mysqlclient:yassl_imp.obj
 0001:00034760       ?createKey@ServerKeyExchange@yaSSL@@QAEXAAVSSL@2@@Z 00435760 f   mysqlclient:yassl_imp.obj
 0001:000347d0       ??_EEncryptedPreMasterSecret@yaSSL@@UAEPAXI@Z 004357d0 f i mysqlclient:yassl_imp.obj
 0001:000347d0       ??_GEncryptedPreMasterSecret@yaSSL@@UAEPAXI@Z 004357d0 f i mysqlclient:yassl_imp.obj
 0001:000347f0       ??_GClientDiffieHellmanPublic@yaSSL@@UAEPAXI@Z 004357f0 f i mysqlclient:yassl_imp.obj
 0001:000347f0       ??_EClientDiffieHellmanPublic@yaSSL@@UAEPAXI@Z 004357f0 f i mysqlclient:yassl_imp.obj
 0001:00034810       ??0DH_Server@yaSSL@@QAE@XZ 00435810 f   mysqlclient:yassl_imp.obj
 0001:00034830       ??1DH_Server@yaSSL@@UAE@XZ 00435830 f   mysqlclient:yassl_imp.obj
 0001:00034860       ??0Parameters@yaSSL@@QAE@W4ConnectionEnd@1@ABUCiphers@1@UProtocolVersion@1@_N@Z 00435860 f   mysqlclient:yassl_imp.obj
 0001:000348f0       ?Process@ServerKeyExchange@yaSSL@@UAEXAAVinput_buffer@2@AAVSSL@2@@Z 004358f0 f   mysqlclient:yassl_imp.obj
 0001:00034940       ??_EServerKeyExchange@yaSSL@@UAEPAXI@Z 00435940 f i mysqlclient:yassl_imp.obj
 0001:00034940       ??_GServerKeyExchange@yaSSL@@UAEPAXI@Z 00435940 f i mysqlclient:yassl_imp.obj
 0001:00034960       ??5yaSSL@@YAAAVinput_buffer@0@AAV10@AAVCertificateRequest@0@@Z 00435960 f   mysqlclient:yassl_imp.obj
 0001:00034a50       ??6yaSSL@@YAAAVoutput_buffer@0@AAV10@ABVCertificateRequest@0@@Z 00435a50 f   mysqlclient:yassl_imp.obj
 0001:00034b10       ??_ECertificateVerify@yaSSL@@UAEPAXI@Z 00435b10 f i mysqlclient:yassl_imp.obj
 0001:00034b10       ??_GCertificateVerify@yaSSL@@UAEPAXI@Z 00435b10 f i mysqlclient:yassl_imp.obj
 0001:00034b30       ?Process@ClientKeyExchange@yaSSL@@UAEXAAVinput_buffer@2@AAVSSL@2@@Z 00435b30 f   mysqlclient:yassl_imp.obj
 0001:00034bb0       ??0ClientKeyExchange@yaSSL@@QAE@AAVSSL@1@@Z 00435bb0 f   mysqlclient:yassl_imp.obj
 0001:00034bd0       ??_GClientKeyExchange@yaSSL@@UAEPAXI@Z 00435bd0 f i mysqlclient:yassl_imp.obj
 0001:00034bd0       ??_EClientKeyExchange@yaSSL@@UAEPAXI@Z 00435bd0 f i mysqlclient:yassl_imp.obj
 0001:00034bf0       ??1Connection@yaSSL@@QAE@XZ 00435bf0 f   mysqlclient:yassl_imp.obj
 0001:00034c10       ?CreateDHServerKEA@yaSSL@@YAPAUServerKeyBase@1@XZ 00435c10 f   mysqlclient:yassl_imp.obj
 0001:00034c30       ?build@DH_Server@yaSSL@@UAEXAAVSSL@2@@Z 00435c30 f   mysqlclient:yassl_imp.obj
 0001:00035080       ??_GDH_Server@yaSSL@@UAEPAXI@Z 00436080 f i mysqlclient:yassl_imp.obj
 0001:00035080       ??_EDH_Server@yaSSL@@UAEPAXI@Z 00436080 f i mysqlclient:yassl_imp.obj
 0001:000350a0       ?Process@HandShakeHeader@yaSSL@@UAEXAAVinput_buffer@2@AAVSSL@2@@Z 004360a0 f   mysqlclient:yassl_imp.obj
 0001:00035190       ??0CertificateRequest@yaSSL@@QAE@XZ 00436190 f   mysqlclient:yassl_imp.obj
 0001:000351c0       ?set@CertificateRequest@yaSSL@@UAEAAVinput_buffer@2@AAV32@@Z 004361c0 f   mysqlclient:yassl_imp.obj
 0001:000351e0       ?get@CertificateRequest@yaSSL@@UBEAAVoutput_buffer@2@AAV32@@Z 004361e0 f   mysqlclient:yassl_imp.obj
 0001:00035200       ?Build@CertificateVerify@yaSSL@@QAEXAAVSSL@2@@Z 00436200 f   mysqlclient:yassl_imp.obj
 0001:000353b0       ?CreateCertificateRequest@yaSSL@@YAPAVHandShakeBase@1@XZ 004363b0 f   mysqlclient:yassl_imp.obj
 0001:000353d0       ?push_back@?$vector@U?$pair@HP6APAUClientKeyBase@yaSSL@@XZ@mySTL@@@mySTL@@QAEXABU?$pair@HP6APAUClientKeyBase@yaSSL@@XZ@2@@Z 004363d0 f i mysqlclient:yassl_imp.obj
 0001:000353d0       ?push_back@?$vector@U?$pair@HP6APAVHandShakeBase@yaSSL@@XZ@mySTL@@@mySTL@@QAEXABU?$pair@HP6APAVHandShakeBase@yaSSL@@XZ@2@@Z 004363d0 f i mysqlclient:yassl_imp.obj
 0001:000353d0       ?push_back@?$vector@U?$pair@HP6APAUServerKeyBase@yaSSL@@XZ@mySTL@@@mySTL@@QAEXABU?$pair@HP6APAUServerKeyBase@yaSSL@@XZ@2@@Z 004363d0 f i mysqlclient:yassl_imp.obj
 0001:000353d0       ?push_back@?$vector@U?$pair@HP6APAUMessage@yaSSL@@XZ@mySTL@@@mySTL@@QAEXABU?$pair@HP6APAUMessage@yaSSL@@XZ@2@@Z 004363d0 f i mysqlclient:yassl_imp.obj
 0001:00035470       ?reserve@?$vector@U?$pair@HP6APAUMessage@yaSSL@@XZ@mySTL@@@mySTL@@QAEXI@Z 00436470 f i mysqlclient:yassl_imp.obj
 0001:00035470       ?reserve@?$vector@U?$pair@HP6APAVHandShakeBase@yaSSL@@XZ@mySTL@@@mySTL@@QAEXI@Z 00436470 f i mysqlclient:yassl_imp.obj
 0001:00035470       ?reserve@?$vector@U?$pair@HP6APAUServerKeyBase@yaSSL@@XZ@mySTL@@@mySTL@@QAEXI@Z 00436470 f i mysqlclient:yassl_imp.obj
 0001:00035470       ?reserve@?$vector@U?$pair@HP6APAUClientKeyBase@yaSSL@@XZ@mySTL@@@mySTL@@QAEXI@Z 00436470 f i mysqlclient:yassl_imp.obj
 0001:000354e0       ??$for_each@Viterator@?$list@PAE@mySTL@@Udel_ptr_zero@yaSSL@@@mySTL@@YA?AUdel_ptr_zero@yaSSL@@Viterator@?$list@PAE@0@0U12@@Z 004364e0 f i mysqlclient:yassl_imp.obj
 0001:00035520       ??1CertificateRequest@yaSSL@@UAE@XZ 00436520 f   mysqlclient:yassl_imp.obj
 0001:00035560       ??_GCertificateRequest@yaSSL@@UAEPAXI@Z 00436560 f i mysqlclient:yassl_imp.obj
 0001:00035560       ??_ECertificateRequest@yaSSL@@UAEPAXI@Z 00436560 f i mysqlclient:yassl_imp.obj
 0001:00035580       ?InitMessageFactory@yaSSL@@YAXAAV?$Factory@UMessage@yaSSL@@HP6APAU12@XZ@1@@Z 00436580 f   mysqlclient:yassl_imp.obj
 0001:00035610       ?InitHandShakeFactory@yaSSL@@YAXAAV?$Factory@VHandShakeBase@yaSSL@@HP6APAV12@XZ@1@@Z 00436610 f   mysqlclient:yassl_imp.obj
 0001:00035740       ?InitServerKeyFactory@yaSSL@@YAXAAV?$Factory@UServerKeyBase@yaSSL@@HP6APAU12@XZ@1@@Z 00436740 f   mysqlclient:yassl_imp.obj
 0001:000357b0       ?InitClientKeyFactory@yaSSL@@YAXAAV?$Factory@UClientKeyBase@yaSSL@@HP6APAU12@XZ@1@@Z 004367b0 f   mysqlclient:yassl_imp.obj
 0001:00035820       ??0Socket@yaSSL@@QAE@I@Z   00436820 f   mysqlclient:socket_wrapper.obj
 0001:00035840       ?get_ready@Socket@yaSSL@@QBEIXZ 00436840 f   mysqlclient:socket_wrapper.obj
 0001:00035860       _vio_errno                 00436860 f   mysqlclient:viosocket.obj
 0001:00035860       ?get_lastError@Socket@yaSSL@@SAHXZ 00436860 f   mysqlclient:socket_wrapper.obj
 0001:00035870       ?WouldBlock@Socket@yaSSL@@QBE_NXZ 00436870 f   mysqlclient:socket_wrapper.obj
 0001:00035880       ?IsNonBlocking@Socket@yaSSL@@QBE_NXZ 00436880 f   mysqlclient:socket_wrapper.obj
 0001:00035890       ?send@Socket@yaSSL@@QAEIPBEIAAIH@Z 00436890 f   mysqlclient:socket_wrapper.obj
 0001:00035910       ?receive@Socket@yaSSL@@QAEIPAEIH@Z 00436910 f   mysqlclient:socket_wrapper.obj
 0001:00035980       ?wait@Socket@yaSSL@@QAE_NXZ 00436980 f   mysqlclient:socket_wrapper.obj
 0001:000359a0       ??0Log@yaSSL@@QAE@PBD@Z    004369a0 f   mysqlclient:log.obj
 0001:000359b0       ?Process@HelloRequest@yaSSL@@UAEXAAVinput_buffer@2@AAVSSL@2@@Z 004369b0 f   mysqlclient:yassl_imp.obj
 0001:000359b0       ?ShowTCP@Log@yaSSL@@QAEXI_N@Z 004369b0 f   mysqlclient:log.obj
 0001:000359b0       ?read@ClientKeyBase@yaSSL@@UAEXAAVSSL@2@AAVinput_buffer@2@@Z 004369b0 f   mysqlclient:yassl_imp.obj
 0001:000359b0       ?ShowData@Log@yaSSL@@QAEXI_N@Z 004369b0 f   mysqlclient:log.obj
 0001:000359b0       ?read@ServerKeyBase@yaSSL@@UAEXAAVSSL@2@AAVinput_buffer@2@@Z 004369b0 f   mysqlclient:yassl_imp.obj
 0001:000359c0       ?buildClientHello@yaSSL@@YAXAAVSSL@1@AAVClientHello@1@@Z 004369c0 f   mysqlclient:handshake.obj
 0001:00035aa0       ?hashHandShake@yaSSL@@YAXAAVSSL@1@ABVinput_buffer@1@I@Z 00436aa0 f   mysqlclient:handshake.obj
 0001:00035b00       ?buildOutput@?A0x1b9006b7@yaSSL@@YAXAAVoutput_buffer@2@ABURecordLayerHeader@2@ABUMessage@2@@Z 00436b00 f   mysqlclient:handshake.obj
 0001:00035b40       ?buildOutput@?A0x1b9006b7@yaSSL@@YAXAAVoutput_buffer@2@ABURecordLayerHeader@2@ABVHandShakeHeader@2@ABVHandShakeBase@2@@Z 00436b40 f   mysqlclient:handshake.obj
 0001:00035b90       ?buildHeader@?A0x1b9006b7@yaSSL@@YAXAAVSSL@2@AAURecordLayerHeader@2@ABUMessage@2@@Z 00436b90 f   mysqlclient:handshake.obj
 0001:00035be0       ?buildHeaders@?A0x1b9006b7@yaSSL@@YAXAAVSSL@2@AAVHandShakeHeader@2@AAURecordLayerHeader@2@ABVHandShakeBase@2@@Z 00436be0 f   mysqlclient:handshake.obj
 0001:00035c40       ?hashHandShake@?A0x1b9006b7@yaSSL@@YAXAAVSSL@2@ABVoutput_buffer@2@_N@Z 00436c40 f   mysqlclient:handshake.obj
 0001:00035cc0       ?buildMD5@?A0x1b9006b7@yaSSL@@YAXAAVSSL@2@AAVFinished@2@PBE@Z 00436cc0 f   mysqlclient:handshake.obj
 0001:00035de0       ?buildSHA@?A0x1b9006b7@yaSSL@@YAXAAVSSL@2@AAVFinished@2@PBE@Z 00436de0 f   mysqlclient:handshake.obj
 0001:00035fa0       ?decrypt_message@?A0x1b9006b7@yaSSL@@YAXAAVSSL@2@AAVinput_buffer@2@I@Z 00436fa0 f   mysqlclient:handshake.obj
 0001:00036090       ??6?A0x1b9006b7@yaSSL@@YAAAVoutput_buffer@1@AAV21@ABVinput_buffer@1@@Z 00437090 f   mysqlclient:handshake.obj
 0001:000360c0       ?get_xor@?A0x1b9006b7@yaSSL@@YAXPAEIAAVoutput_buffer@2@1@Z 004370c0 f   mysqlclient:handshake.obj
 0001:00036110       ?buildMD5_CertVerify@?A0x1b9006b7@yaSSL@@YAXAAVSSL@2@PAE@Z 00437110 f   mysqlclient:handshake.obj
 0001:00036220       ?buildSHA_CertVerify@?A0x1b9006b7@yaSSL@@YAXAAVSSL@2@PAE@Z 00437220 f   mysqlclient:handshake.obj
 0001:00036340       ?hmac@yaSSL@@YAXAAVSSL@1@PAEPBEIW4ContentType@1@_N@Z 00437340 f   mysqlclient:handshake.obj
 0001:000364e0       ?build_certHashes@yaSSL@@YAXAAVSSL@1@AAUHashes@1@@Z 004374e0 f   mysqlclient:handshake.obj
 0001:000365d0       ?sendClientHello@yaSSL@@YAXAAVSSL@1@@Z 004375d0 f   mysqlclient:handshake.obj
 0001:000366f0       ?ProcessOldClientHello@yaSSL@@YAXAAVinput_buffer@1@AAVSSL@1@@Z 004376f0 f   mysqlclient:handshake.obj
 0001:00036980       ?p_hash@?A0x1b9006b7@yaSSL@@YAXAAVoutput_buffer@2@ABV32@1W4MACAlgorithm@2@@Z 00437980 f   mysqlclient:handshake.obj
 0001:00036b20       ?TLS_hmac@yaSSL@@YAXAAVSSL@1@PAEPBEIW4ContentType@1@_N@Z 00437b20 f   mysqlclient:handshake.obj
 0001:00036cc0       ?PRF@yaSSL@@YAXPAEIPBEI1I1I@Z 00437cc0 f   mysqlclient:handshake.obj
 0001:00036df0       ?DoProcessReply@yaSSL@@YAHAAVSSL@1@@Z 00437df0 f   mysqlclient:handshake.obj
 0001:00037160       ?processReply@yaSSL@@YAXAAVSSL@1@@Z 00438160 f   mysqlclient:handshake.obj
 0001:000371d0       ?receiveData@yaSSL@@YAHAAVSSL@1@AAVData@1@_N@Z 004381d0 f   mysqlclient:handshake.obj
 0001:000372a0       ?cipherFinished@?A0x1b9006b7@yaSSL@@YAXAAVSSL@2@AAVFinished@2@AAVoutput_buffer@2@@Z 004382a0 f   mysqlclient:handshake.obj
 0001:00037580       ?buildMessage@?A0x1b9006b7@yaSSL@@YAXAAVSSL@2@AAVoutput_buffer@2@ABUMessage@2@@Z 00438580 f   mysqlclient:handshake.obj
 0001:00037840       ?buildAlert@?A0x1b9006b7@yaSSL@@YAXAAVSSL@2@AAVoutput_buffer@2@ABVAlert@2@@Z 00438840 f   mysqlclient:handshake.obj
 0001:000378b0       ?buildFinishedTLS@?A0x1b9006b7@yaSSL@@YAXAAVSSL@2@AAVFinished@2@PBE@Z 004388b0 f   mysqlclient:handshake.obj
 0001:00037970       ?buildFinished@yaSSL@@YAXAAVSSL@1@AAVFinished@1@PBE@Z 00438970 f   mysqlclient:handshake.obj
 0001:00037a40       ?sendClientKeyExchange@yaSSL@@YAXAAVSSL@1@W4BufferOutput@1@@Z 00438a40 f   mysqlclient:handshake.obj
 0001:00037b50       ?sendChangeCipher@yaSSL@@YAXAAVSSL@1@W4BufferOutput@1@@Z 00438b50 f   mysqlclient:handshake.obj
 0001:00037c40       ?sendFinished@yaSSL@@YAXAAVSSL@1@W4ConnectionEnd@1@W4BufferOutput@1@@Z 00438c40 f   mysqlclient:handshake.obj
 0001:00037d80       ?sendData@yaSSL@@YAHAAVSSL@1@PBXH@Z 00438d80 f   mysqlclient:handshake.obj
 0001:00037f70       ?sendAlert@yaSSL@@YAHAAVSSL@1@ABVAlert@1@@Z 00438f70 f   mysqlclient:handshake.obj
 0001:00037fd0       ?sendCertificate@yaSSL@@YAXAAVSSL@1@W4BufferOutput@1@@Z 00438fd0 f   mysqlclient:handshake.obj
 0001:000380c0       ?sendCertificateVerify@yaSSL@@YAXAAVSSL@1@W4BufferOutput@1@@Z 004390c0 f   mysqlclient:handshake.obj
 0001:000381c0       ??0x509@yaSSL@@QAE@I@Z     004391c0 f   mysqlclient:cert_wrapper.obj
 0001:000381e0       ??0x509@yaSSL@@QAE@ABV01@@Z 004391e0 f   mysqlclient:cert_wrapper.obj
 0001:00038210       ?verifyPeer@CertManager@yaSSL@@QBE_NXZ 00439210 f   mysqlclient:cert_wrapper.obj
 0001:00038220       ?sendVerify@CertManager@yaSSL@@QBE_NXZ 00439220 f   mysqlclient:cert_wrapper.obj
 0001:00038230       ?setVerifyPeer@CertManager@yaSSL@@QAEXXZ 00439230 f   mysqlclient:cert_wrapper.obj
 0001:00038240       ?setVerifyNone@CertManager@yaSSL@@QAEXXZ 00439240 f   mysqlclient:cert_wrapper.obj
 0001:00038250       ?setFailNoCert@CertManager@yaSSL@@QAEXXZ 00439250 f   mysqlclient:cert_wrapper.obj
 0001:00038260       ?setSendVerify@CertManager@yaSSL@@QAEXXZ 00439260 f   mysqlclient:cert_wrapper.obj
 0001:00038270       ?setVerifyCallback@CertManager@yaSSL@@QAEXP6AHHPAUX509_STORE_CTX@2@@Z@Z 00439270 f   mysqlclient:cert_wrapper.obj
 0001:00038280       ?get_peerKey@CertManager@yaSSL@@QBEPBEXZ 00439280 f   mysqlclient:cert_wrapper.obj
 0001:00038290       ?get_peerX509@CertManager@yaSSL@@QBEPAVX509@2@XZ 00439290 f   mysqlclient:cert_wrapper.obj
 0001:000382a0       ?get_peerKeyType@CertManager@yaSSL@@QBE?AW4SignatureAlgorithm@2@XZ 004392a0 f   mysqlclient:cert_wrapper.obj
 0001:000382b0       ?get_keyType@CertManager@yaSSL@@QBE?AW4SignatureAlgorithm@2@XZ 004392b0 f   mysqlclient:cert_wrapper.obj
 0001:000382c0       ?get_peerKeyLength@CertManager@yaSSL@@QBEIXZ 004392c0 f   mysqlclient:cert_wrapper.obj
 0001:000382d0       ?get_privateKey@CertManager@yaSSL@@QBEPBEXZ 004392d0 f   mysqlclient:cert_wrapper.obj
 0001:000382e0       ?get_privateKeyLength@CertManager@yaSSL@@QBEIXZ 004392e0 f   mysqlclient:cert_wrapper.obj
 0001:000382f0       ?setPeerX509@CertManager@yaSSL@@QAEXPAVX509@2@@Z 004392f0 f   mysqlclient:cert_wrapper.obj
 0001:000383a0       ?front@?$list@PAVoutput_buffer@yaSSL@@@mySTL@@QBEPAVoutput_buffer@yaSSL@@XZ 004393a0 f i mysqlclient:yassl_int.obj
 0001:000383a0       ?front@?$list@PAVinput_buffer@yaSSL@@@mySTL@@QBEPAVinput_buffer@yaSSL@@XZ 004393a0 f i mysqlclient:yassl_int.obj
 0001:000383a0       ?front@?$list@PAVx509@yaSSL@@@mySTL@@QBEPAVx509@yaSSL@@XZ 004393a0 f i mysqlclient:cert_wrapper.obj
 0001:000383b0       ?get_cert@CertManager@yaSSL@@QBEPBVx509@2@XZ 004393b0 f   mysqlclient:cert_wrapper.obj
 0001:000383c0       ??$ysDelete@VSigner@TaoCrypt@@@yaSSL@@YAXPAVSigner@TaoCrypt@@@Z 004393c0 f i mysqlclient:cert_wrapper.obj
 0001:000383e0       ?AddPeerCert@CertManager@yaSSL@@QAEXPAVx509@2@@Z 004393e0 f   mysqlclient:cert_wrapper.obj
 0001:000383f0       ?CopySelfCert@CertManager@yaSSL@@QAEXPBVx509@2@@Z 004393f0 f   mysqlclient:cert_wrapper.obj
 0001:00038430       ??0CertManager@yaSSL@@QAE@XZ 00439430 f   mysqlclient:cert_wrapper.obj
 0001:00038480       ?CopyCaCert@CertManager@yaSSL@@QAEHPBVx509@2@@Z 00439480 f   mysqlclient:cert_wrapper.obj
 0001:000385a0       ?Validate@CertManager@yaSSL@@QAEHXZ 004395a0 f   mysqlclient:cert_wrapper.obj
 0001:000388f0       ?SetPrivateKey@CertManager@yaSSL@@QAEHABVx509@2@@Z 004398f0 f   mysqlclient:cert_wrapper.obj
 0001:00038a50       ??$for_each@Viterator@?$list@PAVSigner@TaoCrypt@@@mySTL@@Udel_ptr_zero@yaSSL@@@mySTL@@YA?AUdel_ptr_zero@yaSSL@@Viterator@?$list@PAVSigner@TaoCrypt@@@0@0U12@@Z 00439a50 f i mysqlclient:cert_wrapper.obj
 0001:00038a90       ??1CertManager@yaSSL@@QAE@XZ 00439a90 f   mysqlclient:cert_wrapper.obj
 0001:00038b20       ?next@Source@TaoCrypt@@QAEEXZ 00439b20 f i mysqlclient:coding.obj
 0001:00038b50       ?Decode@HexDecoder@TaoCrypt@@AAEXXZ 00439b50 f   mysqlclient:coding.obj
 0001:00038c40       ?Decode@Base64Decoder@TaoCrypt@@AAEXXZ 00439c40 f   mysqlclient:coding.obj
 0001:00038f90       _my_once_alloc             00439f90 f   mysqlclient:my_once.obj
 0001:00039050       _my_once_strdup            0043a050 f   mysqlclient:my_once.obj
 0001:000390a0       _my_once_memdup            0043a0a0 f   mysqlclient:my_once.obj
 0001:000396c0       _my_parse_charset_xml      0043a6c0 f   mysqlclient:ctype.obj
 0001:00039780       _my_charset_is_8bit_pure_ascii 0043a780 f   mysqlclient:ctype.obj
 0001:0003a2f0       _my_wildcmp_uca            0043b2f0 f   mysqlclient:ctype-uca.obj
 0001:0003acf0       _my_getwd                  0043bcf0 f   mysqlclient:my_getwd.obj
 0001:0003ada0       _test_if_hard_path         0043bda0 f   mysqlclient:my_getwd.obj
 0001:0003adf0       _init_compiled_charsets    0043bdf0 f   mysqlclient:charset-def.obj
 0001:0003b0e0       _win_pthread_init          0043c0e0 f   mysqlclient:my_winthread.obj
 0001:0003b0f0       _my_pthread_once           0043c0f0 f   mysqlclient:my_winthread.obj
 0001:0003b6d0       _my_compress_alloc         0043c6d0 f   mysqlclient:my_compress.obj
 0001:0003b760       _my_uncompress             0043c760 f   mysqlclient:my_compress.obj
 0001:0003b7e0       _my_compress               0043c7e0 f   mysqlclient:my_compress.obj
 0001:0003b840       _mysql_sha1_reset          0043c840 f   mysqlclient:sha1.obj
 0001:0003bee0       _mysql_sha1_result         0043cee0 f   mysqlclient:sha1.obj
 0001:0003bf50       _mysql_sha1_input          0043cf50 f   mysqlclient:sha1.obj
 0001:0003bfa0       _str2int                   0043cfa0 f   mysqlclient:str2int.obj
 0001:0003c150       _my_message_no_curses      0043d150 f   mysqlclient:my_messnc.obj
 0001:0003c1f0       _pthread_cond_init         0043d1f0 f   mysqlclient:my_wincond.obj
 0001:0003c250       _pthread_cond_destroy      0043d250 f   mysqlclient:my_wincond.obj
 0001:0003c2a0       _pthread_cond_timedwait    0043d2a0 f   mysqlclient:my_wincond.obj
 0001:0003c380       _my_filename               0043d380 f   mysqlclient:my_div.obj
 0001:0003c3b0       _my_access                 0043d3b0 f   mysqlclient:my_access.obj
 0001:0003c440       _is_filename_allowed       0043d440 f   mysqlclient:my_access.obj
 0001:0003c490       _check_if_legal_filename   0043d490 f   mysqlclient:my_access.obj
 0001:0003c530       _my_readlink               0043d530 f   mysqlclient:my_symlink.obj
 0001:0003c550       _my_realpath               0043d550 f   mysqlclient:my_symlink.obj
 0001:0003c5c0       _my_strtod                 0043d5c0 f   mysqlclient:strtod.obj
 0001:0003c930       _my_caseup_str_mb          0043d930 f   mysqlclient:ctype-mb.obj
 0001:0003c980       _my_casedn_str_mb          0043d980 f   mysqlclient:ctype-mb.obj
 0001:0003c9d0       _my_caseup_mb              0043d9d0 f   mysqlclient:ctype-mb.obj
 0001:0003ca20       _my_casedn_mb              0043da20 f   mysqlclient:ctype-mb.obj
 0001:0003ca70       _my_strcasecmp_mb          0043da70 f   mysqlclient:ctype-mb.obj
 0001:0003cf90       _my_wildcmp_mb             0043df90 f   mysqlclient:ctype-mb.obj
 0001:0003cfd0       _my_numchars_mb            0043dfd0 f   mysqlclient:ctype-mb.obj
 0001:0003d010       _my_charpos_mb             0043e010 f   mysqlclient:ctype-mb.obj
 0001:0003d070       _my_well_formed_len_mb     0043e070 f   mysqlclient:ctype-mb.obj
 0001:0003d0e0       _my_instr_mb               0043e0e0 f   mysqlclient:ctype-mb.obj
 0001:0003d360       _my_like_range_mb          0043e360 f   mysqlclient:ctype-mb.obj
 0001:0003d9d0       _my_wildcmp_mb_bin         0043e9d0 f   mysqlclient:ctype-mb.obj
 0001:0003da10       _my_numcells_mb            0043ea10 f   mysqlclient:ctype-mb.obj
 0001:0003da80       _my_mb_ctype_mb            0043ea80 f   mysqlclient:ctype-mb.obj
 0001:0003daf0       ??0input_buffer@yaSSL@@QAE@XZ 0043eaf0 f   mysqlclient:buffer.obj
 0001:0003db00       ??0input_buffer@yaSSL@@QAE@I@Z 0043eb00 f   mysqlclient:buffer.obj
 0001:0003db30       ?allocate@input_buffer@yaSSL@@QAEXI@Z 0043eb30 f   mysqlclient:buffer.obj
 0001:0003db50       ?get_capacity@input_buffer@yaSSL@@QBEIXZ 0043eb50 f   mysqlclient:buffer.obj
 0001:0003db60       ?get_remaining@input_buffer@yaSSL@@QBEIXZ 0043eb60 f   mysqlclient:buffer.obj
 0001:0003db70       ??Ainput_buffer@yaSSL@@QAEABEI@Z 0043eb70 f   mysqlclient:buffer.obj
 0001:0003db90       ?eof@input_buffer@yaSSL@@QAE_NXZ 0043eb90 f   mysqlclient:buffer.obj
 0001:0003dba0       ?peek@input_buffer@yaSSL@@QBEEXZ 0043eba0 f   mysqlclient:buffer.obj
 0001:0003dbb0       ?read@input_buffer@yaSSL@@QAEXPAEI@Z 0043ebb0 f   mysqlclient:buffer.obj
 0001:0003dbe0       ??0output_buffer@yaSSL@@QAE@XZ 0043ebe0 f   mysqlclient:buffer.obj
 0001:0003dbf0       ??0output_buffer@yaSSL@@QAE@I@Z 0043ebf0 f   mysqlclient:buffer.obj
 0001:0003dc20       ?get_digest@Crypto@yaSSL@@QBEABUDigest@2@XZ 0043ec20 f   mysqlclient:yassl_int.obj
 0001:0003dc20       ?get_fd@Socket@yaSSL@@QBEIXZ 0043ec20 f   mysqlclient:socket_wrapper.obj
 0001:0003dc20       ?get_length@x509@yaSSL@@QBEIXZ 0043ec20 f   mysqlclient:cert_wrapper.obj
 0001:0003dc20       ?get_size@output_buffer@yaSSL@@QBEIXZ 0043ec20 f   mysqlclient:buffer.obj
 0001:0003dc20       ?get_size@input_buffer@yaSSL@@QBEIXZ 0043ec20 f   mysqlclient:buffer.obj
 0001:0003dc20       ?getMethod@SSL_CTX@yaSSL@@QBEPBVSSL_METHOD@2@XZ 0043ec20 f   mysqlclient:yassl_int.obj
 0001:0003dc20       ?get_pSize@ServerDHParams@yaSSL@@QBEHXZ 0043ec20 f   mysqlclient:yassl_imp.obj
 0001:0003dc20       ?use_digest@Crypto@yaSSL@@QAEAAUDigest@2@XZ 0043ec20 f   mysqlclient:yassl_int.obj
 0001:0003dc20       ?GetName@X509_NAME@yaSSL@@QBEPBDXZ 0043ec20 f   mysqlclient:yassl_int.obj
 0001:0003dc30       ?get_capacity@output_buffer@yaSSL@@QBEIXZ 0043ec30 f   mysqlclient:buffer.obj
 0001:0003dc40       ?set_fd@Socket@yaSSL@@QAEXI@Z 0043ec40 f   mysqlclient:socket_wrapper.obj
 0001:0003dc40       ?set_current@output_buffer@yaSSL@@QAEXI@Z 0043ec40 f   mysqlclient:buffer.obj
 0001:0003dc40       ?setDigest@Crypto@yaSSL@@QAEXPAUDigest@2@@Z 0043ec40 f   mysqlclient:yassl_int.obj
 0001:0003dc50       ?allocate@output_buffer@yaSSL@@QAEXI@Z 0043ec50 f   mysqlclient:buffer.obj
 0001:0003dc70       ??Aoutput_buffer@yaSSL@@QAEAAEI@Z 0043ec70 f   mysqlclient:buffer.obj
 0001:0003dc80       ?write@output_buffer@yaSSL@@QAEXPBEI@Z 0043ec80 f   mysqlclient:buffer.obj
 0001:0003dcb0       ??1input_buffer@yaSSL@@QAE@XZ 0043ecb0 f   mysqlclient:buffer.obj
 0001:0003dcb0       ??1StringHolder@yaSSL@@QAE@XZ 0043ecb0 f   mysqlclient:yassl_int.obj
 0001:0003dcc0       ?add_size@input_buffer@yaSSL@@QAEXI@Z 0043ecc0 f   mysqlclient:buffer.obj
 0001:0003dcd0       ?assign@input_buffer@yaSSL@@QAEXPBEI@Z 0043ecd0 f   mysqlclient:buffer.obj
 0001:0003dd00       ??0output_buffer@yaSSL@@QAE@IPBEI@Z 0043ed00 f   mysqlclient:buffer.obj
 0001:0003dd40       ??1output_buffer@yaSSL@@QAE@XZ 0043ed40 f   mysqlclient:buffer.obj
 0001:0003dd40       ??1x509@yaSSL@@QAE@XZ      0043ed40 f   mysqlclient:cert_wrapper.obj
 0001:0003dd50       ??0input_buffer@yaSSL@@QAE@IPBEI@Z 0043ed50 f   mysqlclient:buffer.obj
 0001:0003dd90       ?timer@yaSSL@@YANXZ        0043ed90 f   mysqlclient:timer.obj
 0001:0003ddd0       ?lowResTimer@yaSSL@@YAIXZ  0043edd0 f   mysqlclient:timer.obj
 0001:0003de00       ?CopyWords@TaoCrypt@@YAXPAIPBII@Z 0043ee00 f i mysqlclient:integer.obj
 0001:0003de30       ?ShiftWordsLeftByBits@TaoCrypt@@YAIPAIII@Z 0043ee30 f i mysqlclient:integer.obj
 0001:0003de80       ?ShiftWordsRightByBits@TaoCrypt@@YAIPAIII@Z 0043ee80 f i mysqlclient:integer.obj
 0001:0003ded0       ?Identity@MultiplicativeGroupT@AbstractRing@TaoCrypt@@UBEABVInteger@3@XZ 0043eed0 f i mysqlclient:integer.obj
 0001:0003dee0       ?Add@MultiplicativeGroupT@AbstractRing@TaoCrypt@@UBEABVInteger@3@ABV43@0@Z 0043eee0 f i mysqlclient:integer.obj
 0001:0003def0       ?Inverse@MultiplicativeGroupT@AbstractRing@TaoCrypt@@UBEABVInteger@3@ABV43@@Z 0043eef0 f i mysqlclient:integer.obj
 0001:0003df00       ?Subtract@MultiplicativeGroupT@AbstractRing@TaoCrypt@@UBEABVInteger@3@ABV43@0@Z 0043ef00 f i mysqlclient:integer.obj
 0001:0003df10       ?Double@MultiplicativeGroupT@AbstractRing@TaoCrypt@@UBEABVInteger@3@ABV43@@Z 0043ef10 f i mysqlclient:integer.obj
 0001:0003df20       ?SimultaneousMultiply@MultiplicativeGroupT@AbstractRing@TaoCrypt@@UBEXPAVInteger@3@ABV43@PBV43@I@Z 0043ef20 f i mysqlclient:integer.obj
 0001:0003df30       ??_EMultiplicativeGroupT@AbstractRing@TaoCrypt@@UAEPAXI@Z 0043ef30 f i mysqlclient:integer.obj
 0001:0003df30       ??_GMultiplicativeGroupT@AbstractRing@TaoCrypt@@UAEPAXI@Z 0043ef30 f i mysqlclient:integer.obj
 0001:0003df50       ?SimultaneousExponentiate@MontgomeryRepresentation@TaoCrypt@@UBEXPAVInteger@2@ABV32@PBV32@I@Z 0043ef50 f i mysqlclient:integer.obj
 0001:0003e0c0       ?Add@Portable@TaoCrypt@@SAIPAIPBI1I@Z 0043f0c0 f   mysqlclient:integer.obj
 0001:0003e150       ?Subtract@Portable@TaoCrypt@@SAIPAIPBI1I@Z 0043f150 f   mysqlclient:integer.obj
 0001:0003e1f0       ?Multiply2@Portable@TaoCrypt@@SAXPAIPBI1@Z 0043f1f0 f   mysqlclient:integer.obj
 0001:0003e2d0       ?Multiply2Bottom@Portable@TaoCrypt@@SAXPAIPBI1@Z 0043f2d0 f   mysqlclient:integer.obj
 0001:0003e300       ?Multiply2Add@Portable@TaoCrypt@@SAIPAIPBI1@Z 0043f300 f   mysqlclient:integer.obj
 0001:0003e4f0       ?Add@PentiumOptimized@TaoCrypt@@SAIPAIPBI1I@Z 0043f4f0 f   mysqlclient:integer.obj
 0001:0003e540       ?Subtract@PentiumOptimized@TaoCrypt@@SAIPAIPBI1I@Z 0043f540 f   mysqlclient:integer.obj
 0001:0003e590       ?Add@P4Optimized@TaoCrypt@@SAIPAIPBI1I@Z 0043f590 f   mysqlclient:integer.obj
 0001:0003e600       ?Subtract@P4Optimized@TaoCrypt@@SAIPAIPBI1I@Z 0043f600 f   mysqlclient:integer.obj
 0001:0003e670       ?Multiply4@PentiumOptimized@TaoCrypt@@SAXPAIPBI1@Z 0043f670 f   mysqlclient:integer.obj
 0001:0003e7a0       ?Multiply8@PentiumOptimized@TaoCrypt@@SAXPAIPBI1@Z 0043f7a0 f   mysqlclient:integer.obj
 0001:0003eb80       ?Multiply8Bottom@PentiumOptimized@TaoCrypt@@SAXPAIPBI1@Z 0043fb80 f   mysqlclient:integer.obj
 0001:0003eeb0       ?Multiply4@P4Optimized@TaoCrypt@@SAXPAIPBI1@Z 0043feb0 f   mysqlclient:integer.obj
 0001:0003efb0       ?Multiply8@P4Optimized@TaoCrypt@@SAXPAIPBI1@Z 0043ffb0 f   mysqlclient:integer.obj
 0001:0003f320       ?Multiply8Bottom@P4Optimized@TaoCrypt@@SAXPAIPBI1@Z 00440320 f   mysqlclient:integer.obj
 0001:0003f4d0       ?RecursiveMultiply@TaoCrypt@@YAXPAI0PBI1I@Z 004404d0 f   mysqlclient:integer.obj
 0001:0003f760       ?RecursiveMultiplyTop@TaoCrypt@@YAXPAI0PBI11I@Z 00440760 f   mysqlclient:integer.obj
 0001:0003fa60       ?DivideByPower2Mod@TaoCrypt@@YAXPAIPBII1I@Z 00440a60 f   mysqlclient:integer.obj
 0001:0003fb10       ?MultiplyByPower2Mod@TaoCrypt@@YAXPAIPBII1I@Z 00440b10 f   mysqlclient:integer.obj
 0001:0003fba0       ??$ysArrayDelete@D@yaSSL@@YAXPAD@Z 00440ba0 f i mysqlclient:yassl_int.obj
 0001:0003fba0       ??$tcArrayDelete@I@TaoCrypt@@YAXPAI@Z 00440ba0 f i mysqlclient:integer.obj
 0001:0003fba0       ??$ysArrayDelete@E@yaSSL@@YAXPAE@Z 00440ba0 f i mysqlclient:yassl_int.obj
 0001:0003fba0       ??$tcArrayDelete@E@TaoCrypt@@YAXPAE@Z 00440ba0 f i mysqlclient:ssl.obj
 0001:0003fbb0       ??$DivideThreeWordsByTwo@IVDWord@TaoCrypt@@@TaoCrypt@@YAIPAIIIPAVDWord@0@@Z 00440bb0 f i mysqlclient:integer.obj
 0001:0003fc80       ?ShiftWordsLeftByWords@TaoCrypt@@YAXPAIII@Z 00440c80 f i mysqlclient:integer.obj
 0001:0003fcd0       ?ShiftWordsRightByWords@TaoCrypt@@YAXPAIII@Z 00440cd0 f i mysqlclient:integer.obj
 0001:0003fd30       ?prev@Source@TaoCrypt@@QAEEXZ 00440d30 f i mysqlclient:integer.obj
 0001:0003fda0       ?Multiply4@Portable@TaoCrypt@@SAXPAIPBI1@Z 00440da0 f   mysqlclient:integer.obj
 0001:0003ffe0       ?Square2@Portable@TaoCrypt@@SAXPAIPBI@Z 00440fe0 f   mysqlclient:integer.obj
 0001:00040050       ?Multiply8@Portable@TaoCrypt@@SAXPAIPBI1@Z 00441050 f   mysqlclient:integer.obj
 0001:00040970       ?Multiply4Bottom@Portable@TaoCrypt@@SAXPAIPBI1@Z 00441970 f   mysqlclient:integer.obj
 0001:00040a50       ?Multiply8Bottom@Portable@TaoCrypt@@SAXPAIPBI1@Z 00441a50 f   mysqlclient:integer.obj
 0001:00040f30       ?RecursiveSquare@TaoCrypt@@YAXPAI0PBII@Z 00441f30 f   mysqlclient:integer.obj
 0001:00041000       ?RecursiveMultiplyBottom@TaoCrypt@@YAXPAI0PBI1I@Z 00442000 f   mysqlclient:integer.obj
 0001:000410d0       ?AsymmetricMultiply@TaoCrypt@@YAXPAI0PBII1I@Z 004420d0 f   mysqlclient:integer.obj
 0001:000412d0       ?AlmostInverse@TaoCrypt@@YAIPAI0PBII1I@Z 004422d0 f   mysqlclient:integer.obj
 0001:00041600       ?GetBit@Integer@TaoCrypt@@QBE_NI@Z 00442600 f   mysqlclient:integer.obj
 0001:00041630       ?GetByte@Integer@TaoCrypt@@QBEEI@Z 00442630 f   mysqlclient:integer.obj
 0001:00041660       ?WordCount@Integer@TaoCrypt@@QBEIXZ 00442660 f   mysqlclient:integer.obj
 0001:000417b0       ?Modulo@Integer@TaoCrypt@@QBEII@Z 004427b0 f   mysqlclient:integer.obj
 0001:00041850       ?IsUnit@Integer@TaoCrypt@@QBE_NXZ 00442850 f   mysqlclient:integer.obj
 0001:00041870       ?MontgomeryReduce@TaoCrypt@@YAXPAI0PBI11I@Z 00442870 f   mysqlclient:integer.obj
 0001:000418f0       ?RecursiveInverseModPower2@TaoCrypt@@YAXPAI0PBII@Z 004428f0 f   mysqlclient:integer.obj
 0001:000419e0       ?Multiply@MontgomeryRepresentation@TaoCrypt@@UBEABVInteger@2@ABV32@0@Z 004429e0 f   mysqlclient:integer.obj
 0001:00041a70       ?Square@MontgomeryRepresentation@TaoCrypt@@UBEABVInteger@2@ABV32@@Z 00442a70 f   mysqlclient:integer.obj
 0001:00041ae0       ?MultiplicativeInverse@MontgomeryRepresentation@TaoCrypt@@UBEABVInteger@2@ABV32@@Z 00442ae0 f   mysqlclient:integer.obj
 0001:00041ba0       ?allocate@?$AlignedAllocator@I@TaoCrypt@@QAEPAIIPBX@Z 00442ba0 f i mysqlclient:integer.obj
 0001:00041bf0       ?deallocate@?$AlignedAllocator@I@TaoCrypt@@QAEXPAXI@Z 00442bf0 f i mysqlclient:integer.obj
 0001:00041c30       ??$StdReallocate@IV?$AlignedAllocator@I@TaoCrypt@@@TaoCrypt@@YAPAIAAV?$AlignedAllocator@I@0@PAIII_N@Z 00442c30 f i mysqlclient:integer.obj
 0001:00041cb0       ??7Integer@TaoCrypt@@QBE_NXZ 00442cb0 f   mysqlclient:integer.obj
 0001:00041cd0       ?PositiveSubtract@TaoCrypt@@YAXAAVInteger@1@ABV21@1@Z 00442cd0 f   mysqlclient:integer.obj
 0001:00041e30       ?PositiveCompare@Integer@TaoCrypt@@ABEHABV12@@Z 00442e30 f   mysqlclient:integer.obj
 0001:00041e70       ?BitCount@Integer@TaoCrypt@@QBEIXZ 00442e70 f   mysqlclient:integer.obj
 0001:00041eb0       ?ByteCount@Integer@TaoCrypt@@QBEIXZ 00442eb0 f   mysqlclient:integer.obj
 0001:00041ee0       ?Swap@Integer@TaoCrypt@@QAEXAAV12@@Z 00442ee0 f   mysqlclient:integer.obj
 0001:00041f10       ?Divide@TaoCrypt@@YAXPAI00PBII1I@Z 00442f10 f   mysqlclient:integer.obj
 0001:000421c0       ?Inverse@ModularArithmetic@TaoCrypt@@UBEABVInteger@2@ABV32@@Z 004431c0 f   mysqlclient:integer.obj
 0001:00042240       ?ScalarMultiply@MultiplicativeGroupT@AbstractRing@TaoCrypt@@UBE?AVInteger@3@ABV43@0@Z 00443240 f i mysqlclient:integer.obj
 0001:00042260       ?CascadeScalarMultiply@MultiplicativeGroupT@AbstractRing@TaoCrypt@@UBE?AVInteger@3@ABV43@000@Z 00443260 f i mysqlclient:integer.obj
 0001:00042290       ?CascadeExponentiate@MontgomeryRepresentation@TaoCrypt@@UBE?AVInteger@2@ABV32@000@Z 00443290 f i mysqlclient:integer.obj
 0001:000422c0       ?Negate@Integer@TaoCrypt@@QAEXXZ 004432c0 f   mysqlclient:integer.obj
 0001:000422e0       ?Compare@Integer@TaoCrypt@@QBEHABV12@@Z 004432e0 f   mysqlclient:integer.obj
 0001:00042320       ??1MontgomeryRepresentation@TaoCrypt@@UAE@XZ 00443320 f i mysqlclient:integer.obj
 0001:00042380       ?CleanGrow@?$Block@IV?$AlignedAllocator@I@TaoCrypt@@@TaoCrypt@@QAEXI@Z 00443380 f i mysqlclient:integer.obj
 0001:000423d0       ?SetBit@Integer@TaoCrypt@@QAEXI_N@Z 004433d0 f   mysqlclient:integer.obj
 0001:00042470       ??4Integer@TaoCrypt@@QAEAAV01@ABV01@@Z 00443470 f   mysqlclient:integer.obj
 0001:000424d0       ??_3Integer@TaoCrypt@@QAEAAV01@I@Z 004434d0 f   mysqlclient:integer.obj
 0001:000425b0       ?PositiveAdd@TaoCrypt@@YAXAAVInteger@1@ABV21@1@Z 004435b0 f   mysqlclient:integer.obj
 0001:000426f0       ?CleanNew@?$Block@IV?$AlignedAllocator@I@TaoCrypt@@@TaoCrypt@@QAEXI@Z 004436f0 f i mysqlclient:integer.obj
 0001:00042730       ?Accumulate@MultiplicativeGroupT@AbstractRing@TaoCrypt@@UBEAAVInteger@3@AAV43@ABV43@@Z 00443730 f i mysqlclient:integer.obj
 0001:00042760       ?Reduce@MultiplicativeGroupT@AbstractRing@TaoCrypt@@UBEAAVInteger@3@AAV43@ABV43@@Z 00443760 f i mysqlclient:integer.obj
 0001:00042790       ?Decode@Integer@TaoCrypt@@QAEXAAVSource@2@@Z 00443790 f   mysqlclient:integer.obj
 0001:000428b0       ?Decode@Integer@TaoCrypt@@QAEXPBEIW4Signedness@12@@Z 004438b0 f   mysqlclient:integer.obj
 0001:00042a10       ?Randomize@Integer@TaoCrypt@@QAEXAAVRandomNumberGenerator@2@I@Z 00443a10 f   mysqlclient:integer.obj
 0001:00042ab0       ??YInteger@TaoCrypt@@QAEAAV01@ABV01@@Z 00443ab0 f   mysqlclient:integer.obj
 0001:00042b50       ??ZInteger@TaoCrypt@@QAEAAV01@ABV01@@Z 00443b50 f   mysqlclient:integer.obj
 0001:00042bf0       ?Accumulate@ModularArithmetic@TaoCrypt@@UBEAAVInteger@2@AAV32@ABV32@@Z 00443bf0 f   mysqlclient:integer.obj
 0001:00042c80       ?Reduce@ModularArithmetic@TaoCrypt@@UBEAAVInteger@2@AAV32@ABV32@@Z 00443c80 f   mysqlclient:integer.obj
 0001:00042cf0       ??0?$Block@IV?$AlignedAllocator@I@TaoCrypt@@@TaoCrypt@@QAE@I@Z 00443cf0 f i mysqlclient:integer.obj
 0001:00042d40       ?PositiveMultiply@TaoCrypt@@YAXAAVInteger@1@ABV21@1@Z 00443d40 f   mysqlclient:integer.obj
 0001:00042ee0       ?Multiply@TaoCrypt@@YAXAAVInteger@1@ABV21@1@Z 00443ee0 f   mysqlclient:integer.obj
 0001:00042f20       ??0Integer@TaoCrypt@@QAE@XZ 00443f20 f   mysqlclient:integer.obj
 0001:00042f90       ??0Integer@TaoCrypt@@QAE@ABV01@@Z 00443f90 f   mysqlclient:integer.obj
 0001:00043050       ??0Integer@TaoCrypt@@QAE@J@Z 00444050 f   mysqlclient:integer.obj
 0001:000430d0       ??0Integer@TaoCrypt@@AAE@II@Z 004440d0 f   mysqlclient:integer.obj
 0001:00043190       ??0Integer@TaoCrypt@@QAE@PBEIW4Signedness@01@@Z 00444190 f   mysqlclient:integer.obj
 0001:00043200       ?Zero@Integer@TaoCrypt@@SAABV12@XZ 00444200 f   mysqlclient:integer.obj
 0001:00043230       ?One@Integer@TaoCrypt@@SAABV12@XZ 00444230 f   mysqlclient:integer.obj
 0001:00043260       ?Power2@Integer@TaoCrypt@@SA?AV12@I@Z 00444260 f   mysqlclient:integer.obj
 0001:00043290       ??GInteger@TaoCrypt@@QBE?AV01@XZ 00444290 f   mysqlclient:integer.obj
 0001:000432b0       ??FInteger@TaoCrypt@@QAEAAV01@XZ 004442b0 f   mysqlclient:integer.obj
 0001:00043340       ??_2Integer@TaoCrypt@@QAEAAV01@I@Z 00444340 f   mysqlclient:integer.obj
 0001:000433b0       ?Plus@Integer@TaoCrypt@@QBE?AV12@ABV12@@Z 004443b0 f   mysqlclient:integer.obj
 0001:00043440       ?Minus@Integer@TaoCrypt@@QBE?AV12@ABV12@@Z 00444440 f   mysqlclient:integer.obj
 0001:000434d0       ?Times@Integer@TaoCrypt@@QBE?AV12@ABV12@@Z 004444d0 f   mysqlclient:integer.obj
 0001:00043500       ?PositiveDivide@TaoCrypt@@YAXAAVInteger@1@0ABV21@1@Z 00444500 f   mysqlclient:integer.obj
 0001:00043640       ?AbsoluteValue@Integer@TaoCrypt@@QBE?AV12@XZ 00444640 f   mysqlclient:integer.obj
 0001:00043660       ?MultiplicativeInverse@Integer@TaoCrypt@@QBE?AV12@XZ 00444660 f   mysqlclient:integer.obj
 0001:000436a0       ?ConvertOut@MontgomeryRepresentation@TaoCrypt@@UBE?AVInteger@2@ABV32@@Z 004446a0 f   mysqlclient:integer.obj
 0001:00043720       ?Double@ModularArithmetic@TaoCrypt@@UBEABVInteger@2@ABV32@@Z 00444720 f i mysqlclient:integer.obj
 0001:00043730       ?Divide@ModularArithmetic@TaoCrypt@@UBEABVInteger@2@ABV32@0@Z 00444730 f i mysqlclient:integer.obj
 0001:00043760       ?Equal@EuclideanDomainOf@TaoCrypt@@UBE_NABVInteger@2@0@Z 00444760 f i mysqlclient:integer.obj
 0001:00043760       ?Equal@ModularArithmetic@TaoCrypt@@UBE_NABVInteger@2@0@Z 00444760 f i mysqlclient:integer.obj
 0001:00043780       ??_GModularArithmetic@TaoCrypt@@UAEPAXI@Z 00444780 f i mysqlclient:integer.obj
 0001:00043780       ??_EModularArithmetic@TaoCrypt@@UAEPAXI@Z 00444780 f i mysqlclient:integer.obj
 0001:000437d0       ?ConvertOut@ModularArithmetic@TaoCrypt@@UBE?AVInteger@2@ABV32@@Z 004447d0 f i mysqlclient:integer.obj
 0001:000437f0       ?MultiplicativeIdentity@ModularArithmetic@TaoCrypt@@UBEABVInteger@2@XZ 004447f0 f i mysqlclient:integer.obj
 0001:000437f0       ?MultiplicativeIdentity@EuclideanDomainOf@TaoCrypt@@UBEABVInteger@2@XZ 004447f0 f i mysqlclient:integer.obj
 0001:00043800       ?Encode@Integer@TaoCrypt@@QBEIPAEIW4Signedness@12@@Z 00444800 f   mysqlclient:integer.obj
 0001:000438f0       ?Randomize@Integer@TaoCrypt@@QAEXAAVRandomNumberGenerator@2@ABV12@1@Z 004448f0 f   mysqlclient:integer.obj
 0001:00043960       ?Divide@Integer@TaoCrypt@@SAXAAV12@0ABV12@1@Z 00444960 f   mysqlclient:integer.obj
 0001:00043a10       ?DividedBy@Integer@TaoCrypt@@QBE?AV12@ABV12@@Z 00444a10 f   mysqlclient:integer.obj
 0001:00043a60       ?Modulo@Integer@TaoCrypt@@QBE?AV12@ABV12@@Z 00444a60 f   mysqlclient:integer.obj
 0001:00043ab0       ?a_exp_b_mod_c@TaoCrypt@@YA?AVInteger@1@ABV21@00@Z 00444ab0 f   mysqlclient:integer.obj
 0001:00043b50       ?Add@ModularArithmetic@TaoCrypt@@UBEABVInteger@2@ABV32@0@Z 00444b50 f   mysqlclient:integer.obj
 0001:00043c10       ?Subtract@ModularArithmetic@TaoCrypt@@UBEABVInteger@2@ABV32@0@Z 00444c10 f   mysqlclient:integer.obj
 0001:00043cc0       ??0MontgomeryRepresentation@TaoCrypt@@QAE@ABVInteger@1@@Z 00444cc0 f   mysqlclient:integer.obj
 0001:00043d70       ??_EMontgomeryRepresentation@TaoCrypt@@UAEPAXI@Z 00444d70 f i mysqlclient:integer.obj
 0001:00043d70       ??_GMontgomeryRepresentation@TaoCrypt@@UAEPAXI@Z 00444d70 f i mysqlclient:integer.obj
 0001:00043d90       ?IsUnit@EuclideanDomainOf@TaoCrypt@@UBE_NABVInteger@2@@Z 00444d90 f i mysqlclient:integer.obj
 0001:00043da0       ??_GEuclideanDomainOf@TaoCrypt@@UAEPAXI@Z 00444da0 f i mysqlclient:integer.obj
 0001:00043da0       ??_EEuclideanDomainOf@TaoCrypt@@UAEPAXI@Z 00444da0 f i mysqlclient:integer.obj
 0001:00043de0       ?Accumulate@EuclideanDomainOf@TaoCrypt@@UBEAAVInteger@2@AAV32@ABV32@@Z 00444de0 f i mysqlclient:integer.obj
 0001:00043e00       ?Reduce@EuclideanDomainOf@TaoCrypt@@UBEAAVInteger@2@AAV32@ABV32@@Z 00444e00 f i mysqlclient:integer.obj
 0001:00043e20       ?Identity@EuclideanDomainOf@TaoCrypt@@UBEABVInteger@2@XZ 00444e20 f i mysqlclient:integer.obj
 0001:00043e20       ?Identity@ModularArithmetic@TaoCrypt@@UBEABVInteger@2@XZ 00444e20 f i mysqlclient:integer.obj
 0001:00043e30       ?Add@EuclideanDomainOf@TaoCrypt@@UBEABVInteger@2@ABV32@0@Z 00444e30 f i mysqlclient:integer.obj
 0001:00043e80       ?Inverse@EuclideanDomainOf@TaoCrypt@@UBEABVInteger@2@ABV32@@Z 00444e80 f i mysqlclient:integer.obj
 0001:00043ec0       ?Subtract@EuclideanDomainOf@TaoCrypt@@UBEABVInteger@2@ABV32@0@Z 00444ec0 f i mysqlclient:integer.obj
 0001:00043f10       ?Double@EuclideanDomainOf@TaoCrypt@@UBEABVInteger@2@ABV32@@Z 00444f10 f i mysqlclient:integer.obj
 0001:00043f50       ?Multiply@EuclideanDomainOf@TaoCrypt@@UBEABVInteger@2@ABV32@0@Z 00444f50 f i mysqlclient:integer.obj
 0001:00043fa0       ?Square@EuclideanDomainOf@TaoCrypt@@UBEABVInteger@2@ABV32@@Z 00444fa0 f i mysqlclient:integer.obj
 0001:00043fe0       ?MultiplicativeInverse@EuclideanDomainOf@TaoCrypt@@UBEABVInteger@2@ABV32@@Z 00444fe0 f i mysqlclient:integer.obj
 0001:00044020       ?Divide@EuclideanDomainOf@TaoCrypt@@UBEABVInteger@2@ABV32@0@Z 00445020 f i mysqlclient:integer.obj
 0001:00044070       ?Mod@EuclideanDomainOf@TaoCrypt@@UBEABVInteger@2@ABV32@0@Z 00445070 f i mysqlclient:integer.obj
 0001:000440c0       ?DivisionAlgorithm@EuclideanDomainOf@TaoCrypt@@UBEXAAVInteger@2@0ABV32@1@Z 004450c0 f i mysqlclient:integer.obj
 0001:000440e0       ?ConvertIn@ModularArithmetic@TaoCrypt@@UBE?AVInteger@2@ABV32@@Z 004450e0 f i mysqlclient:integer.obj
 0001:00044100       ?Multiply@ModularArithmetic@TaoCrypt@@UBEABVInteger@2@ABV32@0@Z 00445100 f i mysqlclient:integer.obj
 0001:00044170       ?Square@ModularArithmetic@TaoCrypt@@UBEABVInteger@2@ABV32@@Z 00445170 f i mysqlclient:integer.obj
 0001:000441e0       ?ConvertIn@MontgomeryRepresentation@TaoCrypt@@UBE?AVInteger@2@ABV32@@Z 004451e0 f i mysqlclient:integer.obj
 0001:00044250       ?MultiplicativeIdentity@MontgomeryRepresentation@TaoCrypt@@UBEABVInteger@2@XZ 00445250 f i mysqlclient:integer.obj
 0001:000442c0       ??0Integer@TaoCrypt@@QAE@AAVRandomNumberGenerator@1@ABV01@1@Z 004452c0 f   mysqlclient:integer.obj
 0001:00044330       ?Gcd@Integer@TaoCrypt@@SA?AV12@ABV12@0@Z 00445330 f   mysqlclient:integer.obj
 0001:000443b0       ?InverseMod@Integer@TaoCrypt@@QBE?AV12@ABV12@@Z 004453b0 f   mysqlclient:integer.obj
 0001:00044640       ?CascadeExponentiate@ModularArithmetic@TaoCrypt@@UBE?AVInteger@2@ABV32@000@Z 00445640 f   mysqlclient:integer.obj
 0001:00044760       ?SimultaneousExponentiate@ModularArithmetic@TaoCrypt@@UBEXPAVInteger@2@ABV32@PBV32@I@Z 00445760 f   mysqlclient:integer.obj
 0001:00044890       ?CRT@TaoCrypt@@YA?AVInteger@1@ABV21@0000@Z 00445890 f   mysqlclient:integer.obj
 0001:00044950       ?IsUnit@ModularArithmetic@TaoCrypt@@UBE_NABVInteger@2@@Z 00445950 f i mysqlclient:integer.obj
 0001:00044990       ?MultiplicativeInverse@ModularArithmetic@TaoCrypt@@UBEABVInteger@2@ABV32@@Z 00445990 f i mysqlclient:integer.obj
 0001:000449d0       ?ModularRoot@TaoCrypt@@YA?AVInteger@1@ABV21@00000@Z 004459d0 f   mysqlclient:integer.obj
 0001:00044aa0       _bchange                   00445aa0 f   mysqlclient:bchange.obj
 0001:00044b00       _my_qsort                  00445b00 f   mysqlclient:mf_qsort.obj
 0001:00045190       ?Init@SHA@TaoCrypt@@UAEXXZ 00446190 f   mysqlclient:sha.obj
 0001:00045190       ?Init@RIPEMD160@TaoCrypt@@UAEXXZ 00446190 f   mysqlclient:ripemd.obj
 0001:000451c0       ??0SHA@TaoCrypt@@QAE@ABV01@@Z 004461c0 f   mysqlclient:sha.obj
 0001:00045220       ?Transform@SHA@TaoCrypt@@EAEXXZ 00446220 f   mysqlclient:sha.obj
 0001:000464e0       ?AsmTransform@SHA@TaoCrypt@@AAEXPBEI@Z 004474e0 f   mysqlclient:sha.obj
 0001:00047480       ?Swap@SHA@TaoCrypt@@QAEXAAV12@@Z 00448480 f   mysqlclient:sha.obj
 0001:000474e0       ?Update@SHA@TaoCrypt@@UAEXPBEI@Z 004484e0 f   mysqlclient:sha.obj
 0001:000475e0       ??4SHA@TaoCrypt@@QAEAAV01@ABV01@@Z 004485e0 f   mysqlclient:sha.obj
 0001:00047610       ?Transform@RIPEMD160@TaoCrypt@@EAEXXZ 00448610 f   mysqlclient:ripemd.obj
 0001:000490f0       ?AsmTransform@RIPEMD160@TaoCrypt@@AAEXPBEI@Z 0044a0f0 f   mysqlclient:ripemd.obj
 0001:0004a110       ?Update@RIPEMD160@TaoCrypt@@UAEXPBEI@Z 0044b110 f   mysqlclient:ripemd.obj
 0001:0004a1f0       ?xorbuf@TaoCrypt@@YAXPAEPBEI@Z 0044b1f0 f   mysqlclient:misc.obj
 0001:0004a240       ?BytePrecision@TaoCrypt@@YAII@Z 0044b240 f   mysqlclient:misc.obj
 0001:0004a270       ?BitPrecision@TaoCrypt@@YAII@Z 0044b270 f   mysqlclient:misc.obj
 0001:0004a2b0       ?Crop@TaoCrypt@@YAIII@Z    0044b2b0 f   mysqlclient:misc.obj
 0001:0004a2d0       ?HaveCpuId@TaoCrypt@@YA_NXZ 0044b2d0 f   mysqlclient:misc.obj
 0001:0004a350       ?CpuId@TaoCrypt@@YAXIPAI@Z 0044b350 f   mysqlclient:misc.obj
 0001:0004a370       ?IsPentium@TaoCrypt@@YA_NXZ 0044b370 f   mysqlclient:misc.obj
 0001:0004a590       ?RawProcessBlock@BasicDES@TaoCrypt@@QBEXAAI0@Z 0044b590 f   mysqlclient:des.obj
 0001:0004a6d0       ?AsmProcess@DES_EDE3@TaoCrypt@@ABEXPBEPAEPAX@Z 0044b6d0 f   mysqlclient:des.obj
 0001:0004bd00       ?SetKey@BasicDES@TaoCrypt@@QAEXPBEIW4CipherDir@2@@Z 0044cd00 f   mysqlclient:des.obj
 0001:0004c0e0       ?SetKey@DES_EDE3@TaoCrypt@@QAEXPBEIW4CipherDir@2@@Z 0044d0e0 f   mysqlclient:des.obj
 0001:0004c150       ?Process@DES_EDE3@TaoCrypt@@UAEXPAEPBEI@Z 0044d150 f   mysqlclient:des.obj
 0001:0004c290       ??$?RI@?$PutBlock@IU?$EnumToType@W4ByteOrder@TaoCrypt@@$00@TaoCrypt@@$00@TaoCrypt@@QAEAAV01@I@Z 0044d290 f i mysqlclient:des.obj
 0001:0004c2f0       ?ProcessAndXorBlock@DES@TaoCrypt@@EBEXPBE0PAE@Z 0044d2f0 f   mysqlclient:des.obj
 0001:0004c390       ?ProcessAndXorBlock@DES_EDE3@TaoCrypt@@EBEXPBE0PAE@Z 0044d390 f   mysqlclient:des.obj
 0001:0004c460       ?AsmEncrypt@AES@TaoCrypt@@ABEXPBEPAEPAX@Z 0044d460 f   mysqlclient:aes.obj
 0001:0004c720       ?AsmDecrypt@AES@TaoCrypt@@ABEXPBEPAEPAX@Z 0044d720 f   mysqlclient:aes.obj
 0001:0004c9e0       ?Process@AES@TaoCrypt@@UAEXPAEPBEI@Z 0044d9e0 f   mysqlclient:aes.obj
 0001:0004cb80       ?SetKey@AES@TaoCrypt@@QAEXPBEIW4CipherDir@2@@Z 0044db80 f   mysqlclient:aes.obj
 0001:0004d190       ?encrypt@AES@TaoCrypt@@ABEXPBE0PAE@Z 0044e190 f   mysqlclient:aes.obj
 0001:0004d6e0       ?decrypt@AES@TaoCrypt@@ABEXPBE0PAE@Z 0044e6e0 f   mysqlclient:aes.obj
 0001:0004dc40       ?ProcessAndXorBlock@AES@TaoCrypt@@EBEXPBE0PAE@Z 0044ec40 f   mysqlclient:aes.obj
 0001:0004dc50       ?GenerateBlock@RandomNumberGenerator@TaoCrypt@@QAEXPAEI@Z 0044ec50 f   mysqlclient:random.obj
 0001:0004dc80       ??0OS_Seed@TaoCrypt@@QAE@XZ 0044ec80 f   mysqlclient:random.obj
 0001:0004dcb0       ??1OS_Seed@TaoCrypt@@QAE@XZ 0044ecb0 f   mysqlclient:random.obj
 0001:0004dcc0       ?GenerateSeed@OS_Seed@TaoCrypt@@QAEXPAEI@Z 0044ecc0 f   mysqlclient:random.obj
 0001:0004dcf0       ??0RandomNumberGenerator@TaoCrypt@@QAE@XZ 0044ecf0 f   mysqlclient:random.obj
 0001:0004dd60       ?SetKey@ARC4@TaoCrypt@@QAEXPBEI@Z 0044ed60 f   mysqlclient:arc4.obj
 0001:0004ddd0       ?AsmProcess@ARC4@TaoCrypt@@AAEXPAEPBEI@Z 0044edd0 f   mysqlclient:arc4.obj
 0001:0004de60       ?Process@ARC4@TaoCrypt@@QAEXPAEPBEI@Z 0044ee60 f   mysqlclient:arc4.obj
 0001:0004df90       ?Swap@DSA_PublicKey@TaoCrypt@@QAEXAAV12@@Z 0044ef90 f   mysqlclient:dsa.obj
 0001:0004dfd0       ?Initialize@DSA_PublicKey@TaoCrypt@@QAEXAAVSource@2@@Z 0044efd0 f   mysqlclient:dsa.obj
 0001:0004e000       ?GetPublicPart@DSA_PublicKey@TaoCrypt@@QBEABVInteger@2@XZ 0044f000 f   mysqlclient:dsa.obj
 0001:0004e010       ?SetModulus@DSA_PublicKey@TaoCrypt@@QAEXABVInteger@2@@Z 0044f010 f   mysqlclient:dsa.obj
 0001:0004e020       ?SetSubGroupOrder@DSA_PublicKey@TaoCrypt@@QAEXABVInteger@2@@Z 0044f020 f   mysqlclient:dsa.obj
 0001:0004e030       ?SetSubGroupGenerator@DSA_PublicKey@TaoCrypt@@QAEXABVInteger@2@@Z 0044f030 f   mysqlclient:dsa.obj
 0001:0004e040       ?SetPublicPart@DSA_PublicKey@TaoCrypt@@QAEXABVInteger@2@@Z 0044f040 f   mysqlclient:dsa.obj
 0001:0004e050       ?SignatureLength@DSA_PublicKey@TaoCrypt@@QBEIXZ 0044f050 f   mysqlclient:dsa.obj
 0001:0004e060       ?Initialize@DSA_PrivateKey@TaoCrypt@@QAEXAAVSource@2@@Z 0044f060 f   mysqlclient:dsa.obj
 0001:0004e090       ?GetPrivatePart@DSA_PrivateKey@TaoCrypt@@QBEABVInteger@2@XZ 0044f090 f   mysqlclient:dsa.obj
 0001:0004e0a0       ?SetPrivatePart@DSA_PrivateKey@TaoCrypt@@QAEXABVInteger@2@@Z 0044f0a0 f   mysqlclient:dsa.obj
 0001:0004e0b0       ??0DSA_PublicKey@TaoCrypt@@QAE@ABV01@@Z 0044f0b0 f   mysqlclient:dsa.obj
 0001:0004e0f0       ??4DSA_PublicKey@TaoCrypt@@QAEAAV01@ABV01@@Z 0044f0f0 f   mysqlclient:dsa.obj
 0001:0004e170       ??0DSA_PublicKey@TaoCrypt@@QAE@AAVSource@1@@Z 0044f170 f   mysqlclient:dsa.obj
 0001:0004e1b0       ?Sign@DSA_Signer@TaoCrypt@@QAEIPBEPAEAAVRandomNumberGenerator@2@@Z 0044f1b0 f   mysqlclient:dsa.obj
 0001:0004e480       ??0DSA_Signer@TaoCrypt@@QAE@ABVDSA_PrivateKey@1@@Z 0044f480 f   mysqlclient:dsa.obj
 0001:0004e480       ??0DSA_Verifier@TaoCrypt@@QAE@ABVDSA_PublicKey@1@@Z 0044f480 f   mysqlclient:dsa.obj
 0001:0004e4a0       ?Verify@DSA_Verifier@TaoCrypt@@QAE_NPBE0@Z 0044f4a0 f   mysqlclient:dsa.obj
 0001:0004e7e0       ?DiscreteLogWorkFactor@?A0x4e23f1d4@TaoCrypt@@YAII@Z 0044f7e0 f   mysqlclient:dh.obj
 0001:0004e860       ?GeneratePrivate@DH@TaoCrypt@@AAEXAAVRandomNumberGenerator@2@PAE@Z 0044f860 f   mysqlclient:dh.obj
 0001:0004e940       ?GeneratePublic@DH@TaoCrypt@@AAEXPBEPAE@Z 0044f940 f   mysqlclient:dh.obj
 0001:0004e9c0       ?Agree@DH@TaoCrypt@@QAEXPAEPBE1I@Z 0044f9c0 f   mysqlclient:dh.obj
 0001:0004ea80       ?GenerateKeyPair@DH@TaoCrypt@@QAEXAAVRandomNumberGenerator@2@PAE1@Z 0044fa80 f   mysqlclient:dh.obj
 0001:0004eab0       ?Initialize@RSA_PublicKey@TaoCrypt@@QAEXAAVSource@2@@Z 0044fab0 f   mysqlclient:rsa.obj
 0001:0004eae0       ?Initialize@RSA_PrivateKey@TaoCrypt@@QAEXAAVSource@2@@Z 0044fae0 f   mysqlclient:rsa.obj
 0001:0004eb10       ?Pad@RSA_BlockType2@TaoCrypt@@QBEXPBEIPAEIAAVRandomNumberGenerator@2@@Z 0044fb10 f   mysqlclient:rsa.obj
 0001:0004eb80       ?Pad@RSA_BlockType1@TaoCrypt@@QBEXPBEIPAEIAAVRandomNumberGenerator@2@@Z 0044fb80 f   mysqlclient:rsa.obj
 0001:0004ebe0       ??_GRSA_Public_Decoder@TaoCrypt@@UAEPAXI@Z 0044fbe0 f i mysqlclient:rsa.obj
 0001:0004ebe0       ??_GRSA_Private_Decoder@TaoCrypt@@UAEPAXI@Z 0044fbe0 f i mysqlclient:rsa.obj
 0001:0004ebe0       ??_EDSA_Public_Decoder@TaoCrypt@@UAEPAXI@Z 0044fbe0 f i mysqlclient:dsa.obj
 0001:0004ebe0       ??_GDSA_Public_Decoder@TaoCrypt@@UAEPAXI@Z 0044fbe0 f i mysqlclient:dsa.obj
 0001:0004ebe0       ??_ERSA_Private_Decoder@TaoCrypt@@UAEPAXI@Z 0044fbe0 f i mysqlclient:rsa.obj
 0001:0004ebe0       ??_EDSA_Private_Decoder@TaoCrypt@@UAEPAXI@Z 0044fbe0 f i mysqlclient:dsa.obj
 0001:0004ebe0       ??_GBER_Decoder@TaoCrypt@@UAEPAXI@Z 0044fbe0 f i mysqlclient:dsa.obj
 0001:0004ebe0       ??_ERSA_Public_Decoder@TaoCrypt@@UAEPAXI@Z 0044fbe0 f i mysqlclient:rsa.obj
 0001:0004ebe0       ??_EBER_Decoder@TaoCrypt@@UAEPAXI@Z 0044fbe0 f i mysqlclient:dsa.obj
 0001:0004ebe0       ??_GDSA_Private_Decoder@TaoCrypt@@UAEPAXI@Z 0044fbe0 f i mysqlclient:dsa.obj
 0001:0004ec00       ?ApplyFunction@RSA_PublicKey@TaoCrypt@@QBE?AVInteger@2@ABV32@@Z 0044fc00 f   mysqlclient:rsa.obj
 0001:0004ec20       ??0RSA_PublicKey@TaoCrypt@@QAE@AAVSource@1@@Z 0044fc20 f   mysqlclient:rsa.obj
 0001:0004ec50       ?CalculateInverse@RSA_PrivateKey@TaoCrypt@@QBE?AVInteger@2@AAVRandomNumberGenerator@2@ABV32@@Z 0044fc50 f   mysqlclient:rsa.obj
 0001:0004edd0       ?UnPad@RSA_BlockType2@TaoCrypt@@QBEIPBEIPAE@Z 0044fdd0 f   mysqlclient:rsa.obj
 0001:0004ee60       ?UnPad@RSA_BlockType1@TaoCrypt@@QBEIPBEIPAE@Z 0044fe60 f   mysqlclient:rsa.obj
 0001:0004eef0       ?SSL_Decrypt@TaoCrypt@@YAIABVRSA_PublicKey@1@PBEPAE@Z 0044fef0 f   mysqlclient:rsa.obj
 0001:0004eff0       ??O?A0x6e61e47f@TaoCrypt@@YA_NAAUtm@@0@Z 0044fff0 f   mysqlclient:asn.obj
 0001:0004f070       ??M?A0x6e61e47f@TaoCrypt@@YA_NAAUtm@@0@Z 00450070 f   mysqlclient:asn.obj
 0001:0004f090       ?btoi@?A0x6e61e47f@TaoCrypt@@YAIE@Z 00450090 f   mysqlclient:asn.obj
 0001:0004f0a0       ?GetTime@?A0x6e61e47f@TaoCrypt@@YAXAAHPBE0@Z 004500a0 f   mysqlclient:asn.obj
 0001:0004f0e0       ?ValidateDate@?A0x6e61e47f@TaoCrypt@@YA_NPBEEW4DateType@CertDecoder@2@@Z 004500e0 f   mysqlclient:asn.obj
 0001:0004f240       ?SetLength@TaoCrypt@@YAIIPAE@Z 00450240 f   mysqlclient:asn.obj
 0001:0004f2b0       ?SetSize@PublicKey@TaoCrypt@@QAEXI@Z 004502b0 f   mysqlclient:asn.obj
 0001:0004f2d0       ?SetKey@PublicKey@TaoCrypt@@QAEXPBE@Z 004502d0 f   mysqlclient:asn.obj
 0001:0004f2f0       ?GetError@BER_Decoder@TaoCrypt@@QAE?AUError@2@XZ 004502f0 f   mysqlclient:asn.obj
 0001:0004f300       ?GetInteger@BER_Decoder@TaoCrypt@@QAEAAVInteger@2@AAV32@@Z 00450300 f   mysqlclient:asn.obj
 0001:0004f330       ?SetDigest@Signature_Encoder@TaoCrypt@@AAEIPBEIPAE@Z 00450330 f   mysqlclient:asn.obj
 0001:0004f360       ?SetSequence@TaoCrypt@@YAIIPAE@Z 00450360 f   mysqlclient:asn.obj
 0001:0004f380       ?EncodeDSA_Signature@TaoCrypt@@YAIABVInteger@1@0PAE@Z 00450380 f   mysqlclient:asn.obj
 0001:0004f490       ?advance@Source@TaoCrypt@@QAEXI@Z 00450490 f i mysqlclient:asn.obj
 0001:0004f4c0       ?GetLength@TaoCrypt@@YAIAAVSource@1@@Z 004504c0 f   mysqlclient:asn.obj
 0001:0004f590       ??0PublicKey@TaoCrypt@@QAE@PBEI@Z 00450590 f   mysqlclient:asn.obj
 0001:0004f5c0       ??0Signer@TaoCrypt@@QAE@PBEIPBD0@Z 004505c0 f   mysqlclient:asn.obj
 0001:0004f640       ??1Signer@TaoCrypt@@QAE@XZ 00450640 f   mysqlclient:asn.obj
 0001:0004f650       ?GetSequence@BER_Decoder@TaoCrypt@@QAEIXZ 00450650 f   mysqlclient:asn.obj
 0001:0004f6b0       ?GetSet@BER_Decoder@TaoCrypt@@QAEIXZ 004506b0 f   mysqlclient:asn.obj
 0001:0004f710       ?GetVersion@BER_Decoder@TaoCrypt@@QAEIXZ 00450710 f   mysqlclient:asn.obj
 0001:0004f7c0       ?GetExplicitVersion@BER_Decoder@TaoCrypt@@QAEIXZ 004507c0 f   mysqlclient:asn.obj
 0001:0004f830       ?Decode@RSA_Private_Decoder@TaoCrypt@@QAEXAAVRSA_PrivateKey@2@@Z 00450830 f   mysqlclient:asn.obj
 0001:0004f9c0       ?ReadHeader@DSA_Private_Decoder@TaoCrypt@@EAEXXZ 004509c0 f   mysqlclient:asn.obj
 0001:0004f9c0       ?ReadHeader@RSA_Private_Decoder@TaoCrypt@@EAEXXZ 004509c0 f   mysqlclient:asn.obj
 0001:0004f9d0       ?Decode@DSA_Private_Decoder@TaoCrypt@@QAEXAAVDSA_PrivateKey@2@@Z 004509d0 f   mysqlclient:asn.obj
 0001:0004fae0       ?ReadHeaderOpenSSL@RSA_Public_Decoder@TaoCrypt@@AAEXXZ 00450ae0 f   mysqlclient:asn.obj
 0001:0004fc60       ?Decode@DSA_Public_Decoder@TaoCrypt@@QAEXAAVDSA_PublicKey@2@@Z 00450c60 f   mysqlclient:asn.obj
 0001:0004fd40       ?ReadHeader@RSA_Public_Decoder@TaoCrypt@@EAEXXZ 00450d40 f   mysqlclient:asn.obj
 0001:0004fd40       ?ReadHeader@DSA_Public_Decoder@TaoCrypt@@EAEXXZ 00450d40 f   mysqlclient:asn.obj
 0001:0004fd50       ??1CertDecoder@TaoCrypt@@UAE@XZ 00450d50 f   mysqlclient:asn.obj
 0001:0004fd80       ?ReadHeader@CertDecoder@TaoCrypt@@EAEXXZ 00450d80 f   mysqlclient:asn.obj
 0001:0004fdf0       ?StoreKey@CertDecoder@TaoCrypt@@AAEXXZ 00450df0 f   mysqlclient:asn.obj
 0001:0004fea0       ?GetAlgoId@CertDecoder@TaoCrypt@@AAEIXZ 00450ea0 f   mysqlclient:asn.obj
 0001:0004ffa0       ?GetSignature@CertDecoder@TaoCrypt@@AAEIXZ 00450fa0 f   mysqlclient:asn.obj
 0001:00050080       ?AddTag@CertDecoder@TaoCrypt@@AAEPADPADPBD1II@Z 00451080 f   mysqlclient:asn.obj
 0001:000500e0       ?GetName@CertDecoder@TaoCrypt@@AAEXW4NameType@12@@Z 004510e0 f   mysqlclient:asn.obj
 0001:000504e0       ?GetDate@CertDecoder@TaoCrypt@@AAEXW4DateType@12@@Z 004514e0 f   mysqlclient:asn.obj
 0001:00050690       ?GetValidity@CertDecoder@TaoCrypt@@AAEXXZ 00451690 f   mysqlclient:asn.obj
 0001:000506c0       ?SetAlgoID@DER_Encoder@TaoCrypt@@QAEIW4HashType@2@PAE@Z 004516c0 f   mysqlclient:asn.obj
 0001:000507a0       ?EncodeDSA_Signature@TaoCrypt@@YAIPBEPAE@Z 004517a0 f   mysqlclient:asn.obj
 0001:00050810       ?Decode@RSA_Public_Decoder@TaoCrypt@@QAEXAAVRSA_PublicKey@2@@Z 00451810 f   mysqlclient:asn.obj
 0001:000508a0       ??_GCertDecoder@TaoCrypt@@UAEPAXI@Z 004518a0 f i mysqlclient:asn.obj
 0001:000508a0       ??_ECertDecoder@TaoCrypt@@UAEPAXI@Z 004518a0 f i mysqlclient:asn.obj
 0001:000508c0       ?AddToEnd@PublicKey@TaoCrypt@@QAEXPBEI@Z 004518c0 f   mysqlclient:asn.obj
 0001:00050920       ?AddDSA@CertDecoder@TaoCrypt@@AAEXXZ 00451920 f   mysqlclient:asn.obj
 0001:00050a70       ?DecodeDSA_Signature@TaoCrypt@@YAIPAEPBEI@Z 00451a70 f   mysqlclient:asn.obj
 0001:00050c80       ?GetKey@CertDecoder@TaoCrypt@@AAEXXZ 00451c80 f   mysqlclient:asn.obj
 0001:00050d60       ??0Signature_Encoder@TaoCrypt@@QAE@PBEIW4HashType@1@AAVSource@1@@Z 00451d60 f   mysqlclient:asn.obj
 0001:00050ec0       ??_GSignature_Encoder@TaoCrypt@@UAEPAXI@Z 00451ec0 f i mysqlclient:asn.obj
 0001:00050ec0       ??_EDER_Encoder@TaoCrypt@@UAEPAXI@Z 00451ec0 f i mysqlclient:asn.obj
 0001:00050ec0       ??_ESignature_Encoder@TaoCrypt@@UAEPAXI@Z 00451ec0 f i mysqlclient:asn.obj
 0001:00050ec0       ??_GDER_Encoder@TaoCrypt@@UAEPAXI@Z 00451ec0 f i mysqlclient:asn.obj
 0001:00050ee0       ?DecodeToKey@CertDecoder@TaoCrypt@@QAEXXZ 00451ee0 f   mysqlclient:asn.obj
 0001:00050f20       ?ConfirmSignature@CertDecoder@TaoCrypt@@AAE_NAAVSource@2@@Z 00451f20 f   mysqlclient:asn.obj
 0001:00051210       ?ValidateSignature@CertDecoder@TaoCrypt@@AAE_NPAV?$list@PAVSigner@TaoCrypt@@@mySTL@@@Z 00452210 f   mysqlclient:asn.obj
 0001:00051360       ?Decode@CertDecoder@TaoCrypt@@AAEXPAV?$list@PAVSigner@TaoCrypt@@@mySTL@@W4CertType@12@@Z 00452360 f   mysqlclient:asn.obj
 0001:000513f0       ??0CertDecoder@TaoCrypt@@QAE@AAVSource@1@_NPAV?$list@PAVSigner@TaoCrypt@@@mySTL@@1W4CertType@01@@Z 004523f0 f   mysqlclient:asn.obj
 0001:00051450       ?reset@Source@TaoCrypt@@QAEXAAV?$Block@EV?$AllocatorWithCleanup@E@TaoCrypt@@@2@@Z 00452450 f   mysqlclient:file.obj
 0001:00051af0       _my_xml_parse              00452af0 f   mysqlclient:xml.obj
 0001:00051e90       _my_xml_parser_create      00452e90 f   mysqlclient:xml.obj
 0001:00051eb0       _my_xml_set_value_handler  00452eb0 f   mysqlclient:xml.obj
 0001:00051ec0       _my_xml_set_enter_handler  00452ec0 f   mysqlclient:xml.obj
 0001:00051ed0       _my_xml_set_leave_handler  00452ed0 f   mysqlclient:xml.obj
 0001:00051ee0       _my_xml_set_user_data      00452ee0 f   mysqlclient:xml.obj
 0001:00052520       ?get_type@ServerHello@yaSSL@@UBE?AW4HandShakeType@2@XZ 00453520 f   mysqlclient:yassl_imp.obj
 0001:000526c0       _my_strntol_ucs2           004536c0 f   mysqlclient:ctype-ucs2.obj
 0001:000528d0       _my_strntoul_ucs2          004538d0 f   mysqlclient:ctype-ucs2.obj
 0001:00052ac0       _my_strntoll_ucs2          00453ac0 f   mysqlclient:ctype-ucs2.obj
 0001:00052d50       _my_strntoull_ucs2         00453d50 f   mysqlclient:ctype-ucs2.obj
 0001:00052fa0       _my_strntod_ucs2           00453fa0 f   mysqlclient:ctype-ucs2.obj
 0001:00053090       _my_strntoull10rnd_ucs2    00454090 f   mysqlclient:ctype-ucs2.obj
 0001:00053180       _my_l10tostr_ucs2          00454180 f   mysqlclient:ctype-ucs2.obj
 0001:00053280       _my_ll10tostr_ucs2         00454280 f   mysqlclient:ctype-ucs2.obj
 0001:000533c0       _my_strtoll10_ucs2         004543c0 f   mysqlclient:ctype-ucs2.obj
 0001:00053a90       _my_like_range_ucs2        00454a90 f   mysqlclient:ctype-ucs2.obj
 0001:00053d60       _my_scan_ucs2              00454d60 f   mysqlclient:ctype-ucs2.obj
 0001:00055e70       _my_strnncoll_gbk_internal 00456e70 f   mysqlclient:ctype-gbk.obj
 0001:00055f70       _my_strnncoll_gbk          00456f70 f   mysqlclient:ctype-gbk.obj
 0001:00059690       _uncompress                0045a690 f   mysqlclient:uncompr.obj
 0001:00059740       _my_load_path              0045a740 f   mysqlclient:mf_loadpath.obj
 0001:00059870       ?FindNextWindow@WindowSlider@TaoCrypt@@QAEXXZ 0045a870 f i mysqlclient:algebra.obj
 0001:00059920       ??$GetArrayMemory@VInteger@TaoCrypt@@@mySTL@@YAPAVInteger@TaoCrypt@@I@Z 0045a920 f i mysqlclient:algebra.obj
 0001:00059930       ??$GetArrayMemory@V?$vector@VInteger@TaoCrypt@@@mySTL@@@mySTL@@YAPAV?$vector@VInteger@TaoCrypt@@@0@I@Z 0045a930 f i mysqlclient:algebra.obj
 0001:00059950       ??$GetArrayMemory@UWindowSlider@TaoCrypt@@@mySTL@@YAPAUWindowSlider@TaoCrypt@@I@Z 0045a950 f i mysqlclient:algebra.obj
 0001:00059970       ?ScalarMultiply@AbstractGroup@TaoCrypt@@UBE?AVInteger@2@ABV32@0@Z 0045a970 f   mysqlclient:algebra.obj
 0001:000599a0       ??0WindowSlider@TaoCrypt@@QAE@ABVInteger@1@_NI@Z 0045a9a0 f i mysqlclient:algebra.obj
 0001:00059a50       ?Exponentiate@AbstractRing@TaoCrypt@@UBE?AVInteger@2@ABV32@0@Z 0045aa50 f   mysqlclient:algebra.obj
 0001:00059a80       ??$uninit_fill_n@PAVInteger@TaoCrypt@@IV12@@mySTL@@YAPAVInteger@TaoCrypt@@PAV12@IABV12@@Z 0045aa80 f i mysqlclient:algebra.obj
 0001:00059ac0       ??$uninit_copy@PAVInteger@TaoCrypt@@PAV12@@mySTL@@YAPAVInteger@TaoCrypt@@PAV12@00@Z 0045aac0 f i mysqlclient:algebra.obj
 0001:00059b00       ??0WindowSlider@TaoCrypt@@QAE@ABU01@@Z 0045ab00 f i mysqlclient:algebra.obj
 0001:00059b50       ??0?$vector@VInteger@TaoCrypt@@@mySTL@@QAE@I@Z 0045ab50 f i mysqlclient:algebra.obj
 0001:00059bb0       ??0?$vector@VInteger@TaoCrypt@@@mySTL@@AAE@IABV01@@Z 0045abb0 f i mysqlclient:algebra.obj
 0001:00059c00       ??$uninit_copy@PAUWindowSlider@TaoCrypt@@PAU12@@mySTL@@YAPAUWindowSlider@TaoCrypt@@PAU12@00@Z 0045ac00 f i mysqlclient:algebra.obj
 0001:00059c70       ??0?$vector@UWindowSlider@TaoCrypt@@@mySTL@@AAE@IABV01@@Z 0045ac70 f i mysqlclient:algebra.obj
 0001:00059cd0       ??$destroy@PAVInteger@TaoCrypt@@@mySTL@@YAXPAVInteger@TaoCrypt@@0@Z 0045acd0 f i mysqlclient:algebra.obj
 0001:00059d00       ??$uninit_fill_n@PAV?$vector@VInteger@TaoCrypt@@@mySTL@@IV12@@mySTL@@YAPAV?$vector@VInteger@TaoCrypt@@@0@PAV10@IABV10@@Z 0045ad00 f i mysqlclient:algebra.obj
 0001:00059d60       ??$destroy@PAUWindowSlider@TaoCrypt@@@mySTL@@YAXPAUWindowSlider@TaoCrypt@@0@Z 0045ad60 f i mysqlclient:algebra.obj
 0001:00059da0       ?resize@?$vector@VInteger@TaoCrypt@@@mySTL@@QAEXIABVInteger@TaoCrypt@@@Z 0045ada0 f i mysqlclient:algebra.obj
 0001:00059e40       ??0?$vector@V?$vector@VInteger@TaoCrypt@@@mySTL@@@mySTL@@QAE@I@Z 0045ae40 f i mysqlclient:algebra.obj
 0001:00059eb0       ?push_back@?$vector@UWindowSlider@TaoCrypt@@@mySTL@@QAEXABUWindowSlider@TaoCrypt@@@Z 0045aeb0 f i mysqlclient:algebra.obj
 0001:00059f40       ?reserve@?$vector@UWindowSlider@TaoCrypt@@@mySTL@@QAEXI@Z 0045af40 f i mysqlclient:algebra.obj
 0001:00059fb0       ?Gcd@AbstractEuclideanDomain@TaoCrypt@@UBEABVInteger@2@ABV32@0@Z 0045afb0 f   mysqlclient:algebra.obj
 0001:0005a0e0       ?CascadeScalarMultiply@AbstractGroup@TaoCrypt@@UBE?AVInteger@2@ABV32@000@Z 0045b0e0 f   mysqlclient:algebra.obj
 0001:0005a570       ?CascadeExponentiate@AbstractRing@TaoCrypt@@UBE?AVInteger@2@ABV32@000@Z 0045b570 f   mysqlclient:algebra.obj
 0001:0005a5a0       ??$destroy@PAV?$vector@VInteger@TaoCrypt@@@mySTL@@@mySTL@@YAXPAV?$vector@VInteger@TaoCrypt@@@0@0@Z 0045b5a0 f i mysqlclient:algebra.obj
 0001:0005a5e0       ?SimultaneousMultiply@AbstractGroup@TaoCrypt@@UBEXPAVInteger@2@ABV32@PBV32@I@Z 0045b5e0 f   mysqlclient:algebra.obj
 0001:0005a8c0       ?SimultaneousExponentiate@AbstractRing@TaoCrypt@@UBEXPAVInteger@2@ABV32@PBV32@I@Z 0045b8c0 f   mysqlclient:algebra.obj
 0001:0005a8f0       ?Init@MD2@TaoCrypt@@UAEXXZ 0045b8f0 f   mysqlclient:md2.obj
 0001:0005a930       ?Update@MD2@TaoCrypt@@UAEXPBEI@Z 0045b930 f   mysqlclient:md2.obj
 0001:0005aad0       ?Final@MD2@TaoCrypt@@UAEXPAE@Z 0045bad0 f   mysqlclient:md2.obj
 0001:0005ab60       ??0MD2@TaoCrypt@@QAE@XZ    0045bb60 f   mysqlclient:md2.obj
 0001:0005ac20       ??1MD2@TaoCrypt@@UAE@XZ    0045bc20 f i mysqlclient:md2.obj
 0001:0005ac70       ??_EMD2@TaoCrypt@@UAEPAXI@Z 0045bc70 f i mysqlclient:md2.obj
 0001:0005ac70       ??_GMD2@TaoCrypt@@UAEPAXI@Z 0045bc70 f i mysqlclient:md2.obj
 0001:0005acb6       _DES_key_sched             0045bcb6 f   libeay32:LIBEAY32.dll
 0001:0005acbc       _DES_ncbc_encrypt          0045bcbc f   libeay32:LIBEAY32.dll
 0001:0005acc2       __Getcvt                   0045bcc2 f   libcpmt:xwctomb.obj
 0001:0005acd8       ??0_Init_locks@std@@QAE@XZ 0045bcd8 f   libcpmt:xlock.obj
 0001:0005ad09       ??1_Init_locks@std@@QAE@XZ 0045bd09 f   libcpmt:xlock.obj
 0001:0005ad32       ??0_Lockit@std@@QAE@H@Z    0045bd32 f   libcpmt:xlock.obj
 0001:0005ad5a       ??1_Lockit@std@@QAE@XZ     0045bd5a f   libcpmt:xlock.obj
 0001:0005ad71       ??1_Fac_node@std@@QAE@XZ   0045bd71 f i libcpmt:locale0.obj
 0001:0005ad86       ?_Facet_Register@facet@locale@std@@CAXPAV123@@Z 0045bd86 f   libcpmt:locale0.obj
 0001:0005adb0       __Deletegloballocale       0045bdb0 f   libcpmt:locale0.obj
 0001:0005adfd       ?_Getgloballocale@locale@std@@CAPAV_Locimp@12@XZ 0045bdfd f   libcpmt:locale0.obj
 0001:0005ae03       ?_Setgloballocale@locale@std@@CAXPAX@Z 0045be03 f   libcpmt:locale0.obj
 0001:0005ae2d       ?_Locimp_dtor@_Locimp@locale@std@@CAXPAV123@@Z 0045be2d f   libcpmt:locale0.obj
 0001:0005ae8d       ??1_Fac_tidy_reg_t@std@@QAE@XZ 0045be8d f i libcpmt:locale0.obj
 0001:0005aedb       ?_Locinfo_dtor@_Locinfo@std@@SAXPAV12@@Z 0045bedb f   libcpmt:locale0.obj
 0001:0005aef6       ??4?$_Yarn@D@std@@QAEAAV01@PBD@Z 0045bef6 f i libcpmt:locale0.obj
 0001:0005af4e       ?_Locinfo_ctor@_Locinfo@std@@SAXPAV12@PBD@Z 0045bf4e f   libcpmt:locale0.obj
 0001:0005af9b       ??0_Locimp@locale@std@@AAE@_N@Z 0045bf9b f i libcpmt:locale0.obj
 0001:0005afda       ??1_Locimp@locale@std@@MAE@XZ 0045bfda f i libcpmt:locale0.obj
 0001:0005b01d       ??_G_Locimp@locale@std@@MAEPAXI@Z 0045c01d f i libcpmt:locale0.obj
 0001:0005b01d       ??_E_Locimp@locale@std@@MAEPAXI@Z 0045c01d f i libcpmt:locale0.obj
 0001:0005b03e       ?_Init@locale@std@@CAPAV_Locimp@12@XZ 0045c03e f   libcpmt:locale0.obj
 0001:0005b0cd       ??8error_condition@std@@QBE_NABV01@@Z 0045c0cd f i libcpmt:syserror.obj
 0001:0005b0ee       ?default_error_condition@_System_error_category@std@@UBE?AVerror_condition@2@H@Z 0045c0ee f i libcpmt:syserror.obj
 0001:0005b0ee       ?default_error_condition@error_category@std@@UBE?AVerror_condition@2@H@Z 0045c0ee f i libcpmt:syserror.obj
 0001:0005b102       ?equivalent@error_category@std@@UBE_NHABVerror_condition@2@@Z 0045c102 f i libcpmt:syserror.obj
 0001:0005b123       ?equivalent@error_category@std@@UBE_NABVerror_code@2@H@Z 0045c123 f i libcpmt:syserror.obj
 0001:0005b142       ?name@_Generic_error_category@std@@UBEPBDXZ 0045c142 f i libcpmt:syserror.obj
 0001:0005b142       ?name@_Iostream_error_category@std@@UBEPBDXZ 0045c142 f i libcpmt:syserror.obj
 0001:0005b146       ?name@_System_error_category@std@@UBEPBDXZ 0045c146 f i libcpmt:syserror.obj
 0001:0005b14a       ?iostream_category@std@@YAABVerror_category@1@XZ 0045c14a f   libcpmt:syserror.obj
 0001:0005b150       ??_E_Iostream_error_category@std@@UAEPAXI@Z 0045c150 f i libcpmt:syserror.obj
 0001:0005b150       ??_G_Iostream_error_category@std@@UAEPAXI@Z 0045c150 f i libcpmt:syserror.obj
 0001:0005b150       ??_E_System_error_category@std@@UAEPAXI@Z 0045c150 f i libcpmt:syserror.obj
 0001:0005b150       ??_Gerror_category@std@@UAEPAXI@Z 0045c150 f i libcpmt:syserror.obj
 0001:0005b150       ??_G_Generic_error_category@std@@UAEPAXI@Z 0045c150 f i libcpmt:syserror.obj
 0001:0005b150       ??_Eerror_category@std@@UAEPAXI@Z 0045c150 f i libcpmt:syserror.obj
 0001:0005b150       ??_E_Generic_error_category@std@@UAEPAXI@Z 0045c150 f i libcpmt:syserror.obj
 0001:0005b150       ??_G_System_error_category@std@@UAEPAXI@Z 0045c150 f i libcpmt:syserror.obj
 0001:0005b172       ?message@_Generic_error_category@std@@UBE?AV?$basic_string@DU?$char_traits@D@std@@V?$allocator@D@2@@2@H@Z 0045c172 f i libcpmt:syserror.obj
 0001:0005b195       ?message@_Iostream_error_category@std@@UBE?AV?$basic_string@DU?$char_traits@D@std@@V?$allocator@D@2@@2@H@Z 0045c195 f i libcpmt:syserror.obj
 0001:0005b1c5       ??_U@YAPAXI@Z              0045c1c5 f   libcpmt:newaop.obj
 0001:0005b1d0       ??1length_error@std@@UAE@XZ 0045c1d0 f i libcpmt:xthrow.obj
 0001:0005b1d0       ??1out_of_range@std@@UAE@XZ 0045c1d0 f i libcpmt:xthrow.obj
 0001:0005b1d5       ??0logic_error@std@@QAE@ABV01@@Z 0045c1d5 f i libcpmt:xthrow.obj
 0001:0005b1f2       ?_Xlength_error@std@@YAXPBD@Z 0045c1f2 f   libcpmt:xthrow.obj
 0001:0005b222       ??0length_error@std@@QAE@ABV01@@Z 0045c222 f i libcpmt:xthrow.obj
 0001:0005b23f       ?_Xout_of_range@std@@YAXPBD@Z 0045c23f f   libcpmt:xthrow.obj
 0001:0005b26f       ??0out_of_range@std@@QAE@ABV01@@Z 0045c26f f i libcpmt:xthrow.obj
 0001:0005b28c       ??_Glength_error@std@@UAEPAXI@Z 0045c28c f i libcpmt:xthrow.obj
 0001:0005b28c       ??_Elength_error@std@@UAEPAXI@Z 0045c28c f i libcpmt:xthrow.obj
 0001:0005b28c       ??_Glogic_error@std@@UAEPAXI@Z 0045c28c f i libcpmt:xthrow.obj
 0001:0005b28c       ??_Elogic_error@std@@UAEPAXI@Z 0045c28c f i libcpmt:xthrow.obj
 0001:0005b28c       ??_Eout_of_range@std@@UAEPAXI@Z 0045c28c f i libcpmt:xthrow.obj
 0001:0005b28c       ??_Gout_of_range@std@@UAEPAXI@Z 0045c28c f i libcpmt:xthrow.obj
 0001:0005b2ad       ?uncaught_exception@std@@YA_NXZ 0045c2ad f   libcpmt:uncaught.obj
 0001:0005b2c8       ?setw@std@@YA?AU?$_Smanip@_J@1@_J@Z 0045c2c8 f   libcpmt:iomanip.obj
 0001:0005b2e4       ??0locale@std@@QAE@XZ      0045c2e4 f i libcpmt:cout.obj
 0001:0005b300       ??1?$basic_ios@DU?$char_traits@D@std@@@std@@UAE@XZ 0045c300 f i libcpmt:cout.obj
 0001:0005b310       ??_Eios_base@std@@UAEPAXI@Z 0045c310 f i libcpmt:cout.obj
 0001:0005b310       ??_E?$basic_ios@DU?$char_traits@D@std@@@std@@UAEPAXI@Z 0045c310 f i libcpmt:cout.obj
 0001:0005b310       ??_Gios_base@std@@UAEPAXI@Z 0045c310 f i libcpmt:cout.obj
 0001:0005b310       ??_G?$basic_ios@DU?$char_traits@D@std@@@std@@UAEPAXI@Z 0045c310 f i libcpmt:cout.obj
 0001:0005b339       ??0?$ctype@D@std@@QAE@ABV_Locinfo@1@I@Z 0045c339 f i libcpmt:cout.obj
 0001:0005b36e       ?_Tidy@?$ctype@D@std@@IAEXXZ 0045c36e f i libcpmt:cout.obj
 0001:0005b38b       ?do_tolower@?$ctype@D@std@@MBEDD@Z 0045c38b f i libcpmt:cout.obj
 0001:0005b3a4       ?do_tolower@?$ctype@D@std@@MBEPBDPADPBD@Z 0045c3a4 f i libcpmt:cout.obj
 0001:0005b3d2       ?do_toupper@?$ctype@D@std@@MBEDD@Z 0045c3d2 f i libcpmt:cout.obj
 0001:0005b3eb       ?do_toupper@?$ctype@D@std@@MBEPBDPADPBD@Z 0045c3eb f i libcpmt:cout.obj
 0001:0005b419       ?do_widen@?$ctype@D@std@@MBEDD@Z 0045c419 f i libcpmt:cout.obj
 0001:0005b425       ?do_widen@?$ctype@D@std@@MBEPBDPBD0PAD@Z 0045c425 f i libcpmt:cout.obj
 0001:0005b446       ?do_narrow@?$ctype@D@std@@MBEDDD@Z 0045c446 f i libcpmt:cout.obj
 0001:0005b452       ?do_narrow@?$ctype@D@std@@MBEPBDPBD0DPAD@Z 0045c452 f i libcpmt:cout.obj
 0001:0005b473       ??_E?$ctype@D@std@@MAEPAXI@Z 0045c473 f i libcpmt:cout.obj
 0001:0005b473       ??_G?$ctype@D@std@@MAEPAXI@Z 0045c473 f i libcpmt:cout.obj
 0001:0005b4a0       ?_Init@ios_base@std@@IAEXXZ 0045c4a0 f i libcpmt:cout.obj
 0001:0005b4f2       ??_D?$basic_ostream@DU?$char_traits@D@std@@@std@@QAEXXZ 0045c4f2 f i libcpmt:cout.obj
 0001:0005b511       ??0_Init_cout@std@@QAE@XZ  0045c511 f i libcpmt:cout.obj
 0001:0005b566       ??1?$basic_streambuf@DU?$char_traits@D@std@@@std@@UAE@XZ 0045c566 f i libcpmt:cout.obj
 0001:0005b591       ?_Lock@?$basic_streambuf@DU?$char_traits@D@std@@@std@@UAEXXZ 0045c591 f i libcpmt:cout.obj
 0001:0005b599       ?_Unlock@?$basic_streambuf@DU?$char_traits@D@std@@@std@@UAEXXZ 0045c599 f i libcpmt:cout.obj
 0001:0005b5a1       ?pbackfail@?$basic_streambuf@DU?$char_traits@D@std@@@std@@MAEHH@Z 0045c5a1 f i libcpmt:cout.obj
 0001:0005b5a1       ?overflow@?$basic_streambuf@DU?$char_traits@D@std@@@std@@MAEHH@Z 0045c5a1 f i libcpmt:cout.obj
 0001:0005b5a7       ?showmanyc@?$basic_streambuf@DU?$char_traits@D@std@@@std@@MAE_JXZ 0045c5a7 f i libcpmt:cout.obj
 0001:0005b5ac       ?underflow@?$basic_streambuf@DU?$char_traits@D@std@@@std@@MAEHXZ 0045c5ac f i libcpmt:cout.obj
 0001:0005b5b0       ?setbuf@?$basic_streambuf@DU?$char_traits@D@std@@@std@@MAEPAV12@PAD_J@Z 0045c5b0 f i libcpmt:cout.obj
 0001:0005b5b5       ?imbue@?$basic_streambuf@DU?$char_traits@D@std@@@std@@MAEXABVlocale@2@@Z 0045c5b5 f i libcpmt:cout.obj
 0001:0005b5b8       ?uflow@?$basic_streambuf@DU?$char_traits@D@std@@@std@@MAEHXZ 0045c5b8 f i libcpmt:cout.obj
 0001:0005b5df       ?xsgetn@?$basic_streambuf@DU?$char_traits@D@std@@@std@@MAE_JPAD_J@Z 0045c5df f i libcpmt:cout.obj
 0001:0005b6a8       ?xsputn@?$basic_streambuf@DU?$char_traits@D@std@@@std@@MAE_JPBD_J@Z 0045c6a8 f i libcpmt:cout.obj
 0001:0005b773       ?seekoff@?$basic_streambuf@DU?$char_traits@D@std@@@std@@MAE?AV?$fpos@H@2@_JHH@Z 0045c773 f i libcpmt:cout.obj
 0001:0005b79b       ?seekpos@?$basic_streambuf@DU?$char_traits@D@std@@@std@@MAE?AV?$fpos@H@2@V32@H@Z 0045c79b f i libcpmt:cout.obj
 0001:0005b7c3       ??_G?$basic_ostream@DU?$char_traits@D@std@@@std@@UAEPAXI@Z 0045c7c3 f i libcpmt:cout.obj
 0001:0005b7c3       ??_E?$basic_ostream@DU?$char_traits@D@std@@@std@@UAEPAXI@Z 0045c7c3 f i libcpmt:cout.obj
 0001:0005b7e7       ??_G?$basic_streambuf@DU?$char_traits@D@std@@@std@@UAEPAXI@Z 0045c7e7 f i libcpmt:cout.obj
 0001:0005b7e7       ??_E?$basic_streambuf@DU?$char_traits@D@std@@@std@@UAEPAXI@Z 0045c7e7 f i libcpmt:cout.obj
 0001:0005b808       ?_Reset_back@?$basic_filebuf@DU?$char_traits@D@std@@@std@@AAEXXZ 0045c808 f i libcpmt:cout.obj
 0001:0005b829       ?_Init@?$basic_streambuf@DU?$char_traits@D@std@@@std@@IAEXXZ 0045c829 f i libcpmt:cout.obj
 0001:0005b86b       ?_Getcat@?$ctype@D@std@@SAIPAPBVfacet@locale@2@PBV42@@Z 0045c86b f i libcpmt:cout.obj
 0001:0005b8e5       ??0?$basic_streambuf@DU?$char_traits@D@std@@@std@@IAE@XZ 0045c8e5 f i libcpmt:cout.obj
 0001:0005b931       ?_Init@?$basic_filebuf@DU?$char_traits@D@std@@@std@@IAEXPAU_iobuf@@W4_Initfl@12@@Z 0045c931 f i libcpmt:cout.obj
 0001:0005b97f       ??$use_facet@V?$ctype@D@std@@@std@@YAABV?$ctype@D@0@ABVlocale@0@@Z 0045c97f f i libcpmt:cout.obj
 0001:0005ba1c       ?do_always_noconv@codecvt_base@std@@MBE_NXZ 0045ca1c f i libcpmt:cout.obj
 0001:0005ba1f       ?do_max_length@codecvt_base@std@@MBEHXZ 0045ca1f f i libcpmt:cout.obj
 0001:0005ba1f       ?do_encoding@codecvt_base@std@@MBEHXZ 0045ca1f f i libcpmt:cout.obj
 0001:0005ba23       ??$_Fgetc@D@std@@YA_NAADPAU_iobuf@@@Z 0045ca23 f i libcpmt:cout.obj
 0001:0005ba43       ??$_Fputc@D@std@@YA_NDPAU_iobuf@@@Z 0045ca43 f i libcpmt:cout.obj
 0001:0005ba61       ??$_Ungetc@D@std@@YA_NABDPAU_iobuf@@@Z 0045ca61 f i libcpmt:cout.obj
 0001:0005ba81       ?_Lock@?$basic_filebuf@DU?$char_traits@D@std@@@std@@UAEXXZ 0045ca81 f i libcpmt:cout.obj
 0001:0005ba90       ?_Unlock@?$basic_filebuf@DU?$char_traits@D@std@@@std@@UAEXXZ 0045ca90 f i libcpmt:cout.obj
 0001:0005ba9f       ?sync@?$basic_filebuf@DU?$char_traits@D@std@@@std@@MAEHXZ 0045ca9f f i libcpmt:cout.obj
 0001:0005bacc       ?underflow@?$basic_filebuf@DU?$char_traits@D@std@@@std@@MAEHXZ 0045cacc f i libcpmt:cout.obj
 0001:0005bb0a       ?_Set_back@?$basic_filebuf@DU?$char_traits@D@std@@@std@@AAEXXZ 0045cb0a f i libcpmt:cout.obj
 0001:0005bb3e       ?do_out@?$codecvt@DDH@std@@MBEHAAHPBD1AAPBDPAD3AAPAD@Z 0045cb3e f i libcpmt:cout.obj
 0001:0005bb3e       ?do_in@?$codecvt@DDH@std@@MBEHAAHPBD1AAPBDPAD3AAPAD@Z 0045cb3e f i libcpmt:cout.obj
 0001:0005bb5a       ?do_unshift@?$codecvt@DDH@std@@MBEHAAHPAD1AAPAD@Z 0045cb5a f i libcpmt:cout.obj
 0001:0005bb6e       ?do_length@?$codecvt@DDH@std@@MBEHABHPBD1I@Z 0045cb6e f i libcpmt:cout.obj
 0001:0005bb85       ??_E?$codecvt@DDH@std@@MAEPAXI@Z 0045cb85 f i libcpmt:cout.obj
 0001:0005bb85       ??_G?$codecvt@DDH@std@@MAEPAXI@Z 0045cb85 f i libcpmt:cout.obj
 0001:0005bba7       ?pbackfail@?$basic_filebuf@DU?$char_traits@D@std@@@std@@MAEHH@Z 0045cba7 f i libcpmt:cout.obj
 0001:0005bc2c       ?_Initcvt@?$basic_filebuf@DU?$char_traits@D@std@@@std@@IAEXPBV?$codecvt@DDH@2@@Z 0045cc2c f i libcpmt:cout.obj
 0001:0005bc59       ?_Getcat@?$codecvt@DDH@std@@SAIPAPBVfacet@locale@2@PBV42@@Z 0045cc59 f i libcpmt:cout.obj
 0001:0005bcd8       ?setbuf@?$basic_filebuf@DU?$char_traits@D@std@@@std@@MAEPAV?$basic_streambuf@DU?$char_traits@D@std@@@2@PAD_J@Z 0045ccd8 f i libcpmt:cout.obj
 0001:0005bd24       ?widen@?$basic_ios@DU?$char_traits@D@std@@@std@@QBEDD@Z 0045cd24 f i libcpmt:cout.obj
 0001:0005bd64       ??$use_facet@V?$codecvt@DDH@std@@@std@@YAABV?$codecvt@DDH@0@ABVlocale@0@@Z 0045cd64 f i libcpmt:cout.obj
 0001:0005be01       ?imbue@?$basic_filebuf@DU?$char_traits@D@std@@@std@@MAEXABVlocale@2@@Z 0045ce01 f i libcpmt:cout.obj
 0001:0005be1f       ?init@?$basic_ios@DU?$char_traits@D@std@@@std@@IAEXPAV?$basic_streambuf@DU?$char_traits@D@std@@@2@_N@Z 0045ce1f f i libcpmt:cout.obj
 0001:0005be6a       ?assign@?$basic_string@DU?$char_traits@D@std@@V?$allocator@D@2@@std@@QAEAAV12@ID@Z 0045ce6a f i libcpmt:cout.obj
 0001:0005beb9       ??0?$basic_ostream@DU?$char_traits@D@std@@@std@@QAE@PAV?$basic_streambuf@DU?$char_traits@D@std@@@1@_N@Z 0045ceb9 f i libcpmt:cout.obj
 0001:0005bf13       ?uflow@?$basic_filebuf@DU?$char_traits@D@std@@@std@@MAEHXZ 0045cf13 f i libcpmt:cout.obj
 0001:0005c084       ?_Endwrite@?$basic_filebuf@DU?$char_traits@D@std@@@std@@IAE_NXZ 0045d084 f i libcpmt:cout.obj
 0001:0005c17c       ?overflow@?$basic_filebuf@DU?$char_traits@D@std@@@std@@MAEHH@Z 0045d17c f i libcpmt:cout.obj
 0001:0005c2d7       ?seekoff@?$basic_filebuf@DU?$char_traits@D@std@@@std@@MAE?AV?$fpos@H@2@_JHH@Z 0045d2d7 f i libcpmt:cout.obj
 0001:0005c38f       ?seekpos@?$basic_filebuf@DU?$char_traits@D@std@@@std@@MAE?AV?$fpos@H@2@V32@H@Z 0045d38f f i libcpmt:cout.obj
 0001:0005c447       ?close@?$basic_filebuf@DU?$char_traits@D@std@@@std@@QAEPAV12@XZ 0045d447 f i libcpmt:cout.obj
 0001:0005c492       ??1?$basic_filebuf@DU?$char_traits@D@std@@@std@@UAE@XZ 0045d492 f i libcpmt:cout.obj
 0001:0005c4d6       ??_E?$basic_filebuf@DU?$char_traits@D@std@@@std@@UAEPAXI@Z 0045d4d6 f i libcpmt:cout.obj
 0001:0005c4d6       ??_G?$basic_filebuf@DU?$char_traits@D@std@@@std@@UAEPAXI@Z 0045d4d6 f i libcpmt:cout.obj
 0001:0005c4f7       ??0_Init_cerr@std@@QAE@XZ  0045d4f7 f i libcpmt:cerr.obj
 0001:0005c57d       __Mtxinit                  0045d57d f   libcpmt:xmtx.obj
 0001:0005c58d       __Mtxdst                   0045d58d f   libcpmt:xmtx.obj
 0001:0005c59d       __Mtxlock                  0045d59d f   libcpmt:xmtx.obj
 0001:0005c5ad       __Mtxunlock                0045d5ad f   libcpmt:xmtx.obj
 0001:0005c5bd       ?_Atexit@@YAXP6AXXZ@Z      0045d5bd f   libcpmt:iosptrs.obj
 0001:0005c5ef       ??1_Init_atexit@@QAE@XZ    0045d5ef f i libcpmt:iosptrs.obj
 0001:0005c61a       __Tolower                  0045d61a f   libcpmt:_tolower.obj
 0001:0005c727       __Getctype                 0045d727 f   libcpmt:_tolower.obj
 0001:0005c787       ?_Callfns@ios_base@std@@AAEXW4event@12@@Z 0045d787 f i libcpmt:ios.obj
 0001:0005c7ae       ?_Tidy@ios_base@std@@AAEXXZ 0045d7ae f i libcpmt:ios.obj
 0001:0005c7f2       ?_Addstd@ios_base@std@@SAXPAV12@@Z 0045d7f2 f   libcpmt:ios.obj
 0001:0005c847       ?_Ios_base_dtor@ios_base@std@@CAXPAV12@@Z 0045d847 f   libcpmt:ios.obj
 0001:0005c885       __Toupper                  0045d885 f   libcpmt:_toupper.obj
 0001:0005c997       ??0_Mutex@std@@QAE@XZ      0045d997 f   libcpmt:xmutex.obj
 0001:0005c9b1       ??1_Mutex@std@@QAE@XZ      0045d9b1 f   libcpmt:xmutex.obj
 0001:0005c9c8       ?_Lock@_Mutex@std@@QAEXXZ  0045d9c8 f   libcpmt:xmutex.obj
 0001:0005c9d1       ?_Unlock@_Mutex@std@@QAEXXZ 0045d9d1 f   libcpmt:xmutex.obj
 0001:0005c9da       ??0exception@std@@QAE@ABQBDH@Z 0045d9da f   LIBCMT:stdexcpt.obj
 0001:0005c9f7       ?what@exception@std@@UBEPBDXZ 0045d9f7 f   LIBCMT:stdexcpt.obj
 0001:0005ca04       ?_Copy_str@exception@std@@AAEXPBD@Z 0045da04 f   LIBCMT:stdexcpt.obj
 0001:0005ca44       ?_Tidy@exception@std@@AAEXXZ 0045da44 f   LIBCMT:stdexcpt.obj
 0001:0005ca62       ??0exception@std@@QAE@ABQBD@Z 0045da62 f   LIBCMT:stdexcpt.obj
 0001:0005ca89       ??4exception@std@@QAEAAV01@ABV01@@Z 0045da89 f   LIBCMT:stdexcpt.obj
 0001:0005cabe       ??1bad_cast@std@@UAE@XZ    0045dabe f   LIBCMT:stdexcpt.obj
 0001:0005cabe       ??1exception@std@@UAE@XZ   0045dabe f   LIBCMT:stdexcpt.obj
 0001:0005cac9       ??0bad_cast@std@@QAE@PBD@Z 0045dac9 f   LIBCMT:stdexcpt.obj
 0001:0005cae7       ??_Ebad_cast@std@@UAEPAXI@Z 0045dae7 f i LIBCMT:stdexcpt.obj
 0001:0005cae7       ??_Eexception@std@@UAEPAXI@Z 0045dae7 f i LIBCMT:stdexcpt.obj
 0001:0005cae7       ??_Gbad_cast@std@@UAEPAXI@Z 0045dae7 f i LIBCMT:stdexcpt.obj
 0001:0005cae7       ??_Gexception@std@@UAEPAXI@Z 0045dae7 f i LIBCMT:stdexcpt.obj
 0001:0005cb0e       ??0exception@std@@QAE@ABV01@@Z 0045db0e f   LIBCMT:stdexcpt.obj
 0001:0005cb33       ??0bad_cast@std@@QAE@ABV01@@Z 0045db33 f   LIBCMT:stdexcpt.obj
 0001:0005cb50       ??1type_info@@UAE@XZ       0045db50 f   LIBCMT:typinfo.obj
 0001:0005cb60       ??_Gtype_info@@UAEPAXI@Z   0045db60 f i LIBCMT:typinfo.obj
 0001:0005cb60       ??_Etype_info@@UAEPAXI@Z   0045db60 f i LIBCMT:typinfo.obj
 0001:0005cb81       ??8type_info@@QBE_NABV0@@Z 0045db81 f   LIBCMT:typinfo.obj
 0001:0005cba1       ??3@YAXPAX@Z               0045dba1 f   LIBCMT:delete.obj
 0001:0005cbb0       _memset                    0045dbb0 f   LIBCMT:memset.obj
 0001:0005cc2a       ??_V@YAXPAX@Z              0045dc2a f   LIBCMT:delete2.obj
 0001:0005cc35       ??2@YAPAXI@Z               0045dc35 f   LIBCMT:new.obj
 0001:0005ccb5       ?_JumpToContinuation@@YGXPAXPAUEHRegistrationNode@@@Z 0045dcb5 f   LIBCMT:_trnsctrl_.obj
 0001:0005cce7       ?_CallMemberFunction2@@YGXPAX00H@Z 0045dce7 f   LIBCMT:_trnsctrl_.obj
 0001:0005cce7       ?_CallMemberFunction1@@YGXPAX00@Z 0045dce7 f   LIBCMT:_trnsctrl_.obj
 0001:0005cce7       ?_CallMemberFunction0@@YGXPAX0@Z 0045dce7 f   LIBCMT:_trnsctrl_.obj
 0001:0005ccee       ?_UnwindNestedFrames@@YGXPAUEHRegistrationNode@@PAUEHExceptionRecord@@@Z 0045dcee f   LIBCMT:_trnsctrl_.obj
 0001:0005cd42       ___CxxFrameHandler3        0045dd42 f   LIBCMT:_trnsctrl_.obj
 0001:0005cdab       ?_CallSETranslator@@YAHPAUEHExceptionRecord@@PAUEHRegistrationNode@@PAX2PBU_s_FuncInfo@@H1@Z 0045ddab f   LIBCMT:_trnsctrl_.obj
 0001:0005cf21       ?_GetRangeOfTrysToCheck@@YAPBU_s_TryBlockMapEntry@@PBU_s_FuncInfo@@HHPAI1@Z 0045df21 f   LIBCMT:_trnsctrl_.obj
 0001:0005cf94       __CreateFrameInfo          0045df94 f   LIBCMT:_trnsctrl_.obj
 0001:0005cfc0       __IsExceptionObjectToBeDestroyed 0045dfc0 f   LIBCMT:_trnsctrl_.obj
 0001:0005cfe7       __FindAndUnlinkFrame       0045dfe7 f   LIBCMT:_trnsctrl_.obj
 0001:0005d039       ?_CallCatchBlock2@@YAPAXPAUEHRegistrationNode@@PBU_s_FuncInfo@@PAXHK@Z 0045e039 f   LIBCMT:_trnsctrl_.obj
 0001:0005d099       @__security_check_cookie@4 0045e099 f   LIBCMT:secchk.obj
 0001:0005d0a8       _free                      0045e0a8 f   LIBCMT:free.obj
 0001:0005d0e2       __CxxThrowException@8      0045e0e2 f   LIBCMT:throw.obj
 0001:0005d130       _memcpy                    0045e130 f   LIBCMT:memcpy.obj
 0001:0005d4a0       _memmove                   0045e4a0 f   LIBCMT:memmove.obj
 0001:0005d801       _localeconv                0045e801 f   LIBCMT:lconv.obj
 0001:0005d830       _memchr                    0045e830 f   LIBCMT:memchr.obj
 0001:0005d8e0       _strcspn                   0045e8e0 f   LIBCMT:strcspn.obj
 0001:0005d926       _memmove_s                 0045e926 f   LIBCMT:memmove_s.obj
 0001:0005d980       _strncpy                   0045e980 f   LIBCMT:strncpy.obj
 0001:0005daa4       _sprintf                   0045eaa4 f   LIBCMT:sprintf.obj
 0001:0005db28       _sprintf_s                 0045eb28 f   LIBCMT:sprintf.obj
 0001:0005db46       __cfltcvt_init             0045eb46 f   LIBCMT:_fpinit_.obj
 0001:0005dba6       __fpmath                   0045eba6 f   LIBCMT:_fpinit_.obj
 0001:0005dbbf       _srand                     0045ebbf f   LIBCMT:rand.obj
 0001:0005dbd1       _rand                      0045ebd1 f   LIBCMT:rand.obj
 0001:0005dbf2       __snprintf                 0045ebf2 f   LIBCMT:snprintf.obj
 0001:0005dc9e       _printf                    0045ec9e f   LIBCMT:printf.obj
 0001:0005dd45       __get_printf_count_output  0045ed45 f   LIBCMT:printf.obj
 0001:0005dd5b       _atol                      0045ed5b f   LIBCMT:atox.obj
 0001:0005dd71       _atoi                      0045ed71 f   LIBCMT:atox.obj
 0001:0005dd7c       ??0_LocaleUpdate@@QAE@PAUlocaleinfo_struct@@@Z 0045ed7c f i LIBCMT:stricmp.obj
 0001:0005de03       ___ascii_stricmp           0045ee03 f   LIBCMT:stricmp.obj
 0001:0005de3c       __stricmp_l                0045ee3c f   LIBCMT:stricmp.obj
 0001:0005defc       __stricmp                  0045eefc f   LIBCMT:stricmp.obj
 0001:0005defc       _stricmp                   0045eefc f   LIBCMT:stricmp.obj
 0001:0005df50       _strstr                    0045ef50 f   LIBCMT:strstr.obj
 0001:0005dfd6       __time64                   0045efd6 f   LIBCMT:time64.obj
 0001:0005e027       __fclose_nolock            0045f027 f   LIBCMT:fclose.obj
 0001:0005e094       _fclose                    0045f094 f   LIBCMT:fclose.obj
 0001:0005e108       _vfscanf                   0045f108 f   LIBCMT:fscanf.obj
 0001:0005e202       _fscanf                    0045f202 f   LIBCMT:fscanf.obj
 0001:0005e222       __strnicmp_l               0045f222 f   LIBCMT:strnicmp.obj
 0001:0005e304       __strnicmp                 0045f304 f   LIBCMT:strnicmp.obj
 0001:0005e357       _feof                      0045f357 f   LIBCMT:feoferr.obj
 0001:0005e37f       _fgets                     0045f37f f   LIBCMT:fgets.obj
 0001:0005e4b7       __fsopen                   0045f4b7 f   LIBCMT:fopen.obj
 0001:0005e573       _fopen                     0045f573 f   LIBCMT:fopen.obj
 0001:0005e58a       __initp_misc_winsig        0045f58a f   LIBCMT:winsig.obj
 0001:0005e67b       ___get_sigabrt             0045f67b f   LIBCMT:winsig.obj
 0001:0005e688       _signal                    0045f688 f   LIBCMT:winsig.obj
 0001:0005e8c8       _raise                     0045f8c8 f   LIBCMT:winsig.obj
 0001:0005eb21       ___onexitinit              0045fb21 f   LIBCMT:onexit.obj
 0001:0005eb52       __onexit                   0045fb52 f   LIBCMT:onexit.obj
 0001:0005eb8e       _atexit                    0045fb8e f   LIBCMT:onexit.obj
 0001:0005eba5       ___crtCorExitProcess       0045fba5 f   LIBCMT:crt0dat.obj
 0001:0005ebd0       ___crtExitProcess          0045fbd0 f   LIBCMT:crt0dat.obj
 0001:0005ebe8       __lockexit                 0045fbe8 f   LIBCMT:crt0dat.obj
 0001:0005ebf1       __unlockexit               0045fbf1 f   LIBCMT:crt0dat.obj
 0001:0005ebfa       __init_pointers            0045fbfa f   LIBCMT:crt0dat.obj
 0001:0005ec2d       __initterm_e               0045fc2d f   LIBCMT:crt0dat.obj
 0001:0005ec51       __cinit                    0045fc51 f   LIBCMT:crt0dat.obj
 0001:0005ee28       _exit                      0045fe28 f   LIBCMT:crt0dat.obj
 0001:0005ee3e       __exit                     0045fe3e f   LIBCMT:crt0dat.obj
 0001:0005ee54       __cexit                    0045fe54 f   LIBCMT:crt0dat.obj
 0001:0005ee63       __c_exit                   0045fe63 f   LIBCMT:crt0dat.obj
 0001:0005ee72       __amsg_exit                0045fe72 f   LIBCMT:crt0dat.obj
 0001:0005ee90       __alloca_probe             0045fe90     LIBCMT:chkstk.obj
 0001:0005ee90       __chkstk                   0045fe90 f   LIBCMT:chkstk.obj
 0001:0005eebb       __tolower_l                0045febb f   LIBCMT:tolower.obj
 0001:0005efd0       _tolower                   0045ffd0 f   LIBCMT:tolower.obj
 0001:0005effc       __toupper_l                0045fffc f   LIBCMT:toupper.obj
 0001:0005f112       _toupper                   00460112 f   LIBCMT:toupper.obj
 0001:0005f140       __ftol2_sse                00460140 f   LIBCMT:ftol2.obj
 0001:0005f149       __ftol2_pentium4           00460149 f   LIBCMT:ftol2.obj
 0001:0005f15c       __ftol2_sse_excpt          0046015c f   LIBCMT:ftol2.obj
 0001:0005f176       __ftol2                    00460176 f   LIBCMT:ftol2.obj
 0001:0005f1eb       __endthread                004601eb f   LIBCMT:thread.obj
 0001:0005f2b2       __beginthread              004602b2 f   LIBCMT:thread.obj
 0001:0005f359       __localtime64_s            00460359 f   LIBCMT:loctim64.obj
 0001:0005f5e1       __localtime64              004605e1 f   LIBCMT:loctim64.obj
 0001:0005f608       ___iob_func                00460608 f   LIBCMT:_file.obj
 0001:0005f60e       ___initstdio               0046060e f   LIBCMT:_file.obj
 0001:0005f6bf       ___endstdio                004606bf f   LIBCMT:_file.obj
 0001:0005f6df       __lock_file                004606df f   LIBCMT:_file.obj
 0001:0005f720       __lock_file2               00460720 f   LIBCMT:_file.obj
 0001:0005f752       __unlock_file              00460752 f   LIBCMT:_file.obj
 0001:0005f78e       __unlock_file2             0046078e f   LIBCMT:_file.obj
 0001:0005f7bd       _vfprintf_helper           004607bd f   LIBCMT:vfprintf.obj
 0001:0005f8c8       _vfprintf                  004608c8 f   LIBCMT:vfprintf.obj
 0001:0005f8e7       _fputs                     004608e7 f   LIBCMT:fputs.obj
 0001:0005f9ed       __flush                    004609ed f   LIBCMT:fflush.obj
 0001:0005fa55       __fflush_nolock            00460a55 f   LIBCMT:fflush.obj
 0001:0005fb77       _fflush                    00460b77 f   LIBCMT:fflush.obj
 0001:0005fbca       __flushall                 00460bca f   LIBCMT:fflush.obj
 0001:0005fbd3       _fprintf                   00460bd3 f   LIBCMT:fprintf.obj
 0001:0005fcdf       __gmtime64_s               00460cdf f   LIBCMT:gmtime64.obj
 0001:0005ff18       __gmtime64                 00460f18 f   LIBCMT:gmtime64.obj
 0001:0005ff3f       __fileno                   00460f3f f   LIBCMT:fileno.obj
 0001:0005ff3f       _fileno                    00460f3f f   LIBCMT:fileno.obj
 0001:0005ff70       __allshl                   00460f70 f   LIBCMT:llshl.obj
 0001:0005ff90       __aullshr                  00460f90 f   LIBCMT:ullshr.obj
 0001:0005ffaf       __ftime64_s                00460faf f   LIBCMT:ftime64.obj
 0001:0006011f       __ftime64                  0046111f f   LIBCMT:ftime64.obj
 0001:000602b4       _mainCRTStartup            004612b4 f   LIBCMT:crt0.obj
 0001:000602be       __getenv_helper_nolock     004612be f   LIBCMT:getenv.obj
 0001:00060345       _getenv                    00461345 f   LIBCMT:getenv.obj
 0001:000603d0       _strchr                    004613d0 f   LIBCMT:strchr.obj
 0001:000603d6       ___from_strstr_to_strchr   004613d6     LIBCMT:strchr.obj
 0001:000606b9       _strtol                    004616b9 f   LIBCMT:strtol.obj
 0001:000606e4       _strtoul                   004616e4 f   LIBCMT:strtol.obj
 0001:00060710       __get_errno_from_oserr     00461710 f   LIBCMT:dosmap.obj
 0001:00060752       __errno                    00461752 f   LIBCMT:dosmap.obj
 0001:00060765       ___doserrno                00461765 f   LIBCMT:dosmap.obj
 0001:00060778       __dosmaperr                00461778 f   LIBCMT:dosmap.obj
 0001:000607a0       _floor                     004617a0 f   LIBCMT:_floor_pentium4_.obj
 0001:000607e0       __floor_pentium4           004617e0 f   LIBCMT:_floor_pentium4_.obj
 0001:000608c1       _strnlen                   004618c1 f   LIBCMT:strlen_s.obj
 0001:000608de       _malloc                    004618de f   LIBCMT:malloc.obj
 0001:00060972       _ldiv                      00461972 f   LIBCMT:ldiv.obj
 0001:00060980       _strncmp                   00461980 f   LIBCMT:strncmp.obj
 0001:00060a40       _puts                      00461a40 f   LIBCMT:puts.obj
 0001:00060b8f       _fputc                     00461b8f f   LIBCMT:fputc.obj
 0001:00060c8b       __purecall                 00461c8b f   LIBCMT:purevirt.obj
 0001:00060cb5       __fread_nolock_s           00461cb5 f   LIBCMT:fread.obj
 0001:00060e71       _fread_s                   00461e71 f   LIBCMT:fread.obj
 0001:00060eff       _fread                     00461eff f   LIBCMT:fread.obj
 0001:00060f1c       _rewind                    00461f1c f   LIBCMT:rewind.obj
 0001:00060fda       __ftell_nolock             00461fda f   LIBCMT:ftell.obj
 0001:0006116e       _ftell                     0046216e f   LIBCMT:ftell.obj
 0001:000611d3       __fseek_nolock             004621d3 f   LIBCMT:fseek.obj
 0001:0006125d       _fseek                     0046225d f   LIBCMT:fseek.obj
 0001:000612e0       _strncat                   004622e0 f   LIBCMT:strncat.obj
 0001:00061af6       ___tzset                   00462af6 f   LIBCMT:tzset.obj
 0001:00061b45       __tzset                    00462b45 f   LIBCMT:tzset.obj
 0001:00061b7d       __isindst                  00462b7d f   LIBCMT:tzset.obj
 0001:00061bbe       __initp_misc_invarg        00462bbe f   LIBCMT:invarg.obj
 0001:00061bcd       __call_reportfault         00462bcd f   LIBCMT:invarg.obj
 0001:00061cf6       __set_invalid_parameter_handler 00462cf6 f   LIBCMT:invarg.obj
 0001:00061d1d       __invoke_watson            00462d1d f   LIBCMT:invarg.obj
 0001:00061d42       __invalid_parameter        00462d42 f   LIBCMT:invarg.obj
 0001:00061d6f       __invalid_parameter_noinfo 00462d6f f   LIBCMT:invarg.obj
 0001:00061d80       __aulldiv                  00462d80 f   LIBCMT:ulldiv.obj
 0001:00061df0       __allmul                   00462df0 f   LIBCMT:llmul.obj
 0001:00061e30       __aulldvrm                 00462e30 f   LIBCMT:ulldvrm.obj
 0001:00061ec5       _calloc                    00462ec5 f   LIBCMT:calloc.obj
 0001:00061f05       __set_osfhnd               00462f05 f   LIBCMT:osfinfo.obj
 0001:00061f86       __free_osfhnd              00462f86 f   LIBCMT:osfinfo.obj
 0001:0006200c       __get_osfhandle            0046300c f   LIBCMT:osfinfo.obj
 0001:00062075       ___lock_fhandle            00463075 f   LIBCMT:osfinfo.obj
 0001:00062114       __unlock_fhandle           00463114 f   LIBCMT:osfinfo.obj
 0001:0006213b       __alloc_osfhnd             0046313b f   LIBCMT:osfinfo.obj
 0001:000622d4       __open_osfhandle           004632d4 f   LIBCMT:osfinfo.obj
 0001:000623ea       __umask_s                  004633ea f   LIBCMT:umask.obj
 0001:0006242b       __umask                    0046342b f   LIBCMT:umask.obj
 0001:00062450       __alldiv                   00463450 f   LIBCMT:lldiv.obj
 0001:00062500       __aullrem                  00463500 f   LIBCMT:ullrem.obj
 0001:00062610       _qsort                     00463610 f   LIBCMT:qsort.obj
 0001:0006289b       _realloc                   0046389b f   LIBCMT:realloc.obj
 0001:00062950       _strrchr                   00463950 f   LIBCMT:strrchr.obj
 0001:0006297d       __isupper_l                0046397d f i LIBCMT:_ctype.obj
 0001:000629ce       _isupper                   004639ce f i LIBCMT:_ctype.obj
 0001:000629fc       __islower_l                004639fc f i LIBCMT:_ctype.obj
 0001:00062a4d       _islower                   00463a4d f i LIBCMT:_ctype.obj
 0001:00062a7b       __isdigit_l                00463a7b f i LIBCMT:_ctype.obj
 0001:00062acc       _isdigit                   00463acc f i LIBCMT:_ctype.obj
 0001:00062afa       __isxdigit_l               00463afa f i LIBCMT:_ctype.obj
 0001:00062b50       _isxdigit                  00463b50 f i LIBCMT:_ctype.obj
 0001:00062b80       __isspace_l                00463b80 f i LIBCMT:_ctype.obj
 0001:00062bd1       _isspace                   00463bd1 f i LIBCMT:_ctype.obj
 0001:00062bff       __iscntrl_l                00463bff f i LIBCMT:_ctype.obj
 0001:00062c50       _iscntrl                   00463c50 f i LIBCMT:_ctype.obj
 0001:00062c7e       __close_nolock             00463c7e f   LIBCMT:close.obj
 0001:00062d1a       __close                    00463d1a f   LIBCMT:close.obj
 0001:00062d1a       _close                     00463d1a f   LIBCMT:close.obj
 0001:00062dde       __fstat64i32               00463dde f   LIBCMT:fstati32.obj
 0001:0006320a       __stat64i32                0046420a f   LIBCMT:stati32.obj
 0001:00063661       ___time64_t_from_ft        00464661 f   LIBCMT:findfi32.obj
 0001:000636dd       __findfirst64i32           004646dd f   LIBCMT:findfi32.obj
 0001:00063804       __findnext64i32            00464804 f   LIBCMT:findfi32.obj
 0001:00063932       __findclose                00464932 f   LIBCMT:findfile.obj
 0001:00063958       __finite                   00464958 f   LIBCMT:_ieeemisc_.obj
 0001:00063974       __isnan                    00464974 f   LIBCMT:_ieeemisc_.obj
 0001:000639ac       __fpclass                  004649ac f   LIBCMT:_ieeemisc_.obj
 0001:00063a50       __except_handler4          00464a50 f   LIBCMT:chandler4.obj
 0001:00063bdf       __aligned_offset_malloc    00464bdf f   LIBCMT:align.obj
 0001:00063c77       __aligned_free             00464c77 f   LIBCMT:align.obj
 0001:00063c91       __aligned_malloc           00464c91 f   LIBCMT:align.obj
 0001:00063cb0       __alloca_probe_16          00464cb0 f   LIBCMT:alloca16.obj
 0001:00063cc6       __alloca_probe_8           00464cc6     LIBCMT:alloca16.obj
 0001:00063ce0       _pow                       00464ce0 f   LIBCMT:_pow_.obj
 0001:00063d20       __CIpow                    00464d20 f   LIBCMT:_pow_.obj
 0001:00063d5b       __CIpow_default            00464d5b f   LIBCMT:_pow_.obj
 0001:00063d74       __pow_default              00464d74     LIBCMT:_pow_.obj
 0001:00063f70       _log                       00464f70 f   LIBCMT:_log_.obj
 0001:00063fb0       __CIlog                    00464fb0 f   LIBCMT:_log_.obj
 0001:00063feb       __CIlog_default            00464feb f   LIBCMT:_log_.obj
 0001:00063fff       __log_default              00464fff     LIBCMT:_log_.obj
 0001:000640c0       __fwrite_nolock            004650c0 f   LIBCMT:fwrite.obj
 0001:00064217       _fwrite                    00465217 f   LIBCMT:fwrite.obj
 0001:00064291       ___init_ctype              00465291 f   LIBCMT:initctyp.obj
 0001:00064638       ____lc_codepage_func       00465638 f   LIBCMT:initctyp.obj
 0001:0006465e       ____lc_handle_func         0046565e f   LIBCMT:initctyp.obj
 0001:00064684       __EH_prolog3               00465684 f   LIBCMT:ehprolg3.obj
 0001:000646b7       __EH_prolog3_catch         004656b7 f   LIBCMT:ehprolg3.obj
 0001:000646ed       __EH_prolog3_GS            004656ed f   LIBCMT:ehprolg3.obj
 0001:00064723       __EH_epilog3               00465723 f   LIBCMT:ehprolg3.obj
 0001:00064737       __EH_epilog3_GS            00465737 f   LIBCMT:ehprolg3.obj
 0001:0006476c       __free_locale              0046576c f   LIBCMT:setlocal.obj
 0001:0006482e       ___init_collate            0046582e f   LIBCMT:initcoll.obj
 0001:0006482e       ___init_dummy              0046582e f   LIBCMT:setlocal.obj
 0001:0006482e       ?sync@?$basic_streambuf@DU?$char_traits@D@std@@@std@@MAEHXZ 0046582e f   libcpmt:cout.obj
 0001:0006482e       __matherr                  0046582e f   LIBCMT:_matherr_.obj
 0001:00064831       __strcats                  00465831 f   LIBCMT:setlocal.obj
 0001:00064872       ___lc_strtolc              00465872 f   LIBCMT:setlocal.obj
 0001:00064991       ___lc_lctostr              00465991 f   LIBCMT:setlocal.obj
 0001:00064b61       __expandlocale             00465b61 f   LIBCMT:setlocal.obj
 0001:000652d8       _setlocale                 004662d8 f   LIBCMT:setlocal.obj
 0001:00065450       _strlen                    00466450 f   LIBCMT:strlen.obj
 0001:000654db       __get_sys_err_msg          004664db f i LIBCMT:strerror.obj
 0001:00065503       _strerror                  00466503 f   LIBCMT:strerror.obj
 0001:0006556d       ??1bad_exception@std@@UAE@XZ 0046656d f i LIBCMT:frame.obj
 0001:00065578       ??_Ebad_exception@std@@UAEPAXI@Z 00466578 f i LIBCMT:frame.obj
 0001:00065578       ??_Gbad_exception@std@@UAEPAXI@Z 00466578 f i LIBCMT:frame.obj
 0001:0006559f       ___TypeMatch               0046659f f   LIBCMT:frame.obj
 0001:000655fe       ___FrameUnwindFilter       004665fe f   LIBCMT:frame.obj
 0001:0006564d       ___FrameUnwindToState      0046664d f   LIBCMT:frame.obj
 0001:0006576e       ___DestructExceptionObject 0046676e f   LIBCMT:frame.obj
 0001:000657c3       ___AdjustPointer           004667c3 f   LIBCMT:frame.obj
 0001:000657ec       ?__uncaught_exception@@YA_NXZ 004667ec f   LIBCMT:frame.obj
 0001:00065a58       ___BuildCatchObjectHelper  00466a58 f   LIBCMT:frame.obj
 0001:00065bd7       ___BuildCatchObject        00466bd7 f   LIBCMT:frame.obj
 0001:00066153       ??0bad_exception@std@@QAE@ABV01@@Z 00467153 f i LIBCMT:frame.obj
 0001:00066170       ___InternalCxxFrameHandler 00467170 f   LIBCMT:frame.obj
 0001:00066256       _fgetc                     00467256 f   LIBCMT:fgetc.obj
 0001:0006634a       __ungetc_nolock            0046734a f   LIBCMT:ungetc.obj
 0001:0006642d       _ungetc                    0046742d f   LIBCMT:ungetc.obj
 0001:00066496       _setvbuf                   00467496 f   LIBCMT:setvbuf.obj
 0001:0006658c       _memcpy_s                  0046758c f   LIBCMT:memcpy_s.obj
 0001:00066601       _fgetpos                   00467601 f   LIBCMT:fgetpos.obj
 0001:0006665c       __fseeki64_nolock          0046765c f   LIBCMT:fseeki64.obj
 0001:000666f8       __fseeki64                 004676f8 f   LIBCMT:fseeki64.obj
 0001:00066777       _fsetpos                   00467777 f   LIBCMT:fsetpos.obj
 0001:0006686c       __itoa_s                   0046786c f   LIBCMT:xtoas.obj
 0001:00066896       __malloc_crt               00467896 f   LIBCMT:crtheap.obj
 0001:000668db       __calloc_crt               004678db f   LIBCMT:crtheap.obj
 0001:00066927       __realloc_crt              00467927 f   LIBCMT:crtheap.obj
 0001:00066975       __recalloc_crt             00467975 f   LIBCMT:crtheap.obj
 0001:000669c7       ___pctype_func             004679c7 f   LIBCMT:ctype.obj
 0001:000669f0       _abort                     004679f0 f   LIBCMT:abort.obj
 0001:00066a23       __set_abort_behavior       00467a23 f   LIBCMT:abort.obj
 0001:00066a44       __freea                    00467a44 f i LIBCMT:a_map.obj
 0001:00066c4b       ___crtLCMapStringA         00467c4b f   LIBCMT:a_map.obj
 0001:00066c91       _strcpy_s                  00467c91 f   LIBCMT:strcpy_s.obj
 0001:00066cf0       ?_Type_info_dtor@type_info@@CAXPAV1@@Z 00467cf0 f   LIBCMT:typname.obj
 0001:00066d60       _strcmp                    00467d60 f   LIBCMT:strcmp.obj
 0001:00066de8       __VEC_memzero              00467de8 f   LIBCMT:p4_memset.obj
 0001:00066ea2       ___sse2_available_init     00467ea2 f   LIBCMT:cpu_disp.obj
 0001:00066eb2       __initp_heap_handler       00467eb2 f   LIBCMT:handler.obj
 0001:00066ec1       __callnewh                 00467ec1 f   LIBCMT:handler.obj
 0001:00066ee9       __encoded_null             00467ee9 f   LIBCMT:tidtable.obj
 0001:00066ef2       ___crtTlsAlloc@4           00467ef2 f   LIBCMT:tidtable.obj
 0001:00066efb       ___fls_getvalue@4          00467efb f   LIBCMT:tidtable.obj
 0001:00066f15       ___get_flsindex            00467f15 f   LIBCMT:tidtable.obj
 0001:00066f1b       ___set_flsgetvalue         00467f1b f   LIBCMT:tidtable.obj
 0001:00066f4f       ___fls_setvalue@8          00467f4f f   LIBCMT:tidtable.obj
 0001:00066f6c       __mtterm                   00467f6c f   LIBCMT:tidtable.obj
 0001:00066fa9       __initptd                  00467fa9 f   LIBCMT:tidtable.obj
 0001:0006705d       __getptd_noexit            0046805d f   LIBCMT:tidtable.obj
 0001:000670d6       __getptd                   004680d6 f   LIBCMT:tidtable.obj
 0001:000670f0       __freefls@4                004680f0 f   LIBCMT:tidtable.obj
 0001:0006721f       __freeptd                  0046821f f   LIBCMT:tidtable.obj
 0001:0006728d       __mtinit                   0046828d f   LIBCMT:tidtable.obj
 0001:00067408       ?terminate@@YAXXZ          00468408 f   LIBCMT:hooks.obj
 0001:00067441       ?unexpected@@YAXXZ         00468441 f   LIBCMT:hooks.obj
 0001:00067454       ?_inconsistency@@YAXXZ     00468454 f   LIBCMT:hooks.obj
 0001:0006748c       __initp_eh_hooks           0046848c f   LIBCMT:hooks.obj
 0001:000674a0       __CallSettingFrame@12      004684a0 f   LIBCMT:lowhelpr.obj
 0001:000674c7       __NLG_Return               004684c7     LIBCMT:lowhelpr.obj
 0001:000674ec       ___report_gsfailure        004684ec f   LIBCMT:gs_report.obj
 0001:000675f2       __heap_init                004685f2 f   LIBCMT:heapinit.obj
 0001:00067610       __VEC_memcpy               00468610 f   LIBCMT:p4_memcpy.obj
 0001:00067713       ___addlocaleref            00468713 f   LIBCMT:localref.obj
 0001:000677a2       ___removelocaleref         004687a2 f   LIBCMT:localref.obj
 0001:0006783b       ___freetlocinfo            0046883b f   LIBCMT:localref.obj
 0001:00067986       __updatetlocinfoEx_nolock  00468986 f   LIBCMT:localref.obj
 0001:000679d3       ___updatetlocinfo          004689d3 f   LIBCMT:localref.obj
 0001:00067a4c       __flsbuf                   00468a4c f   LIBCMT:_flsbuf.obj
 0001:00067bb0       __output_l                 00468bb0 f   LIBCMT:output.obj
 0001:0006875c       __vsnprintf_helper         0046975c f   LIBCMT:vsnprnc.obj
 0001:00068826       __vsprintf_s_l             00469826 f   LIBCMT:vsnprnc.obj
 0001:0006889d       __forcdecpt_l              0046989d f   LIBCMT:cvt.obj
 0001:00068911       __cropzeros_l              00469911 f   LIBCMT:cvt.obj
 0001:00068993       __positive                 00469993 f   LIBCMT:cvt.obj
 0001:000689af       __fassign_l                004699af f   LIBCMT:cvt.obj
 0001:000689f1       __fassign                  004699f1 f   LIBCMT:cvt.obj
 0001:00068a2a       __forcdecpt                00469a2a f   LIBCMT:cvt.obj
 0001:00068a3d       __cropzeros                00469a3d f   LIBCMT:cvt.obj
 0001:00068bb1       __cftoe_l                  00469bb1 f   LIBCMT:cvt.obj
 0001:00068c78       __cftoe                    00469c78 f   LIBCMT:cvt.obj
 0001:00068c98       __cftoa_l                  00469c98 f   LIBCMT:cvt.obj
 0001:00069111       __cftof_l                  0046a111 f   LIBCMT:cvt.obj
 0001:000691d2       __cftog_l                  0046a1d2 f   LIBCMT:cvt.obj
 0001:000692bf       __cfltcvt_l                0046a2bf f   LIBCMT:cvt.obj
 0001:00069347       __cfltcvt                  0046a347 f   LIBCMT:cvt.obj
 0001:0006936a       __initp_misc_cfltcvt_tab   0046a36a f   LIBCMT:cmiscdat.obj
 0001:0006938d       __setdefaultprecision      0046a38d f   LIBCMT:fp8.obj
 0001:000693b5       __vsnprintf_l              0046a3b5 f   LIBCMT:vsnprint.obj
 0001:00069461       __vsnprintf                0046a461 f   LIBCMT:vsnprint.obj
 0001:00069461       _vsnprintf                 0046a461 f   LIBCMT:vsnprint.obj
 0001:0006947e       __stbuf                    0046a47e f   LIBCMT:_sftbuf.obj
 0001:0006951a       __ftbuf                    0046a51a f   LIBCMT:_sftbuf.obj
 0001:00069550       __SEH_prolog4              0046a550 f   LIBCMT:sehprolg4.obj
 0001:00069595       __SEH_epilog4              0046a595 f   LIBCMT:sehprolg4.obj
 0001:000697cc       ___updatetmbcinfo          0046a7cc f   LIBCMT:mbctype.obj
 0001:000698ec       __setmbcp_nolock           0046a8ec f   LIBCMT:mbctype.obj
 0001:00069ad5       __setmbcp                  0046aad5 f   LIBCMT:mbctype.obj
 0001:00069c6f       ___initmbctable            0046ac6f f   LIBCMT:mbctype.obj
 0001:00069c8d       __freebuf                  0046ac8d f   LIBCMT:_freebuf.obj
 0001:00069cbe       __ioinit                   0046acbe f   LIBCMT:ioinit.obj
 0001:00069fba       __input_l                  0046afba f   LIBCMT:input.obj
 0001:0006afc0       ___ascii_strnicmp          0046bfc0 f   LIBCMT:_strnicm.obj
 0001:0006b021       __filbuf                   0046c021 f   LIBCMT:_filbuf.obj
 0001:0006b143       __openfile                 0046c143 f   LIBCMT:_open.obj
 0001:0006b3da       __getstream                0046c3da f   LIBCMT:stream.obj
 0001:0006b510       __local_unwind4            0046c510 f   LIBCMT:exsup4.obj
 0001:0006b5e6       __seh_longjmp_unwind4@4    0046c5e6 f   LIBCMT:exsup4.obj
 0001:0006b602       @_EH4_CallFilterFunc@8     0046c602 f   LIBCMT:exsup4.obj
 0001:0006b619       @_EH4_TransferToHandler@8  0046c619 f   LIBCMT:exsup4.obj
 0001:0006b632       @_EH4_GlobalUnwind2@8      0046c632 f   LIBCMT:exsup4.obj
 0001:0006b64b       @_EH4_LocalUnwind@16       0046c64b f   LIBCMT:exsup4.obj
 0001:0006b662       __mtinitlocks              0046c662 f   LIBCMT:mlock.obj
 0001:0006b6ac       __mtdeletelocks            0046c6ac f   LIBCMT:mlock.obj
 0001:0006b703       __unlock                   0046c703 f   LIBCMT:mlock.obj
 0001:0006b71a       __mtinitlocknum            0046c71a f   LIBCMT:mlock.obj
 0001:0006b7dc       __lock                     0046c7dc f   LIBCMT:mlock.obj
 0001:0006b80f       __XcptFilter               0046c80f f   LIBCMT:winxfltr.obj
 0001:0006b959       __msize                    0046c959 f   LIBCMT:msize.obj
 0001:0006b98c       __initp_misc_rand_s        0046c98c f   LIBCMT:rand_s.obj
 0001:0006b99b       ___getlocaleinfo           0046c99b f   LIBCMT:inithelp.obj
 0001:0006bb47       __initp_misc_purevirt      0046cb47 f   LIBCMT:inithelp.obj
 0001:0006bb56       __RTC_Initialize           0046cb56 f   LIBCMT:_initsect_.obj
 0001:0006bb7c       __RTC_Terminate            0046cb7c f   LIBCMT:_initsect_.obj
 0001:0006bbb0       __ValidateImageBase        0046cbb0 f   LIBCMT:pesect.obj
 0001:0006bbf0       __FindPESection            0046cbf0 f   LIBCMT:pesect.obj
 0001:0006bc40       __IsNonwritableInCurrentImage 0046cc40 f   LIBCMT:pesect.obj
 0001:0006bcfc       __GET_RTERRMSG             0046ccfc f   LIBCMT:crt0msg.obj
 0001:0006bd22       __NMSG_WRITE               0046cd22 f   LIBCMT:crt0msg.obj
 0001:0006bed1       __FF_MSGBANNER             0046ced1 f   LIBCMT:crt0msg.obj
 0001:0006bf0a       __isleadbyte_l             0046cf0a f i LIBCMT:_wctype.obj
 0001:0006bf42       _isleadbyte                0046cf42 f i LIBCMT:_wctype.obj
 0001:0006bf55       __isctype_l                0046cf55 f   LIBCMT:isctype.obj
 0001:0006c00d       ___strgtold12_l            0046d00d f   LIBCMT:_strgtold_.obj
 0001:0006c6e9       __get_daylight             0046d6e9 f   LIBCMT:timeset.obj
 0001:0006c716       __get_dstbias              0046d716 f   LIBCMT:timeset.obj
 0001:0006c743       __get_timezone             0046d743 f   LIBCMT:timeset.obj
 0001:0006c770       ___daylight                0046d770 f   LIBCMT:timeset.obj
 0001:0006c776       ___dstbias                 0046d776 f   LIBCMT:timeset.obj
 0001:0006c77c       ___timezone                0046d77c f   LIBCMT:timeset.obj
 0001:0006c782       ___tzname                  0046d782 f   LIBCMT:timeset.obj
 0001:0006c790       __allrem                   0046d790 f   LIBCMT:llrem.obj
 0001:0006c842       ___getgmtimebuf            0046d842 f   LIBCMT:gmtime.obj
 0001:0006c879       __fcloseall                0046d879 f   LIBCMT:closeall.obj
 0001:0006c995       __output_s_l               0046d995 f   LIBCMT:outputs.obj
 0001:0006d565       __write_nolock             0046e565 f   LIBCMT:write.obj
 0001:0006dc62       __write                    0046ec62 f   LIBCMT:write.obj
 0001:0006dd36       __commit                   0046ed36 f   LIBCMT:commit.obj
 0001:0006de0f       __lseek_nolock             0046ee0f f   LIBCMT:lseek.obj
 0001:0006de84       __lseek                    0046ee84 f   LIBCMT:lseek.obj
 0001:0006df58       ?__CxxUnhandledExceptionFilter@@YGJPAU_EXCEPTION_POINTERS@@@Z 0046ef58 f   LIBCMT:unhandld.obj
 0001:0006df9a       ___CxxSetUnhandledExceptionFilter 0046ef9a f   LIBCMT:unhandld.obj
 0001:0006dfa8       __setenvp                  0046efa8 f   LIBCMT:stdenvp.obj
 0001:0006e21e       __setargv                  0046f21e f   LIBCMT:stdargv.obj
 0001:0006e2d9       ___crtGetEnvironmentStringsA 0046f2d9 f   LIBCMT:a_env.obj
 0001:0006e370       ___security_init_cookie    0046f370 f   LIBCMT:gs_support.obj
 0001:0006e40b       __mbsnbicoll_l             0046f40b f   LIBCMT:mbsnbico.obj
 0001:0006e4e9       __mbsnbicoll               0046f4e9 f   LIBCMT:mbsnbico.obj
 0001:0006e503       ___wtomb_environ           0046f503 f   LIBCMT:wtombenv.obj
 0001:0006e59a       ___libm_error_support      0046f59a f   LIBCMT:_libm_error_.obj
 0001:0006e866       __sse2_mathfcns_init       0046f866 f   LIBCMT:_mathfcns_.obj
 0001:0006e876       __floor_default            0046f876 f   LIBCMT:_floor_.obj
 0001:0006e94e       __read_nolock              0046f94e f   LIBCMT:read.obj
 0001:0006ef05       _read                      0046ff05 f   LIBCMT:read.obj
 0001:0006ef05       __read                     0046ff05 f   LIBCMT:read.obj
 0001:0006effb       _strncpy_s                 0046fffb f   LIBCMT:strncpy_s.obj
 0001:0006f0b0       __crt_debugger_hook        004700b0 f   LIBCMT:dbghook.obj
 0001:0006f0b8       __calloc_impl              004700b8 f   LIBCMT:calloc_impl.obj
 0001:0006f13a       ___loctotime64_t           0047013a f   LIBCMT:dtoxtm64.obj
 0001:0006f3b0       __SEH_prolog4_GS           004703b0 f   LIBCMT:sehprolg4gs.obj
 0001:0006f3f8       __SEH_epilog4_GS           004703f8 f   LIBCMT:sehprolg4gs.obj
 0001:0006f407       __fullpath                 00470407 f   LIBCMT:fullpath.obj
 0001:0006f4fe       ___dtoxmode                004704fe f   LIBCMT:stat.obj
 0001:0006fcef       __sopen_helper             00470cef f   LIBCMT:open.obj
 0001:0006fdb3       __sopen_s                  00470db3 f   LIBCMT:open.obj
 0001:0006fdd3       __getdrive                 00470dd3 f   LIBCMT:drive.obj
 0001:0006fea1       __mbctolower_l             00470ea1 f   LIBCMT:mbtolwr.obj
 0001:0006ff47       __mbctolower               00470f47 f   LIBCMT:mbtolwr.obj
 0001:0006ff5a       __mbspbrk_l                00470f5a f   LIBCMT:mbspbrk.obj
 0001:0007001f       __mbspbrk                  0047101f f   LIBCMT:mbspbrk.obj
 0001:00070036       __set_exp                  00471036 f   LIBCMT:_util_.obj
 0001:00070063       __sptype                   00471063 f   LIBCMT:_util_.obj
 0001:000700c9       __decomp                   004710c9 f   LIBCMT:_util_.obj
 0001:0007018c       __raise_exc_ex             0047118c f   LIBCMT:_fpexcept_.obj
 0001:00070468       __raise_exc                00471468 f   LIBCMT:_fpexcept_.obj
 0001:0007048b       __handle_exc               0047148b f   LIBCMT:_fpexcept_.obj
 0001:0007066f       __set_errno_from_matherr   0047166f f   LIBCMT:_fpexcept_.obj
 0001:0007069c       __errcode                  0047169c f   LIBCMT:_fpexcept_.obj
 0001:000706d0       __umatherr                 004716d0 f   LIBCMT:_fpexcept_.obj
 0001:00070770       __handle_qnan1             00471770 f   LIBCMT:_fpexcept_.obj
 0001:000707c5       __except1                  004717c5 f   LIBCMT:_fpexcept_.obj
 0001:0007088f       __statfp                   0047188f f   LIBCMT:_fpctrl_.obj
 0001:0007089f       __clrfp                    0047189f f   LIBCMT:_fpctrl_.obj
 0001:000708b0       __ctrlfp                   004718b0 f   LIBCMT:_fpctrl_.obj
 0001:000708db       __set_statfp               004718db f   LIBCMT:_fpctrl_.obj
 0001:00070933       ___set_fpsr_sse2           00471933 f   LIBCMT:_fpctrl_.obj
 0001:000709b0       __CIpow_pentium4           004719b0 f   LIBCMT:_pow_pentium4_.obj
 0001:000709c9       __pow_pentium4             004719c9     LIBCMT:_pow_pentium4_.obj
 0001:00071521       __fFEXP                    00472521     LIBCMT:_87tran_.obj
 0001:00071578       __rtinfpopse               00472578     LIBCMT:_87tran_.obj
 0001:0007157a       __rtinfnpopse              0047257a     LIBCMT:_87tran_.obj
 0001:0007158a       __fFLN                     0047258a     LIBCMT:_87tran_.obj
 0001:0007163f       __rtinfpop                 0047263f     LIBCMT:_87tran_.obj
 0001:00071641       __rtinfnpop                00472641     LIBCMT:_87tran_.obj
 0001:0007165e       __ffexpm1                  0047265e     LIBCMT:_87tran_.obj
 0001:00071710       __trandisp1                00472710 f   LIBCMT:_87disp_.obj
 0001:00071777       __trandisp2                00472777 f   LIBCMT:_87disp_.obj
 0001:00071803       __rttospopde               00472803     LIBCMT:_87disp_.obj
 0001:00071808       __rttospop                 00472808     LIBCMT:_87disp_.obj
 0001:0007180a       __rtnospop                 0047280a     LIBCMT:_87disp_.obj
 0001:0007180c       __rttosnpop                0047280c     LIBCMT:_87disp_.obj
 0001:0007180d       __rtnospopde               0047280d     LIBCMT:_87disp_.obj
 0001:00071814       __rtzeropop                00472814     LIBCMT:_87disp_.obj
 0001:00071816       __rtzeronpop               00472816     LIBCMT:_87disp_.obj
 0001:0007181b       __rtonepop                 0047281b     LIBCMT:_87disp_.obj
 0001:0007181d       __rtonenpop                0047281d     LIBCMT:_87disp_.obj
 0001:00071822       __tosnan1                  00472822     LIBCMT:_87disp_.obj
 0001:0007184d       __nosnan2                  0047284d     LIBCMT:_87disp_.obj
 0001:0007184f       __tosnan2                  0047284f     LIBCMT:_87disp_.obj
 0001:00071877       __nan2                     00472877     LIBCMT:_87disp_.obj
 0001:000718b6       __rtindfpop                004728b6     LIBCMT:_87disp_.obj
 0001:000718b8       __rtindfnpop               004728b8     LIBCMT:_87disp_.obj
 0001:000718c9       __rttosnpopde              004728c9     LIBCMT:_87disp_.obj
 0001:000718d3       __rtchsifneg               004728d3     LIBCMT:_87disp_.obj
 0001:000718e0       __startTwoArgErrorHandling 004728e0 f   LIBCMT:_genexcep_.obj
 0001:000718f7       __startOneArgErrorHandling 004728f7 f   LIBCMT:_genexcep_.obj
 0001:00071940       __twoToTOS                 00472940 f   LIBCMT:_common_.obj
 0001:00071955       __load_CW                  00472955 f   LIBCMT:_common_.obj
 0001:0007196c       __convertTOStoQNaN         0047296c f   LIBCMT:_common_.obj
 0001:00071985       __fload_withFB             00472985 f   LIBCMT:_common_.obj
 0001:000719c8       __checkTOS_withFB          004729c8 f   LIBCMT:_common_.obj
 0001:000719de       __fast_exit                004729de f   LIBCMT:_common_.obj
 0001:000719eb       __math_exit                004729eb f   LIBCMT:_common_.obj
 0001:00071a15       __check_overflow_exit      00472a15 f   LIBCMT:_common_.obj
 0001:00071a29       __check_range_exit         00472a29 f   LIBCMT:_common_.obj
 0001:00071acc       __d_inttype                00472acc f   LIBCMT:_powhlp_.obj
 0001:00071b36       __powhlp                   00472b36 f   LIBCMT:_powhlp_.obj
 0001:00071c70       __CIlog_pentium4           00472c70 f   LIBCMT:_log_pentium4_.obj
 0001:00071c88       __log_pentium4             00472c88     LIBCMT:_log_pentium4_.obj
 0001:00071fc7       ___crtGetStringTypeA       00472fc7 f   LIBCMT:a_str.obj
 0001:00072806       ___free_lc_time            00473806 f   LIBCMT:inittime.obj
 0001:00072b7d       ___init_time               00473b7d f   LIBCMT:inittime.obj
 0001:00072bfa       ___free_lconv_num          00473bfa f   LIBCMT:initnum.obj
 0001:00072c63       ___init_numeric            00473c63 f   LIBCMT:initnum.obj
 0001:00072e53       ___free_lconv_mon          00473e53 f   LIBCMT:initmon.obj
 0001:00072f51       ___init_monetary           00473f51 f   LIBCMT:initmon.obj
 0001:000732b1       _strcat_s                  004742b1 f   LIBCMT:strcat_s.obj
 0001:000738ab       ___get_qualified_locale    004748ab f   LIBCMT:getqloc.obj
 0001:00073a9c       _memcmp                    00474a9c f   LIBCMT:memcmp.obj
 0001:00074ff0       _strpbrk                   00475ff0 f   LIBCMT:strpbrk.obj
 0001:00075030       ___sys_nerr                00476030 f   LIBCMT:syserr.obj
 0001:00075036       ___sys_errlist             00476036 f   LIBCMT:syserr.obj
 0001:0007503c       ?_ValidateRead@@YAHPBXI@Z  0047603c f   LIBCMT:validate.obj
 0001:0007503c       ?_ValidateWrite@@YAHPAXI@Z 0047603c f   LIBCMT:validate.obj
 0001:0007503c       ?_ValidateExecute@@YAHP6GHXZ@Z 0047603c f   LIBCMT:validate.obj
 0001:0007504e       __getbuf                   0047604e f   LIBCMT:_getbuf.obj
 0001:00075097       __ftelli64_nolock          00476097 f   LIBCMT:ftelli64.obj
 0001:000753e1       __ftelli64                 004763e1 f   LIBCMT:ftelli64.obj
 0001:0007544e       __lseeki64_nolock          0047644e f   LIBCMT:lseeki64.obj
 0001:000754d3       __lseeki64                 004764d3 f   LIBCMT:lseeki64.obj
 0001:000755bd       __recalloc                 004765bd f   LIBCMT:recalloc.obj
 0001:00075630       __global_unwind2           00476630 f   LIBCMT:exsup.obj
 0001:00075695       __local_unwind2            00476695 f   LIBCMT:exsup.obj
 0001:00075719       __abnormal_termination     00476719 f   LIBCMT:exsup.obj
 0001:0007573c       __NLG_Notify1              0047673c f   LIBCMT:exsup.obj
 0001:00075745       __NLG_Notify               00476745 f   LIBCMT:exsup.obj
 0001:0007575c       __NLG_Dispatch             0047675c     LIBCMT:exsup.obj
 0001:0007575c       __NLG_Dispatch2            0047675c     LIBCMT:exsup.obj
 0001:00075764       __NLG_Call                 00476764 f   LIBCMT:exsup.obj
 0001:00075766       __NLG_Return2              00476766     LIBCMT:exsup.obj
 0001:00075767       __isatty                   00476767 f   LIBCMT:isatty.obj
 0001:000757bd       __wctomb_s_l               004767bd f   LIBCMT:wctomb.obj
 0001:00075912       _wctomb_s                  00476912 f   LIBCMT:wctomb.obj
 0001:0007592f       __atodbl_l                 0047692f f   LIBCMT:atodbl.obj
 0001:000759d7       __atoflt_l                 004769d7 f   LIBCMT:atodbl.obj
 0001:00075a7f       __fptostr                  00476a7f f   LIBCMT:_fptostr.obj
 0001:00075b32       ___dtold                   00476b32 f   LIBCMT:_cfout_.obj
 0001:00075be5       __fltout2                  00476be5 f   LIBCMT:_cfout_.obj
 0001:00075c80       __alldvrm                  00476c80 f   LIBCMT:lldvrm.obj
 0001:00075d5f       __fptrap                   00476d5f f   LIBCMT:crt0fp.obj
 0001:00075d68       __controlfp_s              00476d68 f   LIBCMT:_contrlfp_.obj
 0001:00075dc7       __mbtowc_l                 00476dc7 f   LIBCMT:mbtowc.obj
 0001:00075edd       _mbtowc                    00476edd f   LIBCMT:mbtowc.obj
 0001:00075ef7       __mbsnbicmp_l              00476ef7 f   LIBCMT:mbsnbicm.obj
 0001:000760fb       __mbsnbicmp                004770fb f   LIBCMT:mbsnbicm.obj
 0001:00076115       __mbsnbcmp_l               00477115 f   LIBCMT:mbsnbcmp.obj
 0001:00076261       __mbsnbcmp                 00477261 f   LIBCMT:mbsnbcmp.obj
 0001:00076355       ___crtGetLocaleInfoA       00477355 f   LIBCMT:a_loc.obj
 0001:0007638f       ___crtMessageBoxW          0047738f f   LIBCMT:crtmboxw.obj
 0001:000764fb       _wcscat_s                  004774fb f   LIBCMT:wcscat_s.obj
 0001:00076570       _wcsncpy_s                 00477570 f   LIBCMT:wcsncpy_s.obj
 0001:0007663d       _wcslen                    0047763d f   LIBCMT:wcslen.obj
 0001:00076658       _wcscpy_s                  00477658 f   LIBCMT:wcscpy_s.obj
 0001:000766bb       __set_error_mode           004776bb f   LIBCMT:errmode.obj
 0001:000766fa       __ld12tod                  004776fa f   LIBCMT:_intrncvt_.obj
 0001:00076c4b       __ld12tof                  00477c4b f   LIBCMT:_intrncvt_.obj
 0001:0007719c       ___mtold12                 0047819c f   LIBCMT:_mantold_.obj
 0001:00077380       __putwch_nolock            00478380 f   LIBCMT:putwch.obj
 0001:00077415       __ismbblead                00478415 f   LIBCMT:ismbbyte.obj
 0001:0007769b       ___crtCompareStringA       0047869b f   LIBCMT:a_cmp.obj
 0001:000776dd       __strnicoll_l              004786dd f   LIBCMT:strnicol.obj
 0001:00077879       ___crtsetenv               00478879 f   LIBCMT:setenv.obj
 0001:00077abb       __frnd                     00478abb f   LIBCMT:_frnd_.obj
 0001:00077acf       __validdrive               00478acf f   LIBCMT:getcwd.obj
 0001:00077b29       __getdcwd_nolock           00478b29 f   LIBCMT:getcwd.obj
 0001:00077c4d       __getcwd                   00478c4d f   LIBCMT:getcwd.obj
 0001:00077c4d       _getcwd                    00478c4d f   LIBCMT:getcwd.obj
 0001:00077c96       __mbsicmp_l                00478c96 f   LIBCMT:mbsicmp.obj
 0001:00077e8d       __mbsicmp                  00478e8d f   LIBCMT:mbsicmp.obj
 0001:00077ea4       __mbsrchr_l                00478ea4 f   LIBCMT:mbsrchr.obj
 0001:00077f4e       __mbsrchr                  00478f4e f   LIBCMT:mbsrchr.obj
 0001:00077f65       __chsize_nolock            00478f65 f   LIBCMT:chsize.obj
 0001:0007811b       __setmode_nolock           0047911b f   LIBCMT:setmode.obj
 0001:000781d6       __get_fmode                004791d6 f   LIBCMT:setmode.obj
 0001:00078203       __87except                 00479203 f   LIBCMT:_87except_.obj
 0001:00078342       _$I10_OUTPUT               00479342 f   LIBCMT:_x10fout_.obj
 0001:00078d68       __control87                00479d68 f i LIBCMT:_ieee87_.obj
 0001:0007907a       ___initconout              0047a07a f   LIBCMT:initcon.obj
 0001:00079099       ___termconout              0047a099 f   LIBCMT:initcon.obj
 0001:000790b0       _strdup                    0047a0b0 f   LIBCMT:strdup.obj
 0001:000790b0       __strdup                   0047a0b0 f   LIBCMT:strdup.obj
 0001:00079102       __mbschr_l                 0047a102 f   LIBCMT:mbschr.obj
 0001:000791b2       __mbschr                   0047a1b2 f   LIBCMT:mbschr.obj
 0001:000791ca       ___WSAFDIsSet@8            0047a1ca f   ws2_32:WS2_32.dll
 0001:000791d0       _RtlUnwind@16              0047a1d0 f   kernel32:KERNEL32.dll
 0001:000791d6       __getextendedkeycode       0047a1d6 f   LIBCMT:getch.obj
 0001:00079289       __getch_nolock             0047a289 f   LIBCMT:getch.obj
 0001:00079362       __kbhit_nolock             0047a362 f   LIBCMT:getch.obj
 0001:0007948a       _getch                     0047a48a f   LIBCMT:getch.obj
 0001:0007948a       __getch                    0047a48a f   LIBCMT:getch.obj
 0001:000794c8       _kbhit                     0047a4c8 f   LIBCMT:getch.obj
 0001:000794c8       __kbhit                    0047a4c8 f   LIBCMT:getch.obj
 0001:00079506       __getpid                   0047a506 f   LIBCMT:getpid.obj
 0001:00079506       _getpid                    0047a506 f   LIBCMT:getpid.obj
 0001:00079709       _putenv                    0047a709 f   LIBCMT:putenv.obj
 0001:00079709       __putenv                   0047a709 f   LIBCMT:putenv.obj
 0001:0007974e       ___initconin               0047a74e f   LIBCMT:initconin.obj
 0001:0007976d       ___termconin               0047a76d f   LIBCMT:initconin.obj
 0001:00079839       ___crtwsetenv              0047a839 f   LIBCMT:wsetenv.obj
 0001:00079ab9       __wcsnicoll_l              0047aab9 f   LIBCMT:wcsnicol.obj
 0001:00079bd9       __wcsnicoll                0047abd9 f   LIBCMT:wcsnicol.obj
 0001:00079c93       __wcsdup                   0047ac93 f   LIBCMT:wcsdup.obj
 0001:00079ce8       ___mbtow_environ           0047ace8 f   LIBCMT:mbtowenv.obj
 0001:00079d6f       __wsetenvp                 0047ad6f f   LIBCMT:wstdenvp.obj
 0001:00079e4b       ___crtGetEnvironmentStringsW 0047ae4b f   LIBCMT:w_env.obj
 0001:00079ea3       _wcschr                    0047aea3 f   LIBCMT:wcschr.obj
 0001:00079eca       ___crtCompareStringW       0047aeca f   LIBCMT:w_cmp.obj
 0001:00079f2d       _wcsnlen                   0047af2d f   LIBCMT:wcslen_s.obj
 0002:00000000       __imp__CryptReleaseContext@8 0047d000     advapi32:ADVAPI32.dll
 0002:00000004       __imp__CryptAcquireContextA@20 0047d004     advapi32:ADVAPI32.dll
 0002:00000008       __imp__RegOpenKeyExA@20    0047d008     advapi32:ADVAPI32.dll
 0002:0000000c       __imp__RegEnumValueA@32    0047d00c     advapi32:ADVAPI32.dll
 0002:00000010       __imp__RegCloseKey@4       0047d010     advapi32:ADVAPI32.dll
 0002:00000014       __imp__CryptGenRandom@12   0047d014     advapi32:ADVAPI32.dll
 0002:00000018       \177ADVAPI32_NULL_THUNK_DATA 0047d018     advapi32:ADVAPI32.dll
 0002:0000001c       __imp__CreateFileW@28      0047d01c     kernel32:KERNEL32.dll
 0002:00000020       __imp__GetProcessHeap@0    0047d020     kernel32:KERNEL32.dll
 0002:00000024       __imp__SetEndOfFile@4      0047d024     kernel32:KERNEL32.dll
 0002:00000028       __imp__GetDriveTypeW@4     0047d028     kernel32:KERNEL32.dll
 0002:0000002c       __imp__SetEnvironmentVariableA@8 0047d02c     kernel32:KERNEL32.dll
 0002:00000030       __imp__CompareStringW@24   0047d030     kernel32:KERNEL32.dll
 0002:00000034       __imp__WriteConsoleW@20    0047d034     kernel32:KERNEL32.dll
 0002:00000038       __imp__IsValidLocale@8     0047d038     kernel32:KERNEL32.dll
 0002:0000003c       __imp__EnumSystemLocalesA@8 0047d03c     kernel32:KERNEL32.dll
 0002:00000040       __imp__GetUserDefaultLCID@0 0047d040     kernel32:KERNEL32.dll
 0002:00000044       __imp__GetStringTypeW@16   0047d044     kernel32:KERNEL32.dll
 0002:00000048       __imp__GetCurrentDirectoryW@8 0047d048     kernel32:KERNEL32.dll
 0002:0000004c       __imp__GetCurrentProcessId@0 0047d04c     kernel32:KERNEL32.dll
 0002:00000050       __imp__GetTickCount@0      0047d050     kernel32:KERNEL32.dll
 0002:00000054       __imp__FreeEnvironmentStringsW@4 0047d054     kernel32:KERNEL32.dll
 0002:00000058       __imp__SetFilePointer@16   0047d058     kernel32:KERNEL32.dll
 0002:0000005c       __imp__FlushFileBuffers@4  0047d05c     kernel32:KERNEL32.dll
 0002:00000060       __imp__Sleep@4             0047d060     kernel32:KERNEL32.dll
 0002:00000064       __imp__SetThreadPriority@8 0047d064     kernel32:KERNEL32.dll
 0002:00000068       __imp__GetCurrentThread@0  0047d068     kernel32:KERNEL32.dll
 0002:0000006c       __imp__GetVersionExA@4     0047d06c     kernel32:KERNEL32.dll
 0002:00000070       __imp__InitializeCriticalSection@4 0047d070     kernel32:KERNEL32.dll
 0002:00000074       __imp__DeleteCriticalSection@4 0047d074     kernel32:KERNEL32.dll
 0002:00000078       __imp__EnterCriticalSection@4 0047d078     kernel32:KERNEL32.dll
 0002:0000007c       __imp__TryEnterCriticalSection@4 0047d07c     kernel32:KERNEL32.dll
 0002:00000080       __imp__LeaveCriticalSection@4 0047d080     kernel32:KERNEL32.dll
 0002:00000084       __imp__CloseHandle@4       0047d084     kernel32:KERNEL32.dll
 0002:00000088       __imp__SetNamedPipeHandleState@16 0047d088     kernel32:KERNEL32.dll
 0002:0000008c       __imp__WaitNamedPipeA@8    0047d08c     kernel32:KERNEL32.dll
 0002:00000090       __imp__CreateFileA@28      0047d090     kernel32:KERNEL32.dll
 0002:00000094       __imp__GetLastError@0      0047d094     kernel32:KERNEL32.dll
 0002:00000098       __imp__UnmapViewOfFile@4   0047d098     kernel32:KERNEL32.dll
 0002:0000009c       __imp__WaitForSingleObject@8 0047d09c     kernel32:KERNEL32.dll
 0002:000000a0       __imp__ReadConsoleInputA@16 0047d0a0     kernel32:KERNEL32.dll
 0002:000000a4       __imp__MapViewOfFile@20    0047d0a4     kernel32:KERNEL32.dll
 0002:000000a8       __imp__OpenFileMappingA@12 0047d0a8     kernel32:KERNEL32.dll
 0002:000000ac       __imp__OpenEventA@12       0047d0ac     kernel32:KERNEL32.dll
 0002:000000b0       __imp__CreateEventA@16     0047d0b0     kernel32:KERNEL32.dll
 0002:000000b4       __imp__GetSystemDirectoryA@8 0047d0b4     kernel32:KERNEL32.dll
 0002:000000b8       __imp__GetProcAddress@8    0047d0b8     kernel32:KERNEL32.dll
 0002:000000bc       __imp__GetModuleHandleA@4  0047d0bc     kernel32:KERNEL32.dll
 0002:000000c0       __imp__GetModuleFileNameA@12 0047d0c0     kernel32:KERNEL32.dll
 0002:000000c4       __imp__GetWindowsDirectoryA@8 0047d0c4     kernel32:KERNEL32.dll
 0002:000000c8       __imp__FindClose@4         0047d0c8     kernel32:KERNEL32.dll
 0002:000000cc       __imp__FindNextFileA@8     0047d0cc     kernel32:KERNEL32.dll
 0002:000000d0       __imp__FindFirstFileA@8    0047d0d0     kernel32:KERNEL32.dll
 0002:000000d4       __imp__GetLocaleInfoA@16   0047d0d4     kernel32:KERNEL32.dll
 0002:000000d8       __imp__GetOverlappedResult@16 0047d0d8     kernel32:KERNEL32.dll
 0002:000000dc       __imp__CancelIo@4          0047d0dc     kernel32:KERNEL32.dll
 0002:000000e0       __imp__ReadFile@20         0047d0e0     kernel32:KERNEL32.dll
 0002:000000e4       __imp__WriteFile@20        0047d0e4     kernel32:KERNEL32.dll
 0002:000000e8       __imp__DisconnectNamedPipe@4 0047d0e8     kernel32:KERNEL32.dll
 0002:000000ec       __imp__WaitForMultipleObjects@16 0047d0ec     kernel32:KERNEL32.dll
 0002:000000f0       __imp__QueryPerformanceCounter@4 0047d0f0     kernel32:KERNEL32.dll
 0002:000000f4       __imp__GetSystemTimeAsFileTime@4 0047d0f4     kernel32:KERNEL32.dll
 0002:000000f8       __imp__QueryPerformanceFrequency@4 0047d0f8     kernel32:KERNEL32.dll
 0002:000000fc       __imp__TlsFree@4           0047d0fc     kernel32:KERNEL32.dll
 0002:00000100       __imp__TlsSetValue@8       0047d100     kernel32:KERNEL32.dll
 0002:00000104       __imp__TlsGetValue@4       0047d104     kernel32:KERNEL32.dll
 0002:00000108       __imp__TlsAlloc@0          0047d108     kernel32:KERNEL32.dll
 0002:0000010c       __imp__GetCurrentThreadId@0 0047d10c     kernel32:KERNEL32.dll
 0002:00000110       __imp__InterlockedIncrement@4 0047d110     kernel32:KERNEL32.dll
 0002:00000114       __imp__InterlockedCompareExchange@12 0047d114     kernel32:KERNEL32.dll
 0002:00000118       __imp__ResetEvent@4        0047d118     kernel32:KERNEL32.dll
 0002:0000011c       __imp__GetFileAttributesExA@12 0047d11c     kernel32:KERNEL32.dll
 0002:00000120       __imp__GetLogicalDrives@0  0047d120     kernel32:KERNEL32.dll
 0002:00000124       __imp__GetFullPathNameA@16 0047d124     kernel32:KERNEL32.dll
 0002:00000128       __imp__SetConsoleMode@8    0047d128     kernel32:KERNEL32.dll
 0002:0000012c       __imp__PeekConsoleInputA@16 0047d12c     kernel32:KERNEL32.dll
 0002:00000130       __imp__GetNumberOfConsoleInputEvents@8 0047d130     kernel32:KERNEL32.dll
 0002:00000134       __imp__SetEvent@4          0047d134     kernel32:KERNEL32.dll
 0002:00000138       __imp__SetEnvironmentVariableW@8 0047d138     kernel32:KERNEL32.dll
 0002:0000013c       __imp__GetConsoleMode@8    0047d13c     kernel32:KERNEL32.dll
 0002:00000140       __imp__GetConsoleCP@0      0047d140     kernel32:KERNEL32.dll
 0002:00000144       __imp__GetModuleFileNameW@12 0047d144     kernel32:KERNEL32.dll
 0002:00000148       __imp__GetLocaleInfoW@16   0047d148     kernel32:KERNEL32.dll
 0002:0000014c       __imp__LoadLibraryW@4      0047d14c     kernel32:KERNEL32.dll
 0002:00000150       __imp__HeapSize@12         0047d150     kernel32:KERNEL32.dll
 0002:00000154       __imp__WideCharToMultiByte@32 0047d154     kernel32:KERNEL32.dll
 0002:00000158       __imp__InterlockedDecrement@4 0047d158     kernel32:KERNEL32.dll
 0002:0000015c       __imp__InterlockedExchange@8 0047d15c     kernel32:KERNEL32.dll
 0002:00000160       __imp__MultiByteToWideChar@24 0047d160     kernel32:KERNEL32.dll
 0002:00000164       __imp__EncodePointer@4     0047d164     kernel32:KERNEL32.dll
 0002:00000168       __imp__DecodePointer@4     0047d168     kernel32:KERNEL32.dll
 0002:0000016c       __imp__RtlUnwind@16        0047d16c     kernel32:KERNEL32.dll
 0002:00000170       __imp__HeapFree@12         0047d170     kernel32:KERNEL32.dll
 0002:00000174       __imp__RaiseException@16   0047d174     kernel32:KERNEL32.dll
 0002:00000178       __imp__SetConsoleCtrlHandler@8 0047d178     kernel32:KERNEL32.dll
 0002:0000017c       __imp__GetModuleHandleW@4  0047d17c     kernel32:KERNEL32.dll
 0002:00000180       __imp__ExitProcess@4       0047d180     kernel32:KERNEL32.dll
 0002:00000184       __imp__ExitThread@4        0047d184     kernel32:KERNEL32.dll
 0002:00000188       __imp__ResumeThread@4      0047d188     kernel32:KERNEL32.dll
 0002:0000018c       __imp__CreateThread@24     0047d18c     kernel32:KERNEL32.dll
 0002:00000190       __imp__GetTimeZoneInformation@4 0047d190     kernel32:KERNEL32.dll
 0002:00000194       __imp__GetCommandLineA@0   0047d194     kernel32:KERNEL32.dll
 0002:00000198       __imp__HeapSetInformation@16 0047d198     kernel32:KERNEL32.dll
 0002:0000019c       __imp__HeapAlloc@12        0047d19c     kernel32:KERNEL32.dll
 0002:000001a0       __imp__UnhandledExceptionFilter@4 0047d1a0     kernel32:KERNEL32.dll
 0002:000001a4       __imp__SetUnhandledExceptionFilter@4 0047d1a4     kernel32:KERNEL32.dll
 0002:000001a8       __imp__IsDebuggerPresent@0 0047d1a8     kernel32:KERNEL32.dll
 0002:000001ac       __imp__TerminateProcess@8  0047d1ac     kernel32:KERNEL32.dll
 0002:000001b0       __imp__GetCurrentProcess@0 0047d1b0     kernel32:KERNEL32.dll
 0002:000001b4       __imp__SetStdHandle@8      0047d1b4     kernel32:KERNEL32.dll
 0002:000001b8       __imp__InitializeCriticalSectionAndSpinCount@8 0047d1b8     kernel32:KERNEL32.dll
 0002:000001bc       __imp__GetFileType@4       0047d1bc     kernel32:KERNEL32.dll
 0002:000001c0       __imp__HeapReAlloc@16      0047d1c0     kernel32:KERNEL32.dll
 0002:000001c4       __imp__FileTimeToSystemTime@8 0047d1c4     kernel32:KERNEL32.dll
 0002:000001c8       __imp__FileTimeToLocalFileTime@8 0047d1c8     kernel32:KERNEL32.dll
 0002:000001cc       __imp__GetFileInformationByHandle@8 0047d1cc     kernel32:KERNEL32.dll
 0002:000001d0       __imp__PeekNamedPipe@24    0047d1d0     kernel32:KERNEL32.dll
 0002:000001d4       __imp__GetDriveTypeA@4     0047d1d4     kernel32:KERNEL32.dll
 0002:000001d8       __imp__FindFirstFileExA@24 0047d1d8     kernel32:KERNEL32.dll
 0002:000001dc       __imp__GetCPInfo@8         0047d1dc     kernel32:KERNEL32.dll
 0002:000001e0       __imp__LCMapStringW@24     0047d1e0     kernel32:KERNEL32.dll
 0002:000001e4       __imp__IsProcessorFeaturePresent@4 0047d1e4     kernel32:KERNEL32.dll
 0002:000001e8       __imp__SetLastError@4      0047d1e8     kernel32:KERNEL32.dll
 0002:000001ec       __imp__HeapCreate@12       0047d1ec     kernel32:KERNEL32.dll
 0002:000001f0       __imp__GetACP@0            0047d1f0     kernel32:KERNEL32.dll
 0002:000001f4       __imp__GetOEMCP@0          0047d1f4     kernel32:KERNEL32.dll
 0002:000001f8       __imp__IsValidCodePage@4   0047d1f8     kernel32:KERNEL32.dll
 0002:000001fc       __imp__SetHandleCount@4    0047d1fc     kernel32:KERNEL32.dll
 0002:00000200       __imp__GetStdHandle@4      0047d200     kernel32:KERNEL32.dll
 0002:00000204       __imp__GetStartupInfoW@4   0047d204     kernel32:KERNEL32.dll
 0002:00000208       __imp__GetEnvironmentStringsW@0 0047d208     kernel32:KERNEL32.dll
 0002:0000020c       \177KERNEL32_NULL_THUNK_DATA 0047d20c     kernel32:KERNEL32.dll
 0002:00000210       __imp__DES_ncbc_encrypt    0047d210     libeay32:LIBEAY32.dll
 0002:00000214       __imp__DES_key_sched       0047d214     libeay32:LIBEAY32.dll
 0002:00000218       \177LIBEAY32_NULL_THUNK_DATA 0047d218     libeay32:LIBEAY32.dll
 0002:0000021c       __imp__WSAIoctl@36         0047d21c     ws2_32:WS2_32.dll
 0002:00000220       __imp__getservbyname@8     0047d220     ws2_32:WS2_32.dll
 0002:00000224       __imp__inet_addr@4         0047d224     ws2_32:WS2_32.dll
 0002:00000228       __imp__getpeername@12      0047d228     ws2_32:WS2_32.dll
 0002:0000022c       __imp____WSAFDIsSet@8      0047d22c     ws2_32:WS2_32.dll
 0002:00000230       __imp__select@20           0047d230     ws2_32:WS2_32.dll
 0002:00000234       \177WS2_32_NULL_THUNK_DATA 0047d234     ws2_32:WS2_32.dll
 0002:00000238       __imp__shutdown@8          0047d238     wsock32:WSOCK32.dll
 0002:0000023c       __imp__send@16             0047d23c     wsock32:WSOCK32.dll
 0002:00000240       __imp__accept@12           0047d240     wsock32:WSOCK32.dll
 0002:00000244       __imp__listen@8            0047d244     wsock32:WSOCK32.dll
 0002:00000248       __imp__gethostbyname@4     0047d248     wsock32:WSOCK32.dll
 0002:0000024c       __imp__WSAGetLastError@0   0047d24c     wsock32:WSOCK32.dll
 0002:00000250       __imp__setsockopt@20       0047d250     wsock32:WSOCK32.dll
 0002:00000254       __imp__bind@12             0047d254     wsock32:WSOCK32.dll
 0002:00000258       __imp__htons@4             0047d258     wsock32:WSOCK32.dll
 0002:0000025c       __imp__socket@12           0047d25c     wsock32:WSOCK32.dll
 0002:00000260       __imp__connect@12          0047d260     wsock32:WSOCK32.dll
 0002:00000264       __imp__ioctlsocket@12      0047d264     wsock32:WSOCK32.dll
 0002:00000268       __imp__recvfrom@24         0047d268     wsock32:WSOCK32.dll
 0002:0000026c       __imp__recv@16             0047d26c     wsock32:WSOCK32.dll
 0002:00000270       __imp__ntohl@4             0047d270     wsock32:WSOCK32.dll
 0002:00000274       __imp__sendto@24           0047d274     wsock32:WSOCK32.dll
 0002:00000278       __imp__WSACleanup@0        0047d278     wsock32:WSOCK32.dll
 0002:0000027c       __imp__WSAStartup@8        0047d27c     wsock32:WSOCK32.dll
 0002:00000280       __imp__closesocket@4       0047d280     wsock32:WSOCK32.dll
 0002:00000284       __imp__htonl@4             0047d284     wsock32:WSOCK32.dll
 0002:00000288       __imp__inet_ntoa@4         0047d288     wsock32:WSOCK32.dll
 0002:0000028c       __imp__ntohs@4             0047d28c     wsock32:WSOCK32.dll
 0002:00000290       \177WSOCK32_NULL_THUNK_DATA 0047d290     wsock32:WSOCK32.dll
 0002:00000294       ___xc_a                    0047d294     LIBCMT:crt0init.obj
 0002:00000308       ___xc_z                    0047d308     LIBCMT:crt0init.obj
 0002:0000030c       ___xi_a                    0047d30c     LIBCMT:crt0init.obj
 0002:0000032c       ___xi_z                    0047d32c     LIBCMT:crt0init.obj
 0002:00000330       ___xp_a                    0047d330     LIBCMT:crt0init.obj
 0002:00000340       ___xp_z                    0047d340     LIBCMT:crt0init.obj
 0002:00000344       ___xt_a                    0047d344     LIBCMT:crt0init.obj
 0002:00000348       ___xt_z                    0047d348     LIBCMT:crt0init.obj
 0002:00000354       ??_7runtime_error@std@@6B@ 0047d354     client.obj
 0002:00000360       ??_7facet@locale@std@@6B@  0047d360     client.obj
 0002:00000368       ??_7system_error@std@@6B@  0047d368     client.obj
 0002:00000374       ??_7failure@ios_base@std@@6B@ 0047d374     client.obj
 0002:0000037c       ??_C@_0BF@OOHOMBOF@ios_base?3?3eofbit?5set?$AA@ 0047d37c     client.obj
 0002:00000394       ??_C@_0BG@FMKFHCIL@ios_base?3?3failbit?5set?$AA@ 0047d394     client.obj
 0002:000003ac       ??_C@_0BF@PHHKMMFD@ios_base?3?3badbit?5set?$AA@ 0047d3ac     client.obj
 0002:000003c8       ??_7?$num_put@DV?$ostreambuf_iterator@DU?$char_traits@D@std@@@std@@@std@@6B@ 0047d3c8     client.obj
 0002:000003f0       ??_7bad_alloc@std@@6B@     0047d3f0     client.obj
 0002:000003f8       ??_C@_05LAPONLG@false?$AA@ 0047d3f8     client.obj
 0002:00000400       ??_C@_04LOAJBDKD@true?$AA@ 0047d400     client.obj
 0002:00000408       ??_C@_0BI@CFPLBAOH@invalid?5string?5position?$AA@ 0047d408     client.obj
 0002:00000420       ??_C@_0BA@JFNIOLAK@string?5too?5long?$AA@ 0047d420     client.obj
 0002:00000430       ??_C@_00CNPNBAHC@?$AA@     0047d430     client.obj
 0002:00000434       ??_C@_0BA@ELKIONDK@bad?5locale?5name?$AA@ 0047d434     client.obj
 0002:00000448       ??_7?$numpunct@D@std@@6B@  0047d448     client.obj
 0002:00000460       ??_C@_08EPJLHIJG@bad?5cast?$AA@ 0047d460     client.obj
 0002:0000046c       ??_C@_01KGKMHCOC@e?$AA@    0047d46c     client.obj
 0002:00000470       ??_C@_01DDCIFGEA@E?$AA@    0047d470     client.obj
 0002:00000474       ??_C@_06NLINOEAE@?5size?3?$AA@ 0047d474     client.obj
 0002:0000047c       ??_C@_0BB@FLAPKLHN@?5Sent?5opcode?3?50x?$AA@ 0047d47c     client.obj
 0002:00000490       ??_C@_0O@NPFKCNOE@Unknown?5Error?$AA@ 0047d490     client.obj
 0002:000004a0       ??_C@_07KAJBENLI@Error?3?5?$AA@ 0047d4a0     client.obj
 0002:000004a8       ??_C@_02EAOCLKAK@ld?$AA@   0047d4a8     client.obj
 0002:000004ac       ??_C@_02BDDLJJBK@lu?$AA@   0047d4ac     client.obj
 0002:000004b0       ??_C@_02HIKPPMOK@Ld?$AA@   0047d4b0     client.obj
 0002:000004b4       ??_C@_02CLHGNPPK@Lu?$AA@   0047d4b4     client.obj
 0002:000004b8       __real@38aa95a5b7f87a0f    0047d4b8     client.obj
 0002:000004c0       __real@4202a05f20000000    0047d4c0     client.obj
 0002:000004c8       __real@4733426172c74d82    0047d4c8     client.obj
 0002:000004d0       __real@0000000000000000    0047d4d0     client.obj
 0002:000004d8       __real@3fe0000000000000    0047d4d8     client.obj
 0002:000004e0       ??_C@_02BBAHNLBA@?$CFp?$AA@ 0047d4e0     client.obj
 0002:000004e8       ??_C@_0HC@EGEOABAI@The?5world?5server?5?$CFs?5is?5full?5and?5@ 0047d4e8     client.obj
 0002:00000560       ??_C@_0EK@CHFKDNCB@You?5have?5been?5banned?5from?5the?5wo@ 0047d560     client.obj
 0002:000005b0       ??_C@_0EN@NKKDILDI@You?5have?5been?5suspended?5from?5the@ 0047d5b0     client.obj
 0002:00000600       ??_C@_0BB@FDLILBAA@World?5is?5locked?4?$AA@ 0047d600     client.obj
 0002:00000614       ??_C@_0P@JFFOGACA@World?5is?5down?4?$AA@ 0047d614     client.obj
 0002:00000624       ??_C@_0BN@EMLLGPFE@?5Received?5unknown?5opcode?3?50x?$AA@ 0047d624     client.obj
 0002:00000644       ??_C@_0BA@HJPBKAHK@8?909?92001?514?325?$AA@ 0047d644     client.obj
 0002:00000654       ??_C@_0N@BECEJAI@LoginVersion?$AA@ 0047d654     client.obj
 0002:00000668       ??_C@_0IG@LIGAELM@Error?51018?3?5You?5currently?5have?5a@ 0047d668     client.obj
 0002:000006f0       ??_C@_02FIDLOBHM@me?$AA@   0047d6f0     client.obj
 0002:000006f4       ??_C@_0CB@KBMIAOID@Malformed?5OP_Reg_ChangeAcctLogin@ 0047d6f4     client.obj
 0002:00000718       ??_C@_0BC@NBGBAGDL@Welcome?5to?5EQEmu?$CB?$AA@ 0047d718     client.obj
 0002:0000072c       ??_C@_0M@MKCHNIGM@LoginBanner?$AA@ 0047d72c     client.obj
 0002:00000738       ??_C@_0BH@IEJJOAB@Worldserver?5not?5found?4?$AA@ 0047d738     client.obj
 0002:00000750       ??_C@_0CJ@IJDAKKMD@ERROR?3?5OP_SessionKey?5while?5not?5l@ 0047d750     client.obj
 0002:0000077c       ??_C@_04HJMOFLDF@Free?$AA@ 0047d77c     client.obj
 0002:00000788       ??_C@_0EB@CGKGCIKK@Error?531337?3?5Can?8t?5change?5your?5p@ 0047d788     client.obj
 0002:000007cc       ??_C@_06OJAIHGIC@unused?$AA@ 0047d7cc     client.obj
 0002:000007d4       ??_C@_05HBCKHFGF@LS?$CD?$CFi?$AA@ 0047d7d4     client.obj
 0002:000007e0       ??_C@_0GH@IAEGHMEE@This?5account?5has?5been?5SUSPENDED?4@ 0047d7e0     client.obj
 0002:00000848       ??_C@_0HC@PMDFFKKE@Your?5account?5has?5not?5been?5verifi@ 0047d848     client.obj
 0002:000008c0       ??_C@_0GP@GIMOBPDA@Login?5requests?5from?5this?5IP?5addr@ 0047d8c0     client.obj
 0002:00000930       ??_C@_0FE@CHBDGMKP@Login?5requests?5from?5this?5IP?5addr@ 0047d930     client.obj
 0002:00000984       ??_C@_0CA@ODPPMCDK@Incorrect?5username?5or?5password?4?$AA@ 0047d984     client.obj
 0002:000009a8       ??_C@_0GE@IHDPEDEK@This?5account?5has?5been?5BANNED?4?5To@ 0047d9a8     client.obj
 0002:00000a0c       ??_C@_0BH@OGHCDCIJ@Malformed?5OP_LoginInfo?$AA@ 0047da0c     client.obj
 0002:00000a24       ??_C@_0DA@BCEGGMPK@Wrong?5size?3?5OP_LoginInfo?0?5size?$DN?$CF@ 0047da24     client.obj
 0002:00000a54       ??_C@_0BF@BPENLCO@?5Received?5opcode?3?50x?$AA@ 0047da54     client.obj
 0002:00000a6c       ??_C@_0N@CGNLBCCG@?5WHERE?5id?$DN?$CFi?$AA@ 0047da6c     logindatabase.obj
 0002:00000a7c       ??_C@_0CE@IINGMEKN@UPDATE?5login_worldservers?5SET?5na@ 0047da7c     logindatabase.obj
 0002:00000aa0       ??_C@_0ED@MAEEHABF@INSERT?5into?5login_stats?5?$CIplayers@ 0047daa0     logindatabase.obj
 0002:00000ae4       ??_C@_0CA@LOEMOFPP@Error?5in?5GetLSLoginInfo?5query?5?8?$AA@ 0047dae4     logindatabase.obj
 0002:00000b04       ??_C@_02KIDIFCCK@?8?5?$AA@ 0047db04     logindatabase.obj
 0002:00000b08       ??_C@_0GO@EOCHFNDH@SELECT?5id?0?5name?0?5password?0?5lsadm@ 0047db08     logindatabase.obj
 0002:00000b78       ??_C@_0CC@GLCGAIJI@Error?5in?5GetLSAccountName?5query?5@ 0047db78     logindatabase.obj
 0002:00000ba0       ??_C@_0EP@BDNCOIEF@Select?5id?0?5name?0?5lsadmin?0?5lsstat@ 0047dba0     logindatabase.obj
 0002:00000bf0       ??_C@_0CA@FPJFCAGN@Error?5in?5CheckWorldAuth?5query?5?8?$AA@ 0047dbf0     logindatabase.obj
 0002:00000c10       ??_C@_0GJ@MIJGAPHE@Select?5id?0?5password?0?5admin_id?0?5g@ 0047dc10     logindatabase.obj
 0002:00000c7c       ??_C@_0DE@JNALBMAK@SELECT?5id?5FROM?5active_accounts?5W@ 0047dc7c     logindatabase.obj
 0002:00000cb0       ??_C@_0BM@IJGPOGIB@Error?5in?5CountUsers?5query?5?8?$AA@ 0047dcb0     logindatabase.obj
 0002:00000ccc       ??_C@_0DE@CKNKHELI@SELECT?5id?5FROM?5active_accounts?5W@ 0047dccc     logindatabase.obj
 0002:00000d00       ??_C@_0CC@EAKGMEHD@Invalid?5username?1password?5length@ 0047dd00     logindatabase.obj
 0002:00000d24       ??_C@_0P@FBNCNPPG@?$FLINVALID?5PASS?$FN?$AA@ 0047dd24     logindatabase.obj
 0002:00000d34       ??_C@_07HEBIJBG@?5Typed?3?$AA@ 0047dd34     logindatabase.obj
 0002:00000d3c       ??_C@_0M@LLDFHANM@?5Expecting?3?$AA@ 0047dd3c     logindatabase.obj
 0002:00000d48       ??_C@_04CGFJFPFD@none?$AA@ 0047dd48     LWorld.obj
 0002:00000d50       ??_C@_0L@KOLHEMGH@ChatServer?$AA@ 0047dd50     LWorld.obj
 0002:00000d5c       ??_C@_0BC@LLPNPGCF@?$CFi?5worlds?5listed?4?$AA@ 0047dd5c     LWorld.obj
 0002:00000d70       ??_C@_0BB@KFAAONBH@?5?5?5Address?3?7?7?7?$CFs?$AA@ 0047dd70     LWorld.obj
 0002:00000d84       ??_C@_0BJ@KBKCAHPA@?5?5?5IP?3?5?5?5?5?5?5?5?5?5?5?5?5?5?5?5?5?$CFs?$AA@ 0047dd84     LWorld.obj
 0002:00000da0       ??_C@_0BJ@KGMDAPID@?5?5?5Number?5of?5Players?3?5?$CFi?$AA@ 0047dda0     LWorld.obj
 0002:00000dbc       ??_C@_0BJ@DJDJNMD@?5?5?5Number?5of?5Zones?3?5?5?5?$CFi?$AA@ 0047ddbc     LWorld.obj
 0002:00000dd8       ??_C@_0BJ@MPHFLOEB@?5?5?5Account?3?5?5?5?5?5?5?5?5?5?5?5?$CFs?$AA@ 0047ddd8     LWorld.obj
 0002:00000df4       ??_C@_08NAIIIBAK@Name?3?5?$CFs?$AA@ 0047ddf4     LWorld.obj
 0002:00000e00       ??_C@_0O@GIGKLOHH@Ghost?5IP?5kick?$AA@ 0047de00     LWorld.obj
 0002:00000e10       ??_C@_06PJGIPCKE@NotMe?$CI?$AA@ 0047de10     LWorld.obj
 0002:00000e18       ??_C@_04OMAJLIMI@?$CJ?5?$DN?5?$AA@ 0047de18     LWorld.obj
 0002:00000e20       ??_C@_01JLIPDDHJ@?3?$AA@   0047de20     LWorld.obj
 0002:00000e24       ??_C@_02GFKOMOKH@?5?$CI?$AA@ 0047de24     LWorld.obj
 0002:00000e28       ??_C@_01PKGAHCOL@?$CJ?$AA@ 0047de28     LWorld.obj
 0002:00000e2c       ??_C@_0BG@HDPJBECD@?5?$CIit?5wasnt?5connected?$CJ?$AA@ 0047de2c     LWorld.obj
 0002:00000e44       ??_C@_0BJ@DKCAIACM@Removing?5GhostIP?5LWorld?$CI?$AA@ 0047de44     LWorld.obj
 0002:00000e60       ??_C@_0M@CCOBKDAK@?$CJ?5from?5ip?3?5?$AA@ 0047de60     LWorld.obj
 0002:00000e6c       ??_C@_07KNFGOPOE@?5port?3?5?$AA@ 0047de6c     LWorld.obj
 0002:00000e74       ??_C@_08MFJCKJJO@softkick?$AA@ 0047de74     LWorld.obj
 0002:00000e80       ??_C@_0P@DCEJJCDI@Ghost?5Acc?5Kick?$AA@ 0047de80     LWorld.obj
 0002:00000e90       ??_C@_0BK@HBBANFJM@Removing?5GhostAcc?5LWorld?$CI?$AA@ 0047de90     LWorld.obj
 0002:00000eac       ??_C@_0BI@HEAIHGK@Thown?5Error?3?5?$CFs?5?$CI?$CFs?3?$CFi?$CJ?$AA@ 0047deac     LWorld.obj
 0002:00000ec4       ??_C@_0O@HIFMKDPC@Fatal?5error?3?5?$AA@ 0047dec4     LWorld.obj
 0002:00000ed4       ??_C@_0DJ@IAAILCOH@LWorldList?3?3ConnectUplink?5called@ 0047ded4     LWorld.obj
 0002:00000f10       ??_C@_0L@INJCDDGB@LWorld?4cpp?$AA@ 0047df10     LWorld.obj
 0002:00000f1c       ??_C@_07BAMMBJFH@?0?5line?5?$AA@ 0047df1c     LWorld.obj
 0002:00000f24       ??_C@_06KLNFECJK@0?43?410?$AA@ 0047df24     LWorld.obj
 0002:00000f2c       ??_C@_0CD@JKDNGIED@Connected?5to?5Master?5Login?5server@ 0047df2c     LWorld.obj
 0002:00000f50       ??_C@_0CE@JMLEKCNI@LWorldList?3?3ConnectUplink?5failed@ 0047df50     LWorld.obj
 0002:00000f74       ??_C@_01GEODFPGF@?8?$AA@   0047df74     LWorld.obj
 0002:00000f78       ??_C@_0N@KMIFEDED@Adding?5Peer?$CI?$AA@ 0047df78     LWorld.obj
 0002:00000f88       ??_C@_03LPPJIELD@?$CJ?3?5?$AA@ 0047df88     LWorld.obj
 0002:00000f8c       ??_C@_0CH@PFGBNGKJ@Error?3?5AddPeer?$CIchar?$CK?$CJ?3?5?$CBParseAdd@ 0047df8c     LWorld.obj
 0002:00000fb4       ??_C@_0BH@OLGHFPHB@?0?5Unknown?5Type?0?5Name?3?5?$AA@ 0047dfb4     LWorld.obj
 0002:00000fcc       ??_C@_0BK@BDKKFGFB@?0?5Login?5Server?5?$CIin?$CJ?0?5IP?3?5?$AA@ 0047dfcc     LWorld.obj
 0002:00000fe8       ??_C@_0L@JCNNMGPF@?$CJ?0?5AccID?3?5?$AA@ 0047dfe8     LWorld.obj
 0002:00000ff4       ??_C@_0BK@DJKKHP@?0?5Login?5Server?5?$CInc?$CJ?0?5IP?3?5?$AA@ 0047dff4     LWorld.obj
 0002:00001010       ??_C@_0BL@LFHMAHFL@?0?5Login?5Server?5?$CIout?$CJ?0?5IP?3?5?$AA@ 0047e010     LWorld.obj
 0002:0000102c       ??_C@_0BE@IAPJDKPJ@?0?5Chat?5Server?0?5IP?3?5?$AA@ 0047e02c     LWorld.obj
 0002:00001040       ??_C@_0N@MPHGDENJ@?0?5RemoteID?3?5?$AA@ 0047e040     LWorld.obj
 0002:00001050       ??_C@_0BA@GPNJKFED@?0?5LinkWorldID?3?5?$AA@ 0047e050     LWorld.obj
 0002:00001060       ??_C@_06EPLEAHCB@?0?5IP?3?5?$AA@ 0047e060     LWorld.obj
 0002:00001068       ??_C@_04MEDALJFE@ID?3?5?$AA@ 0047e068     LWorld.obj
 0002:00001070       ??_C@_08ICPLNKEC@?0?5Name?3?5?$AA@ 0047e070     LWorld.obj
 0002:0000107c       ??_C@_0O@FHEFAEHH@?0?5Local?0?5IP?3?5?$AA@ 0047e07c     LWorld.obj
 0002:0000108c       ??_C@_0L@HNNEJOKF@?0?5Status?3?5?$AA@ 0047e08c     LWorld.obj
 0002:00001098       ??_C@_09OHABKODN@?0?5AccID?3?5?$AA@ 0047e098     LWorld.obj
 0002:000010a4       ??_C@_0BN@LNBJDKDH@?$DN?$DN?$DN?$DN?$DN?$DN?$DN?$DN?$DN?$DN?$DN?$DN?$DN?$DN?$DN?$DN?$DN?$DN?$DN?$DN?$DN?$DN?$DN?$DN?$DN?$DN?$DN?$DN?$AA@ 0047e0a4     LWorld.obj
 0002:000010c4       ??_C@_0M@DPHBJGIJ@World?5List?3?$AA@ 0047e0c4     LWorld.obj
 0002:000010d0       ??_C@_0BP@HMJAHGNB@Error?5in?5LoadWorldList?5query?5?8?$AA@ 0047e0d0     LWorld.obj
 0002:000010f0       ??_C@_07LHPMHBFD@?5Server?$AA@ 0047e0f0     LWorld.obj
 0002:000010f8       ??_C@_06LGMEBDBC@Server?$AA@ 0047e0f8     LWorld.obj
 0002:00001100       ??_C@_02DKCKIIND@?$CFs?$AA@ 0047e100     LWorld.obj
 0002:00001108       ??_C@_0FH@LMJIDENC@Select?5id?0?5account?0?5name?0?5admin_@ 0047e108     LWorld.obj
 0002:00001160       ??_C@_0BF@EADKLOJP@LWorld?5login?5error?0?5?$AA@ 0047e160     LWorld.obj
 0002:00001178       ??_C@_0M@KLHMFCDJ@?4?5Account?$DN?8?$AA@ 0047e178     LWorld.obj
 0002:00001184       ??_C@_0BD@CCFEDNIP@Chat?5login?5error?0?5?$AA@ 0047e184     LWorld.obj
 0002:00001198       ??_C@_0BK@MMLNFOMP@LoginServer?5login?5error?0?5?$AA@ 0047e198     LWorld.obj
 0002:000011b4       ??_C@_0BI@JKKIEECN@?3?5Peer?5connected?3?5?$CIin?$CJ?5?$AA@ 0047e1b4     LWorld.obj
 0002:000011cc       ??_C@_0CH@DINNHJFP@TCP?5Init?$CI?$CJ?5called?5when?5already?5i@ 0047e1cc     LWorld.obj
 0002:000011f4       ??_C@_0BM@FKMANEN@?3?5Attempting?5peer?5connect?3?5?$AA@ 0047e1f4     LWorld.obj
 0002:00001210       ??_C@_0CG@DEIOOEEG@?3?5Giving?5up?5on?5peer?5reconnect?3?5?$CI@ 0047e210     LWorld.obj
 0002:00001238       ??_C@_0EC@NKHHGHEO@Error?3?5ServerOP_UsertoWorldReq?5r@ 0047e238     LWorld.obj
 0002:0000127c       ??_C@_0DM@JEOKPMMB@Error?3?5ServerOP_UsertoWorldReq?5r@ 0047e27c     LWorld.obj
 0002:000012b8       ??_C@_0BJ@EOMFHJNH@Unknown?5LoginSOPcode?3?50x?$AA@ 0047e2b8     LWorld.obj
 0002:000012d4       ??_C@_0L@HDOBBGDD@Ghost?5kick?$AA@ 0047e2d4     LWorld.obj
 0002:000012e0       ??_C@_0CP@JICOKLEB@Server?5?$CIfrom?5linked?5login?$CJ?5faile@ 0047e2e0     LWorld.obj
 0002:00001310       ??_C@_0CO@EFJHIDIL@Wrong?5size?5on?5ServerOP_WorldList@ 0047e310     LWorld.obj
 0002:00001340       ??_C@_0EC@FLBOPJOP@Error?3?5ServerOP_WorldListUpdate?5@ 0047e340     LWorld.obj
 0002:00001384       ??_C@_0CO@NEGOEHBD@Error?3?5ServerOP_WorldListRemove?3@ 0047e384     LWorld.obj
 0002:000013b4       ??_C@_0CO@ECFIPNCI@Wrong?5size?5on?5ServerOP_WorldList@ 0047e3b4     LWorld.obj
 0002:000013e8       ??_C@_0EC@IELLFMCI@Error?3?5ServerOP_WorldListRemove?5@ 0047e3e8     LWorld.obj
 0002:0000142c       ??_C@_0DO@MGPLLEIK@Error?3?5ServerOP_EncapPacket?5from@ 0047e42c     LWorld.obj
 0002:0000146c       ??_C@_0DH@BGMPPELM@Error?3?5ServerOP_ListWorlds?3?5Pack@ 0047e46c     LWorld.obj
 0002:000014a4       ??_C@_0CK@DLCPLONI@Wrong?5size?5on?5ServerOP_PeerConne@ 0047e4a4     LWorld.obj
 0002:000014d0       ??_C@_0N@JIFEEIGC@?0?5Expected?3?5?$AA@ 0047e4d0     LWorld.obj
 0002:000014e0       ??_C@_0DN@DJEGFDEC@Error?3?5ServerOP_PeerConnect?5from@ 0047e4e0     LWorld.obj
 0002:00001520       ??_C@_0DO@CEANKHND@Error?3?5ServerOP_PeerConnect?5from@ 0047e520     LWorld.obj
 0002:00001560       ??_C@_0EJ@BBNPCMAL@Error?3?5ServerOP_SystemwideMessag@ 0047e560     LWorld.obj
 0002:000015ac       ??_C@_0BB@CCLHECDD@Error?5message?3?5?8?$AA@ 0047e5ac     LWorld.obj
 0002:000015c0       ??_C@_0CK@IEGLPGBE@?3?5World?5server?5responded?5with?5Fa@ 0047e5c0     LWorld.obj
 0002:000015ec       ??_C@_0BG@IOLJNLNF@Bad?5Login?5Password?3?5?$CD?$AA@ 0047e5ec     LWorld.obj
 0002:00001604       ??_C@_0DF@DIAHOHFP@Login?5tried?5to?5connect?0?5but?5i?8m?5@ 0047e604     LWorld.obj
 0002:0000163c       ??_C@_0BC@CADKPAMI@Not?5a?5mesh?5server?$AA@ 0047e63c     LWorld.obj
 0002:00001650       ??_C@_0DH@OLGDDCEN@Login?5tried?5to?5connect?0?5but?5i?8m?5@ 0047e650     LWorld.obj
 0002:00001688       ??_C@_0BE@PJNMBCCP@Not?5a?5master?5server?$AA@ 0047e688     LWorld.obj
 0002:0000169c       ??_C@_0DN@GHDMCBFF@Unnamed?5servers?5not?5allowed?5to?5c@ 0047e69c     LWorld.obj
 0002:000016dc       ??_C@_0BA@PGGAJAAG@Bad?5Password?3?5?$CD?$AA@ 0047e6dc     LWorld.obj
 0002:000016f0       ??_C@_0EJ@BPKOAKLC@Bad?5server?5name?0?5name?5may?5not?5co@ 0047e6f0     LWorld.obj
 0002:0000173c       ??_C@_0CB@LJPGBKOG@Bad?5server?5name?4?5Unknown?5reason?4@ 0047e73c     LWorld.obj
 0002:00001760       ??_C@_0BL@MHMGCBLM@Server?5failed?5name?5check?3?5?$AA@ 0047e760     LWorld.obj
 0002:0000177c       ??_C@_0BB@PIOANFGO@Server?5Name?5Here?$AA@ 0047e77c     LWorld.obj
 0002:00001790       ??_C@_0P@NKALCGHL@Unnamed?5server?$AA@ 0047e790     LWorld.obj
 0002:000017a0       ??_C@_0BH@IJKMAHCN@Unknown?5Server?5Type?3?5?$CD?$AA@ 0047e7a0     LWorld.obj
 0002:000017b8       ??_C@_0BE@GPJAMPDN@Unknown?5Server?5Type?$AA@ 0047e7b8     LWorld.obj
 0002:000017cc       ??_C@_0BF@FFNJHFKM@Bad?5Chat?5Password?3?5?$CD?$AA@ 0047e7cc     LWorld.obj
 0002:000017e4       ??_C@_0N@PDHKEEKO@Bad?5password?$AA@ 0047e7e4     LWorld.obj
 0002:000017f4       ??_C@_0BH@PGNICPGL@Bad?5Version?5?$CIproto?$CJ?3?5?$CD?$AA@ 0047e7f4     LWorld.obj
 0002:0000180c       ??_C@_0BM@JDADCBKJ@Bad?5Version?5?$CIwrong?5size?$CJ?3?5?$CD?$AA@ 0047e80c     LWorld.obj
 0002:00001828       ??_C@_01CLKCMJKC@?5?$AA@   0047e828     LWorld.obj
 0002:0000182c       ??_C@_0BC@IOFLAFNG@Incorrect?5version?$AA@ 0047e82c     LWorld.obj
 0002:00001840       ??_C@_0M@MFACMHKH@Pack?5size?3?5?$AA@ 0047e840     LWorld.obj
 0002:0000184c       ??_C@_02IKAHHCAI@?$CFi?$AA@ 0047e84c     LWorld.obj
 0002:00001850       ??_C@_0BJ@CHBOHJON@?3?5Peer?5connected?3?5?$CIout?$CJ?5?$AA@ 0047e850     LWorld.obj
 0002:0000186c       ??_C@_0BD@PJADBLG@?$CJ?5?$CIChat?$CJ?5from?5ip?3?5?$AA@ 0047e86c     LWorld.obj
 0002:00001880       ??_C@_0BB@BCFLGAKP@Removing?5LWorld?$CI?$AA@ 0047e880     LWorld.obj
 0002:00001894       ??_C@_0BE@KIGGCIFJ@?$CJ?5?$CILogin?$CJ?5from?5ip?3?5?$AA@ 0047e894     LWorld.obj
 0002:000018a8       ??_C@_08EKLIFFJE@?0?5port?3?5?$AA@ 0047e8a8     LWorld.obj
 0002:000018b4       ??_C@_0BC@NDBFDJDN@Invalid?5Command?4?6?$AA@ 0047e8b4     net.obj
 0002:000018c8       ??_C@_0BD@FPNAFONN@v?5?$DN?5Login?5Version?6?$AA@ 0047e8c8     net.obj
 0002:000018dc       ??_C@_0BO@PKPOCCAC@l?5?$DN?5Listing?5of?5World?5Servers?6?$AA@ 0047e8dc     net.obj
 0002:000018fc       ??_C@_0BF@FLLOAPGH@Available?5Commands?3?6?$AA@ 0047e8fc     net.obj
 0002:00001914       ??_C@_0BO@ECOPFELP@?$DN?$DN?$DN?$DN?$DN?$DN?$DN?$DN?$DN?$DN?$DN?$DN?$DN?$DN?$DN?$DN?$DN?$DN?$DN?$DN?$DN?$DN?$DN?$DN?$DN?$DN?$DN?$DN?6?$AA@ 0047e914     net.obj
 0002:00001934       ??_C@_0M@CGHPENFL@Got?5signal?5?$AA@ 0047e934     net.obj
 0002:00001940       ??_C@_0CB@MAJONLDF@Incomplete?5LoginServer?4INI?5file?4@ 0047e940     net.obj
 0002:00001964       ??_C@_0BG@FCLLFLAN@LoginServer?4ini?5read?4?$AA@ 0047e964     net.obj
 0002:0000197c       ??_C@_0L@GJMJAOEP@serverport?$AA@ 0047e97c     net.obj
 0002:00001988       ??_C@_0BG@GOBOFGLJ@Stats?5writing?5enabled?$AA@ 0047e988     net.obj
 0002:000019a0       ??_C@_0M@HBJHMMND@enablestats?$AA@ 0047e9a0     net.obj
 0002:000019ac       ??_C@_0P@DPAIEDMB@uplinkpassword?$AA@ 0047e9ac     net.obj
 0002:000019bc       ??_C@_0O@ILEDOEFJ@uplinkaccount?$AA@ 0047e9bc     net.obj
 0002:000019cc       ??_C@_0L@KHLMDDGN@uplinkport?$AA@ 0047e9cc     net.obj
 0002:000019d8       ??_C@_0O@MADHEICH@uplinkaddress?$AA@ 0047e9d8     net.obj
 0002:000019e8       ??_C@_0FA@NFIKBNEF@?5?5?5?5?5?5?5Make?5sure?5your?5?8ServerMod@ 0047e9e8     net.obj
 0002:00001a38       ??_C@_0EG@LMDKMDCH@Error?3?5?8uplinkpeer?8?5found?5in?5Log@ 0047ea38     net.obj
 0002:00001a80       ??_C@_0L@IHDCMBHK@uplinkpeer?$AA@ 0047ea80     net.obj
 0002:00001a8c       ??_C@_04GONFKEIN@Mesh?$AA@ 0047ea8c     net.obj
 0002:00001a94       ??_C@_05FDIJKFCP@Slave?$AA@ 0047ea94     net.obj
 0002:00001a9c       ??_C@_06INNNFHKM@Master?$AA@ 0047ea9c     net.obj
 0002:00001aa4       ??_C@_0DD@GLFCGEEG@?$FLLoginConfig?$FN?5block?5not?5found?5in@ 0047eaa4     net.obj
 0002:00001ad8       ??_C@_0L@NNOKEHGC@Standalone?$AA@ 0047ead8     net.obj
 0002:00001ae4       ??_C@_0L@LKMLKBKO@servermode?$AA@ 0047eae4     net.obj
 0002:00001af0       ??_C@_0O@LMALBNE@?$CF?$FL?$FO?$DN?$FN?$DN?$CF?$FL?$FO?6?$FN?$AN?6?$AA@ 0047eaf0     net.obj
 0002:00001b00       ??_C@_0BA@ELBOJHN@?$FLLoginConfig?$FN?$AN?6?$AA@ 0047eb00     net.obj
 0002:00001b10       ??_C@_0P@MFFLBHFP@?$FLLoginConfig?$FN?6?$AA@ 0047eb10     net.obj
 0002:00001b20       ??_C@_0CJ@GFEMODFO@Couldn?8t?5open?5the?5LoginServer?4in@ 0047eb20     net.obj
 0002:00001b4c       ??_C@_0BA@BOIOIKFK@LoginServer?4ini?$AA@ 0047eb4c     net.obj
 0002:00001b5c       ??_C@_01KDCPPGHE@r?$AA@    0047eb5c     net.obj
 0002:00001b60       ??_C@_0BF@EMOAHFKE@Server?5mode?3?5Unknown?$AA@ 0047eb60     net.obj
 0002:00001b78       ??_C@_0BN@ODOMEABD@EQNetworkServer?4Open?$CI?$CJ?5error?$AA@ 0047eb78     net.obj
 0002:00001b98       ??_C@_0CA@FKFLHPJL@Login?5server?5listening?5on?5port?3?$AA@ 0047eb98     net.obj
 0002:00001bb8       ??_C@_0BC@KJBPLIIN@Server?5mode?3?5Mesh?$AA@ 0047ebb8     net.obj
 0002:00001bcc       ??_C@_0BD@FDEOGPDD@Server?5mode?3?5Slave?$AA@ 0047ebcc     net.obj
 0002:00001be0       ??_C@_0BE@JJNMMMCJ@Server?5mode?3?5Master?$AA@ 0047ebe0     net.obj
 0002:00001bf4       ??_C@_0BI@PFOKLDEG@Server?5mode?3?5Standalone?$AA@ 0047ebf4     net.obj
 0002:00001c0c       ??_C@_0BN@IBPHJBFK@Could?5not?5set?5signal?5handler?$AA@ 0047ec0c     net.obj
 0002:00001c2c       ??_C@_06BIBHMBFB@qeynos?$AA@ 0047ec2c     database.obj
 0002:00001c34       ??_C@_0CE@GJBHIPOL@Could?5not?5connect?5to?5mysql?5serve@ 0047ec34     database.obj
 0002:00001c58       ??_C@_0CI@KBPDOHDF@Access?5to?5the?5mysql?5server?5was?5d@ 0047ec58     database.obj
 0002:00001c80       ??_C@_0N@LEPKIKBG@?$CF?$FL?$FO?$DN?$FN?$DN?$CF?$FL?$FO?6?$FN?6?$AA@ 0047ec80     database.obj
 0002:00001c90       ??_C@_0BF@HNJDOOPP@Couldn?8t?5open?5?8?$CFs?8?4?6?$AA@ 0047ec90     database.obj
 0002:00001ca8       ??_C@_0FG@ODHEIDAL@SELECT?5varname?0?5value?0?5unix_time@ 0047eca8     database.obj
 0002:00001d00       ??_C@_07NFANNNEC@UNKNOWN?$AA@ 0047ed00     database.obj
 0002:00001d08       ??_C@_0BJ@KMGHDFBC@Incomplete?5DB?4INI?5file?4?6?$AA@ 0047ed08     database.obj
 0002:00001d24       ??_C@_0BB@IGBJMGOH@Using?5database?5?8?$AA@ 0047ed24     database.obj
 0002:00001d38       ??_C@_05NALDDAJO@?8?5at?5?$AA@ 0047ed38     database.obj
 0002:00001d40       ??_C@_0CH@INHBIBOJ@Failed?5to?5connect?5to?5database?3?5E@ 0047ed40     database.obj
 0002:00001d68       ??_C@_0EB@NKLPEMPJ@Unknown?5?8compression?8?5setting?5in@ 0047ed68     database.obj
 0002:00001dac       ??_C@_03MCADLMAF@off?$AA@  0047edac     database.obj
 0002:00001db0       ??_C@_0CH@FMAAFLDO@?$FLDatabase?$FN?5block?5not?5found?5in?5DB@ 0047edb0     database.obj
 0002:00001dd8       ??_C@_0BD@NGHCJDLI@DB?5Compression?5on?4?$AA@ 0047edd8     database.obj
 0002:00001dec       ??_C@_02LIELOMNJ@on?$AA@   0047edec     database.obj
 0002:00001df0       ??_C@_0M@DGJEMLOB@compression?$AA@ 0047edf0     database.obj
 0002:00001dfc       ??_C@_04PJOLNDGD@data?$AA@ 0047edfc     database.obj
 0002:00001e04       ??_C@_04BBDAIEHH@pass?$AA@ 0047ee04     database.obj
 0002:00001e0c       ??_C@_04CCHAHKJA@user?$AA@ 0047ee0c     database.obj
 0002:00001e14       ??_C@_04OODOLJMA@host?$AA@ 0047ee14     database.obj
 0002:00001e1c       ??_C@_0N@KAHGIPLO@?$FLDatabase?$FN?$AN?6?$AA@ 0047ee1c     database.obj
 0002:00001e2c       ??_C@_0M@NDPJLJDJ@?$FLDatabase?$FN?6?$AA@ 0047ee2c     database.obj
 0002:00001e38       ??_C@_0BC@JEIKFDPB@Read?5README?4TXT?$CB?6?$AA@ 0047ee38     database.obj
 0002:00001e4c       ??_C@_06JGPPPJAO@db?4ini?$AA@ 0047ee4c     database.obj
 0002:00001e54       ??_C@_0BP@BAGGMNOE@Error?5in?5LoadVariables?5query?5?8?$AA@ 0047ee54     database.obj
 0002:00001e78       __real@4024000000000000    0047ee78     database.obj
 0002:00001e80       ??_C@_07COGNKMKN@?$CD?$CFi?3?5?$CFs?$AA@ 0047ee80     dbcore.obj
 0002:00001e88       ??_C@_0BM@HMIBIHPL@DBcore?3?3RunQuery?3?5No?5Result?$AA@ 0047ee88     dbcore.obj
 0002:00001ea4       ??_C@_0BB@LKFIIAJC@DB?5Query?5Error?5?$CD?$AA@ 0047eea4     dbcore.obj
 0002:00001eb8       ??_C@_02LMMGGCAJ@?3?5?$AA@ 0047eeb8     dbcore.obj
 0002:00001ebc       ??_C@_0DL@NCDAFNKH@Database?5Error?3?5Lost?5connection?0@ 0047eebc     dbcore.obj
 0002:00001ef8       ??_C@_05GCIPIGEI@Debug?$AA@ 0047eef8     debug.obj
 0002:00001f00       ??_C@_05NAOIJFC@Error?$AA@ 0047ef00     debug.obj
 0002:00001f08       ??_C@_06EFAGIKOH@Normal?$AA@ 0047ef08     debug.obj
 0002:00001f10       ??_C@_06PGDKHFME@Status?$AA@ 0047ef10     debug.obj
 0002:00001f18       ??_C@_0BB@LDPFHNGD@logs?1eqemu_debug?$AA@ 0047ef18     debug.obj
 0002:00001f2c       ??_C@_0BB@NMHEHCHJ@logs?1eqemu_error?$AA@ 0047ef2c     debug.obj
 0002:00001f40       ??_C@_0L@EPEGKDBN@logs?1eqemu?$AA@ 0047ef40     debug.obj
 0002:00001f4c       ??_C@_0BB@MPNKKKEG@Starting?5Log?3?5?$CFs?$AA@ 0047ef4c     debug.obj
 0002:00001f60       ??_C@_0CP@EGFLNOHK@?9?9?9?9?9?9?9?9?9?9?9?9?9?9?9?9?9?9?9?9?9?9?9?9?9?9?9?9?9?9?9?9@ 0047ef60     debug.obj
 0002:00001f90       ??_C@_0BK@IAJGGLNK@Failed?5to?5open?5log?5file?3?5?$AA@ 0047ef90     debug.obj
 0002:00001fac       ??_C@_01MCMALHOG@a?$AA@    0047efac     debug.obj
 0002:00001fb0       ??_C@_0O@JHLKCGPJ@?$CFs?$CFs_?$CF04i?4log?$AA@ 0047efb0     debug.obj
 0002:00001fc0       ??_C@_01EEMJAFIK@?6?$AA@   0047efc0     debug.obj
 0002:00001fc4       ??_C@_05KJDPJACP@?$FL?$CFs?$FN?5?$AA@ 0047efc4     debug.obj
 0002:00001fcc       ??_C@_0BP@GHFFCBEA@?$FL?$CF02d?4?$CF02d?4?5?9?5?$CF02d?3?$CF02d?3?$CF02d?$FN?5?$AA@ 0047efcc     debug.obj
 0002:00001fec       ??_C@_03NDEAONJP@?5?5?5?$AA@ 0047efec     debug.obj
 0002:00001ff0       ??_C@_02KNHHEEKP@?5?5?$AA@ 0047eff0     debug.obj
 0002:00001ff4       ??_C@_05BFHEBJNP@?$CF02X?5?$AA@ 0047eff4     debug.obj
 0002:00001ffc       ??_C@_02KFKPNHPM@?9?5?$AA@ 0047effc     debug.obj
 0002:00002004       ??_7EQNetworkPacket@@6B@   0047f004     EQNetwork.obj
 0002:0000200c       ??_7EQNetworkFragmentGroup@@6B@ 0047f00c     EQNetwork.obj
 0002:00002014       ??_7EQNetworkServer@@6B@   0047f014     EQNetwork.obj
 0002:0000201c       ??_7EQNetworkFragmentGroupList@@6B@ 0047f01c     EQNetwork.obj
 0002:00002024       ??_7EQNetworkConnection@@6B@ 0047f024     EQNetwork.obj
 0002:00002028       ??_C@_0CN@IEFMLMNI@EQNetworkConnection?3?3QueuePacket@ 0047f028     EQNetwork.obj
 0002:00002058       ??_C@_0BI@HDKCIHMG@?4?4?2common?2EQNetwork?4cpp?$AA@ 0047f058     EQNetwork.obj
 0002:00002070       ??_C@_0DC@IIEPIBOM@EQNetworkConnection?3?3FastQueuePa@ 0047f070     EQNetwork.obj
 0002:000020a8       ??_C@_0EB@FPHCMOOJ@EQNetworkConnection?3?3Connect?$CI?$CJ?5c@ 0047f0a8     EQNetwork.obj
 0002:000020ec       ??_C@_0BG@DGCBBBEI@Illegal?5packet?5length?$AA@ 0047f0ec     EQNetwork.obj
 0002:00002108       ??_C@_0EB@JIFDHAA@?$CF02x?$CF02x?$CF02x?$CF02x?$CF02x?$CF02x?$CF02x?$CF02x@ 0047f108     md5.obj
 0002:0000214c       ??_C@_01EFFIKLCJ@n?$AA@    0047f14c     MiscFunctions.obj
 0002:00002150       ??_C@_01EANLCPLP@y?$AA@    0047f150     MiscFunctions.obj
 0002:00002154       ??_C@_08BEHKFNNO@disabled?$AA@ 0047f154     MiscFunctions.obj
 0002:00002160       ??_C@_07MHHIKOPA@enabled?$AA@ 0047f160     MiscFunctions.obj
 0002:00002168       ??_C@_07DBNODEFN@disable?$AA@ 0047f168     MiscFunctions.obj
 0002:00002170       ??_C@_06OFNJOBDK@enable?$AA@ 0047f170     MiscFunctions.obj
 0002:00002178       ??_C@_02KAJCLHKP@no?$AA@   0047f178     MiscFunctions.obj
 0002:0000217c       ??_C@_03ICICOMAL@yes?$AA@  0047f17c     MiscFunctions.obj
 0002:00002180       ??_C@_0CH@FCAOFEHD@Unable?5to?5get?5the?5host?5name?4?5Err@ 0047f180     MiscFunctions.obj
 0002:000021a8       ??_C@_0BL@FCHGMHHG@ResolveIP?$CI?$CJ?3?5hostname?5?$DN?$DN?50?$AA@ 0047f1a8     MiscFunctions.obj
 0002:000021c4       ??_C@_01LFCBOECM@?4?$AA@   0047f1c4     MiscFunctions.obj
 0002:000021c8       ??_C@_01KMDKNFGN@?1?$AA@   0047f1c8     MiscFunctions.obj
 0002:000021cc       ??_C@_03LGOGDKEL@?5?$HM?5?$AA@ 0047f1cc     packet_dump.obj
 0002:000021d0       ??_C@_0BF@KIEKEKPI@Dumping?5Applayer?3?50x?$AA@ 0047f1d0     packet_dump.obj
 0002:000021e8       ??_C@_0BJ@KPNMCCPI@Dumping?5ServerPacket?3?50x?$AA@ 0047f1e8     packet_dump.obj
 0002:00002204       ??_C@_05GDHACFMB@1?42?43?$AA@ 0047f204     packet_functions.obj
 0002:0000220c       ??_C@_0BB@EELAPGFL@Packet?5contents?3?$AA@ 0047f20c     packet_functions.obj
 0002:00002220       ??_C@_0CK@KIPBEPJF@Error?3?5InflatePacket?3?5inflate?$CI?$CJ?5@ 0047f220     packet_functions.obj
 0002:0000224c       ??_C@_02OCDGNCGI@?5?8?$AA@ 0047f24c     packet_functions.obj
 0002:00002250       ??_C@_0BL@MOLBKPNH@listen?$CI?$CJ?5failed?0?5Error?3?5?$CFd?$AA@ 0047f250     TCPConnection.obj
 0002:0000226c       ??_C@_0L@BEFHLMDM@bind?$CI?$CJ?3?5?$DM0?$AA@ 0047f26c     TCPConnection.obj
 0002:00002278       ??_C@_0BJ@JDCGJPAD@socket?$CI?$CJ?3?5INVALID_SOCKET?$AA@ 0047f278     TCPConnection.obj
 0002:00002294       ??_C@_0BO@HBPBPDCP@Listening?5socket?5already?5open?$AA@ 0047f294     TCPConnection.obj
 0002:000022b8       ??_7TCPConnection@@6B@     0047f2b8     TCPConnection.obj
 0002:000022d0       ??_C@_0BB@NDAFJHND@?$AA?$CK?$CKPACKETMODE?$CK?$CK?$AN?$AA@ 0047f2d0     TCPConnection.obj
 0002:000022e4       ??_C@_0P@JGLKBMGI@?$CK?$CKPACKETMODE?$CK?$CK?$AA@ 0047f2e4     TCPConnection.obj
 0002:000022f8       ??_C@_0FA@OHPOAEAC@TCPConnection?3?3ProcessReceivedDa@ 0047f2f8     TCPConnection.obj
 0002:0000234c       ??_7TCPServer@@6B@         0047f34c     TCPConnection.obj
 0002:00002350       ??_C@_0DN@EIDEALPO@Error?3?5TCPConnection?3?5RemoteID?5?$DN@ 0047f350     TCPConnection.obj
 0002:00002390       ??_C@_0BM@GLJKHFIK@?4?4?2common?2TCPConnection?4cpp?$AA@ 0047f390     TCPConnection.obj
 0002:000023ac       ??_C@_0DH@PIINFCEJ@TCPConnection?3?3Free?$CI?$CJ?5called?5on?5@ 0047f3ac     TCPConnection.obj
 0002:000023e4       ??_C@_0DO@CIIFGKAP@TCPConnection?3?3Connect?$CI?$CJ?3?5Alloca@ 0047f3e4     TCPConnection.obj
 0002:00002424       ??_C@_0DG@LAHIGJLP@TCPConnection?3?3Connect?$CI?$CJ?3?5connec@ 0047f424     TCPConnection.obj
 0002:00002460       ??_C@_0EA@FHCCHOMH@TCPConnection?3?3Connect?$CI?$CJ?5call?5on@ 0047f460     TCPConnection.obj
 0002:000024a0       ??_C@_0DC@JINBPJOF@Switch?5to?5RelayServer?5mode?5on?5ou@ 0047f4a0     TCPConnection.obj
 0002:000024d4       ??_C@_0CN@OKBGGIBF@Switch?5to?5RelayServer?5mode?5by?5a?5@ 0047f4d4     TCPConnection.obj
 0002:00002504       ??_C@_0DM@DGAMMPEL@Switch?5to?5RelayServer?5mode?5when?5@ 0047f504     TCPConnection.obj
 0002:00002540       ??_C@_0CI@IMFDLAEP@New?5RelayClient?3?5wrong?5size?0?5exp@ 0047f540     TCPConnection.obj
 0002:00002568       ??_C@_0DA@CCKJOIAM@New?5RelayClient?3?5illegal?5on?5outg@ 0047f568     TCPConnection.obj
 0002:00002598       ??_C@_0CJ@CALCAIAD@New?5RelayClient?3?5wrong?5size?0?5exp@ 0047f598     TCPConnection.obj
 0002:000025c4       ??_C@_0CN@KKHAKOIA@New?5RelayClient?5when?5not?5in?5Rela@ 0047f5c4     TCPConnection.obj
 0002:000025f4       ??_C@_0CG@CEBFCC@Delete?5RelayClient?3?5RelayLink?5?$CB?$DN@ 0047f5f4     TCPConnection.obj
 0002:0000261c       ??_C@_0CL@INGFOIAK@Delete?5RelayClient?3?5wrong?5size?0?5@ 0047f61c     TCPConnection.obj
 0002:00002648       ??_C@_0DA@PJGINCIE@Delete?5RelayClient?5when?5not?5in?5R@ 0047f648     TCPConnection.obj
 0002:00002678       ??_C@_0DB@IKFHBNBN@TCPConnection?3?3SendData?$CI?$CJ?3?5send?$CI@ 0047f678     TCPConnection.obj
 0002:000026ac       ??_C@_0CO@JCOALCHE@TCPConnection?3?3SendData?$CI?$CJ?3?5WTF?$CB?5@ 0047f6ac     TCPConnection.obj
 0002:000026dc       ??_C@_0BK@JAGMJMLJ@TCPServerLoop?$CI?$CJ?3?5tmp?5?$DN?50?$CB?$AA@ 0047f6dc     TCPConnection.obj
 0002:000026f8       ??_C@_0BO@IGEJOJI@TCPConnectionLoop?$CI?$CJ?3?5tmp?5?$DN?50?$CB?$AA@ 0047f6f8     TCPConnection.obj
 0002:00002718       ??_C@_0EF@CIMPLLNP@TCPConnection?3?3AsyncConnect?$CI?$CJ?5ca@ 0047f718     TCPConnection.obj
 0002:00002760       ??_C@_0CO@JEKLODDB@TCPConnection?3?3RecvData?$CI?$CJ?3?5Conne@ 0047f760     TCPConnection.obj
 0002:00002790       ??_C@_0CF@DCHHHEHM@TCPConnection?3?3RecvData?$CI?$CJ?3?5Error@ 0047f790     TCPConnection.obj
 0002:000027b8       ??_C@_0EE@GGHMLKEF@TCPConnection?3?3RecvData?$CI?$CJ?3?5recvb@ 0047f7b8     TCPConnection.obj
 0002:000027fc       ??_C@_06HPIPGHLH@MEMORY?$AA@ 0047f7fc     mysqlclient:client.obj
 0002:00002804       ??_C@_04GGAEFGO@PIPE?$AA@  0047f804     mysqlclient:client.obj
 0002:0000280c       ??_C@_06HFGAEBMM@SOCKET?$AA@ 0047f80c     mysqlclient:client.obj
 0002:00002814       ??_C@_03FCLDNGNL@TCP?$AA@  0047f814     mysqlclient:client.obj
 0002:00002818       ??_C@_07FOPBDDAL@options?$AA@ 0047f818     mysqlclient:client.obj
 0002:00002820       ??_C@_0BH@BONNBGIA@report?9data?9truncation?$AA@ 0047f820     mysqlclient:client.obj
 0002:00002838       ??_C@_0M@PMDPKFDA@secure?9auth?$AA@ 0047f838     mysqlclient:client.obj
 0002:00002844       ??_C@_0O@IGPGCENI@multi?9queries?$AA@ 0047f844     mysqlclient:client.obj
 0002:00002854       ??_C@_0BB@ECMBLIEH@multi?9statements?$AA@ 0047f854     mysqlclient:client.obj
 0002:00002868       ??_C@_0O@CCDCLLBG@multi?9results?$AA@ 0047f868     mysqlclient:client.obj
 0002:00002878       ??_C@_0BI@FOKNPLJP@shared?9memory?9base?9name?$AA@ 0047f878     mysqlclient:client.obj
 0002:00002890       ??_C@_08FCFPNNHF@protocol?$AA@ 0047f890     mysqlclient:client.obj
 0002:0000289c       ??_C@_0BD@OFGLABCB@max?9allowed?9packet?$AA@ 0047f89c     mysqlclient:client.obj
 0002:000028b0       ??_C@_0L@PHBCGEDL@ssl?9cipher?$AA@ 0047f8b0     mysqlclient:client.obj
 0002:000028bc       ??_C@_0BB@HNHJLDBF@repl?9parse?9query?$AA@ 0047f8bc     mysqlclient:client.obj
 0002:000028d0       ??_C@_0BJ@JAEAFHJM@enable?9reads?9from?9master?$AA@ 0047f8d0     mysqlclient:client.obj
 0002:000028ec       ??_C@_0BC@BKIPLOIH@replication?9probe?$AA@ 0047f8ec     mysqlclient:client.obj
 0002:00002900       ??_C@_0BF@DNHMICAO@disable?9local?9infile?$AA@ 0047f900     mysqlclient:client.obj
 0002:00002918       ??_C@_0N@DEPIEDDP@local?9infile?$AA@ 0047f918     mysqlclient:client.obj
 0002:00002928       ??_C@_0BA@PKFDCPCI@connect?9timeout?$AA@ 0047f928     mysqlclient:client.obj
 0002:00002938       ??_C@_0BE@PKKGFOHM@interactive?9timeout?$AA@ 0047f938     mysqlclient:client.obj
 0002:0000294c       ??_C@_0BG@BMMCDGOA@default?9character?9set?$AA@ 0047f94c     mysqlclient:client.obj
 0002:00002964       ??_C@_0BD@HPLEKGGN@character?9sets?9dir?$AA@ 0047f964     mysqlclient:client.obj
 0002:00002978       ??_C@_0L@MLIAJKEA@ssl?9capath?$AA@ 0047f978     mysqlclient:client.obj
 0002:00002984       ??_C@_06KEIFHGI@ssl?9ca?$AA@ 0047f984     mysqlclient:client.obj
 0002:0000298c       ??_C@_08MLGPLICL@ssl?9cert?$AA@ 0047f98c     mysqlclient:client.obj
 0002:00002998       ??_C@_07HPCDODLB@ssl?9key?$AA@ 0047f998     mysqlclient:client.obj
 0002:000029a0       ??_C@_0BC@CPNNNMD@return?9found?9rows?$AA@ 0047f9a0     mysqlclient:client.obj
 0002:000029b4       ??_C@_05GFCDIDHO@debug?$AA@ 0047f9b4     mysqlclient:client.obj
 0002:000029bc       ??_C@_08PBOCEOLL@database?$AA@ 0047f9bc     mysqlclient:client.obj
 0002:000029c8       ??_C@_0N@CJBLNCLF@init?9command?$AA@ 0047f9c8     mysqlclient:client.obj
 0002:000029d8       ??_C@_07DDHNKDGP@timeout?$AA@ 0047f9d8     mysqlclient:client.obj
 0002:000029e0       ??_C@_04MKFKKHBG@pipe?$AA@ 0047f9e0     mysqlclient:client.obj
 0002:000029e8       ??_C@_08NLHBPEGP@password?$AA@ 0047f9e8     mysqlclient:client.obj
 0002:000029f4       ??_C@_08EJNPIMGB@compress?$AA@ 0047f9f4     mysqlclient:client.obj
 0002:00002a00       ??_C@_06HBELJPBO@socket?$AA@ 0047fa00     mysqlclient:client.obj
 0002:00002a08       ??_C@_04LPGMAPLE@port?$AA@ 0047fa08     mysqlclient:client.obj
 0002:00002a10       ??_C@_07DLJKOECL@Global?2?$AA@ 0047fa10     mysqlclient:client.obj
 0002:00002a18       ??_C@_05CAPCAOJG@MYSQL?$AA@ 0047fa18     mysqlclient:client.obj
 0002:00002a20       ??_C@_05MJALLADF@08001?$AA@ 0047fa20     mysqlclient:client.obj
 0002:00002a28       ??_C@_05OAGAMKLF@00000?$AA@ 0047fa28     mysqlclient:client.obj
 0002:00002a30       ??_C@_05JDDDFACF@HY000?$AA@ 0047fa30     mysqlclient:client.obj
 0002:00002a38       ??_C@_02HDBGODGB@?2?2?$AA@ 0047fa38     mysqlclient:client.obj
 0002:00002a3c       ??_C@_06CKMLAALA@?2pipe?2?$AA@ 0047fa3c     mysqlclient:client.obj
 0002:00002a44       ??_C@_09IPAEKDAI@localhost?$AA@ 0047fa44     mysqlclient:client.obj
 0002:00002a50       ??_C@_0BC@DELLOAPH@CONNECTION_CLOSED?$AA@ 0047fa50     mysqlclient:client.obj
 0002:00002a64       ??_C@_0M@PECOEDJB@CLIENT_READ?$AA@ 0047fa64     mysqlclient:client.obj
 0002:00002a70       ??_C@_0N@HEAGDILD@CLIENT_WROTE?$AA@ 0047fa70     mysqlclient:client.obj
 0002:00002a80       ??_C@_0M@PHMCLNCP@SERVER_READ?$AA@ 0047fa80     mysqlclient:client.obj
 0002:00002a8c       ??_C@_0N@FINMEKMG@SERVER_WROTE?$AA@ 0047fa8c     mysqlclient:client.obj
 0002:00002a9c       ??_C@_04DFNBDBBL@DATA?$AA@ 0047fa9c     mysqlclient:client.obj
 0002:00002aa4       ??_C@_0N@KDCPKEFK@CONNECT_DATA?$AA@ 0047faa4     mysqlclient:client.obj
 0002:00002ab4       ??_C@_0P@LAPEINM@CONNECT_ANSWER?$AA@ 0047fab4     mysqlclient:client.obj
 0002:00002ac4       ??_C@_0BA@JHEAPDIJ@CONNECT_REQUEST?$AA@ 0047fac4     mysqlclient:client.obj
 0002:00002ad4       ??_C@_01IDAFKMJL@_?$AA@    0047fad4     mysqlclient:client.obj
 0002:00002ad8       ??_C@_0L@MKBJOBHN@Windows_NT?$AA@ 0047fad8     mysqlclient:client.obj
 0002:00002ae4       ??_C@_02OKOOOCIH@OS?$AA@   0047fae4     mysqlclient:client.obj
 0002:00002ae8       ??_C@_0CA@ONJAFPFC@Unknown?5option?5to?5protocol?3?5?$CFs?6?$AA@ 0047fae8     mysqlclient:client.obj
 0002:00002b08       ??_C@_0BI@EOMMNJFB@d?3t?3o?0?1tmp?1client?4trace?$AA@ 0047fb08     mysqlclient:client.obj
 0002:00002b20       ??_C@_06DGDLPBAN@client?$AA@ 0047fb20     mysqlclient:client.obj
 0002:00002b28       ??_C@_04ODABKPJA@?1CN?$DN?$AA@ 0047fb28     mysqlclient:client.obj
 0002:00002b30       ??_C@_0CP@EINHLMKL@COLLATION?5?$CFs?5is?5not?5valid?5for?5CH@ 0047fb30     mysqlclient:client.obj
 0002:00002b60       ??_C@_0BC@BNNCKLMG@latin1_swedish_ci?$AA@ 0047fb60     mysqlclient:client.obj
 0002:00002b74       ??_C@_06CDEFMFPB@latin1?$AA@ 0047fb74     mysqlclient:client.obj
 0002:00002b7c       ??_C@_0N@HAKKOMP@SET?5NAMES?5?$CFs?$AA@ 0047fb7c     mysqlclient:client.obj
 0002:00002b8c       ??_C@_0M@OABNLEKB@mysql_close?$AA@ 0047fb8c     mysqlclient:client.obj
 0002:00002b98       ??_C@_0CD@CIHNPOGB@sending?5authentication?5informati@ 0047fb98     mysqlclient:client.obj
 0002:00002bbc       ??_C@_0BJ@EDEHFNCE@Setting?5intital?5database?$AA@ 0047fbbc     mysqlclient:client.obj
 0002:00002bd8       ??_C@_0BN@NHONKCFH@sending?5password?5information?$AA@ 0047fbd8     mysqlclient:client.obj
 0002:00002bf8       ??_C@_0CC@FOKDGKNL@reading?5final?5connect?5informatio@ 0047fbf8     mysqlclient:client.obj
 0002:00002c1c       ??_C@_0BN@IKPBBPKC@reading?5authorization?5packet?$AA@ 0047fc1c     mysqlclient:client.obj
 0002:00002c3c       ??_C@_0CJ@OKBDLPBM@sending?5connection?5information?5t@ 0047fc3c     mysqlclient:client.obj
 0002:00002c68       ??_C@_0CF@JIJHEKCB@reading?5initial?5communication?5pa@ 0047fc68     mysqlclient:client.obj
 0002:00002c90       ??_C@_0CJ@GFOPAJCF@waiting?5for?5initial?5communicatio@ 0047fc90     mysqlclient:client.obj
 0002:00002cbc       ??_C@_05OBDDCBJC@MySQL?$AA@ 0047fcbc     mysqlclient:client.obj
 0002:00002cc4       ??_C@_09DPJNFAJ@MYSQL_PWD?$AA@ 0047fcc4     mysqlclient:client.obj
 0002:00002cd0       ??_C@_02LOEMLMCB@my?$AA@   0047fcd0     mysqlclient:client.obj
 0002:00002d24       ??_C@_04FPECENHI@ODBC?$AA@ 0047fd24     mysqlclient:libmysql.obj
 0002:00002d2c       ??_C@_04OOEKJIOI@USER?$AA@ 0047fd2c     mysqlclient:libmysql.obj
 0002:00002d38       __real@41f0000000000000    0047fd38     mysqlclient:libmysql.obj
 0002:00002d40       ??_C@_0BA@EFBEJEPG@MYSQL_UNIX_PORT?$AA@ 0047fd40     mysqlclient:libmysql.obj
 0002:00002d50       ??_C@_0P@MHNLJEK@MYSQL_TCP_PORT?$AA@ 0047fd50     mysqlclient:libmysql.obj
 0002:00002d60       ??_C@_05OLGEOJNI@mysql?$AA@ 0047fd60     mysqlclient:libmysql.obj
 0002:00002d68       ??_C@_03FPEIBLKH@tcp?$AA@  0047fd68     mysqlclient:libmysql.obj
 0002:00002d6c       ??_C@_0BB@EOEPJPDP@SHOW?5SLAVE?5HOSTS?$AA@ 0047fd6c     mysqlclient:libmysql.obj
 0002:00002d80       ??_C@_0BC@DFNLOOAJ@SHOW?5SLAVE?5STATUS?$AA@ 0047fd80     mysqlclient:libmysql.obj
 0002:00002d98       _deflate_copyright         0047fd98     mysqlclient:deflate.obj
 0002:000036f8       ??_C@_0BH@FGKKJGOC@incorrect?5length?5check?$AA@ 004806f8     mysqlclient:inflate.obj
 0002:00003710       ??_C@_0BF@MEIGEHBE@incorrect?5data?5check?$AA@ 00480710     mysqlclient:inflate.obj
 0002:00003728       ??_C@_0BO@ECPMAOGG@invalid?5distance?5too?5far?5back?$AA@ 00480728     mysqlclient:inflate.obj
 0002:00003748       ??_C@_0BG@LBKINIKP@invalid?5distance?5code?$AA@ 00480748     mysqlclient:inflate.obj
 0002:00003760       ??_C@_0BM@FFFLPBBC@invalid?5literal?1length?5code?$AA@ 00480760     mysqlclient:inflate.obj
 0002:0000377c       ??_C@_0BG@GMDFCBGP@invalid?5distances?5set?$AA@ 0048077c     mysqlclient:inflate.obj
 0002:00003794       ??_C@_0BK@BMMPFBBH@invalid?5bit?5length?5repeat?$AA@ 00480794     mysqlclient:inflate.obj
 0002:000037b0       ??_C@_0BM@IIMGAINC@invalid?5literal?1lengths?5set?$AA@ 004807b0     mysqlclient:inflate.obj
 0002:000037cc       ??_C@_0CE@GMIGFPBB@too?5many?5length?5or?5distance?5symb@ 004807cc     mysqlclient:inflate.obj
 0002:000037f0       ??_C@_0BJ@HDEPPGOH@invalid?5code?5lengths?5set?$AA@ 004807f0     mysqlclient:inflate.obj
 0002:0000380c       ??_C@_0BN@LGAADGOK@invalid?5stored?5block?5lengths?$AA@ 0048080c     mysqlclient:inflate.obj
 0002:0000382c       ??_C@_0BD@PJCBIDD@invalid?5block?5type?$AA@ 0048082c     mysqlclient:inflate.obj
 0002:00003840       ??_C@_0BE@GONKLEPM@header?5crc?5mismatch?$AA@ 00480840     mysqlclient:inflate.obj
 0002:00003854       ??_C@_0BJ@BLBBCOMO@unknown?5header?5flags?5set?$AA@ 00480854     mysqlclient:inflate.obj
 0002:00003870       ??_C@_0BH@LIBMMIGA@incorrect?5header?5check?$AA@ 00480870     mysqlclient:inflate.obj
 0002:00003888       ??_C@_0BE@EMOGCLGO@invalid?5window?5size?$AA@ 00480888     mysqlclient:inflate.obj
 0002:0000389c       ??_C@_0BL@IHKGDAEE@unknown?5compression?5method?$AA@ 0048089c     mysqlclient:inflate.obj
 0002:000038b8       ??_C@_0L@BBMDDOEP@latin1_bin?$AA@ 004808b8     mysqlclient:ctype-latin1.obj
 0002:000038c4       ??_C@_0BC@JEMPBIB@latin1_german2_ci?$AA@ 004808c4     mysqlclient:ctype-latin1.obj
 0002:000038d8       ??_C@_0KP@MJIINCCO@The?5number?5of?5columns?5in?5the?5res@ 004808d8     mysqlclient:errmsg.obj
 0002:00003988       ??_C@_0DO@EFIILPCK@Statement?5closed?5indirectly?5beca@ 00480988     mysqlclient:errmsg.obj
 0002:000039c8       ??_C@_0DK@NDNCLJNI@Lost?5connection?5to?5MySQL?5server?5@ 004809c8     mysqlclient:errmsg.obj
 0002:00003a04       ??_C@_0CE@HBOGEKGA@This?5feature?5is?5not?5implemented?5@ 00480a04     mysqlclient:errmsg.obj
 0002:00003a28       ??_C@_0FB@FBBFBAHN@Attempt?5to?5read?5a?5row?5while?5ther@ 00480a28     mysqlclient:errmsg.obj
 0002:00003a7c       ??_C@_0CI@HALOFLAE@Prepared?5statement?5contains?5no?5m@ 00480a7c     mysqlclient:errmsg.obj
 0002:00003aa4       ??_C@_0CP@CONJDJBD@Attempt?5to?5read?5column?5without?5p@ 00480aa4     mysqlclient:errmsg.obj
 0002:00003ad4       ??_C@_0DG@NCJJHECB@Row?5retrieval?5was?5canceled?5by?5my@ 00480ad4     mysqlclient:errmsg.obj
 0002:00003b10       ??_C@_0GH@LCEGFGKM@Connection?5using?5old?5?$CIpre?94?41?41?$CJ@ 00480b10     mysqlclient:errmsg.obj
 0002:00003b78       ??_C@_0BK@JMIMHFDF@Invalid?5connection?5handle?$AA@ 00480b78     mysqlclient:errmsg.obj
 0002:00003b94       ??_C@_0BK@GLFMEDLO@Wrong?5or?5unknown?5protocol?$AA@ 00480b94     mysqlclient:errmsg.obj
 0002:00003bb0       ??_C@_0EE@IPCCLOKB@Can?8t?5open?5shared?5memory?$DL?5cannot@ 00480bb0     mysqlclient:errmsg.obj
 0002:00003bf4       ??_C@_0DG@KGBHPOJD@Can?8t?5open?5shared?5memory?$DL?5no?5ans@ 00480bf4     mysqlclient:errmsg.obj
 0002:00003c30       ??_C@_0EB@MDFKCBGN@Can?8t?5open?5shared?5memory?$DL?5client@ 00480c30     mysqlclient:errmsg.obj
 0002:00003c78       ??_C@_0EN@FCGLLCJK@Can?8t?5open?5shared?5memory?$DL?5client@ 00480c78     mysqlclient:errmsg.obj
 0002:00003cc8       ??_C@_0EH@LNAOKCEE@Can?8t?5open?5shared?5memory?$DL?5client@ 00480cc8     mysqlclient:errmsg.obj
 0002:00003d10       ??_C@_0EN@PMIKFHIB@Can?8t?5open?5shared?5memory?$DL?5server@ 00480d10     mysqlclient:errmsg.obj
 0002:00003d60       ??_C@_0EH@KCLOIILK@Can?8t?5open?5shared?5memory?$DL?5server@ 00480d60     mysqlclient:errmsg.obj
 0002:00003da8       ??_C@_0EF@KIGDFHBB@Can?8t?5open?5shared?5memory?$DL?5no?5ans@ 00480da8     mysqlclient:errmsg.obj
 0002:00003df0       ??_C@_0EG@BEPMLGLN@Can?8t?5open?5shared?5memory?$DL?5client@ 00480df0     mysqlclient:errmsg.obj
 0002:00003e38       ??_C@_0BH@OHMIMHCN@Shared?5memory?3?5?$CF?9?4100s?$AA@ 00480e38     mysqlclient:errmsg.obj
 0002:00003e50       ??_C@_0DD@HBOCKDGH@Using?5unsupported?5buffer?5type?3?5?$CF@ 00480e50     mysqlclient:errmsg.obj
 0002:00003e88       ??_C@_0EK@GGAINION@Can?8t?5send?5long?5data?5for?5non?9str@ 00480e88     mysqlclient:errmsg.obj
 0002:00003ed4       ??_C@_0BJ@LEKCEENG@Invalid?5parameter?5number?$AA@ 00480ed4     mysqlclient:errmsg.obj
 0002:00003ef0       ??_C@_0CF@OAFCOHEP@No?5parameters?5exist?5in?5the?5state@ 00480ef0     mysqlclient:errmsg.obj
 0002:00003f18       ??_C@_0P@KJHDOAKM@Data?5truncated?$AA@ 00480f18     mysqlclient:errmsg.obj
 0002:00003f28       ??_C@_0DG@PGNJOEPP@No?5data?5supplied?5for?5parameters?5@ 00480f28     mysqlclient:errmsg.obj
 0002:00003f60       ??_C@_0BH@OCBFPEOC@Statement?5not?5prepared?$AA@ 00480f60     mysqlclient:errmsg.obj
 0002:00003f78       ??_C@_0BM@EEGCMMPG@Invalid?5use?5of?5null?5pointer?$AA@ 00480f78     mysqlclient:errmsg.obj
 0002:00003f98       ??_C@_0FE@HLHPGJMI@This?5client?5library?5is?5licensed?5@ 00480f98     mysqlclient:errmsg.obj
 0002:00003fec       ??_C@_0BB@DAKKIOKN@Malformed?5packet?$AA@ 00480fec     mysqlclient:errmsg.obj
 0002:00004000       ??_C@_0BF@GNKPEKCC@SSL?5connection?5error?$AA@ 00481000     mysqlclient:errmsg.obj
 0002:00004018       ??_C@_0BM@DBHHCLGE@Error?5connecting?5to?5master?3?$AA@ 00481018     mysqlclient:errmsg.obj
 0002:00004034       ??_C@_0BL@NMFPGPDF@Error?5connecting?5to?5slave?3?$AA@ 00481034     mysqlclient:errmsg.obj
 0002:00004050       ??_C@_0BL@BDOEBOAG@Error?5on?5SHOW?5SLAVE?5HOSTS?3?$AA@ 00481050     mysqlclient:errmsg.obj
 0002:0000406c       ??_C@_0BM@KEKCHGPI@Error?5on?5SHOW?5SLAVE?5STATUS?3?$AA@ 0048106c     mysqlclient:errmsg.obj
 0002:00004088       ??_C@_0BA@JILIEPGI@Embedded?5server?$AA@ 00481088     mysqlclient:errmsg.obj
 0002:00004098       ??_C@_0DC@PLGHDHHE@Got?5packet?5bigger?5than?5?8max_allo@ 00481098     mysqlclient:errmsg.obj
 0002:000040cc       ??_C@_0DG@MMIKLOLE@Can?8t?5initialize?5character?5set?5?$CF@ 004810cc     mysqlclient:errmsg.obj
 0002:00004108       ??_C@_0EC@JBHOMNCI@Can?8t?5set?5state?5of?5named?5pipe?5to@ 00481108     mysqlclient:errmsg.obj
 0002:0000414c       ??_C@_0DK@DGFLNGLM@Can?8t?5open?5named?5pipe?5to?5host?3?5?$CF@ 0048114c     mysqlclient:errmsg.obj
 0002:00004188       ??_C@_0DO@MCIKAJJD@Can?8t?5wait?5for?5named?5pipe?5to?5hos@ 00481188     mysqlclient:errmsg.obj
 0002:000041c8       ??_C@_0BD@MONBAMLI@Named?5pipe?3?5?$CF?9?432s?$AA@ 004811c8     mysqlclient:errmsg.obj
 0002:000041dc       ??_C@_0DF@GGAOFKDM@Commands?5out?5of?5sync?$DL?5you?5can?8t?5@ 004811dc     mysqlclient:errmsg.obj
 0002:00004214       ??_C@_0CN@MCPHLMHK@Lost?5connection?5to?5MySQL?5server?5@ 00481214     mysqlclient:errmsg.obj
 0002:00004244       ??_C@_0BK@OPFAEJOB@Error?5in?5server?5handshake?$AA@ 00481244     mysqlclient:errmsg.obj
 0002:00004260       ??_C@_0BD@JHCOEEJ@?$CF?9?4100s?5via?5TCP?1IP?$AA@ 00481260     mysqlclient:errmsg.obj
 0002:00004274       ??_C@_0BK@OAJGGGIC@Localhost?5via?5UNIX?5socket?$AA@ 00481274     mysqlclient:errmsg.obj
 0002:00004290       ??_C@_0BA@OBGODAJN@Wrong?5host?5info?$AA@ 00481290     mysqlclient:errmsg.obj
 0002:000042a0       ??_C@_0BP@LPGLBKOF@MySQL?5client?5ran?5out?5of?5memory?$AA@ 004812a0     mysqlclient:errmsg.obj
 0002:000042c0       ??_C@_0DM@BHKAADIN@Protocol?5mismatch?$DL?5server?5versio@ 004812c0     mysqlclient:errmsg.obj
 0002:000042fc       ??_C@_0BL@GGNHAOJF@MySQL?5server?5has?5gone?5away?$AA@ 004812fc     mysqlclient:errmsg.obj
 0002:00004318       ??_C@_0CJ@MGNDPAC@Unknown?5MySQL?5server?5host?5?8?$CF?9?410@ 00481318     mysqlclient:errmsg.obj
 0002:00004344       ??_C@_0CA@NNJEMGCD@Can?8t?5create?5TCP?1IP?5socket?5?$CI?$CFd?$CJ?$AA@ 00481344     mysqlclient:errmsg.obj
 0002:00004364       ??_C@_0DA@DGOLCCI@Can?8t?5connect?5to?5MySQL?5server?5on@ 00481364     mysqlclient:errmsg.obj
 0002:00004398       ??_C@_0EC@FCNCJBBO@Can?8t?5connect?5to?5local?5MySQL?5ser@ 00481398     mysqlclient:errmsg.obj
 0002:000043dc       ??_C@_0BO@EGFBLII@Can?8t?5create?5UNIX?5socket?5?$CI?$CFd?$CJ?$AA@ 004813dc     mysqlclient:errmsg.obj
 0002:000043fc       ??_C@_0BE@OOMFAHBF@Unknown?5MySQL?5error?$AA@ 004813fc     mysqlclient:errmsg.obj
 0002:00004410       ??_C@_06OJHGLDPL@?$CInull?$CJ?$AA@ 00481410     mysqlclient:my_vsnprintf.obj
 0002:00004418       ??_C@_0M@GPMPBOKO@TCP?1IP?5?$CI?$CFd?$CJ?$AA@ 00481418     mysqlclient:vio.obj
 0002:00004424       ??_C@_0M@BKHBDAGP@socket?5?$CI?$CFd?$CJ?$AA@ 00481424     mysqlclient:vio.obj
 0002:00004430       ??_C@_0L@BGAKJGHL@named?5pipe?$AA@ 00481430     mysqlclient:vio.obj
 0002:0000443c       ??_C@_0O@CPADDGOO@shared?5memory?$AA@ 0048143c     mysqlclient:vio.obj
 0002:0000444c       ??_C@_04BPFBOLGB@?4cnf?$AA@ 0048144c     mysqlclient:default.obj
 0002:00004454       ??_C@_04PHHEBHMK@?4ini?$AA@ 00481454     mysqlclient:default.obj
 0002:00004470       ??_C@_0BJ@KIKAGLAC@?9?9defaults?9group?9suffix?$DN?$AA@ 00481470     mysqlclient:default.obj
 0002:0000448c       ??_C@_0BH@HNKMCPPG@?9?9defaults?9extra?9file?$DN?$AA@ 0048148c     mysqlclient:default.obj
 0002:000044a4       ??_C@_0BB@LDHKPEKC@?9?9defaults?9file?$DN?$AA@ 004814a4     mysqlclient:default.obj
 0002:000044b8       ??_C@_0DM@LOBIDFGL@error?3?5Wrong?5?8?$CB?$CFs?8?5directive?5in?5@ 004814b8     mysqlclient:default.obj
 0002:000044f4       ??_C@_09FJGNFLHN@?2System32?$AA@ 004814f4     mysqlclient:default.obj
 0002:00004500       ??_C@_0N@MDJJJHMB@kernel32?4dll?$AA@ 00481500     mysqlclient:default.obj
 0002:00004510       ??_C@_0BL@CAKPALPI@GetSystemWindowsDirectoryA?$AA@ 00481510     mysqlclient:default.obj
 0002:0000452c       ??_C@_0L@DODNGCIN@MYSQL_HOME?$AA@ 0048152c     mysqlclient:default.obj
 0002:00004538       ??_C@_03GMPKIPBL@C?3?1?$AA@ 00481538     mysqlclient:default.obj
 0002:00004540       ??_C@_0EM@DMHOPFHM@error?3?5Found?5option?5without?5prec@ 00481540     mysqlclient:default.obj
 0002:0000458c       ??_C@_0DN@MBLPBICC@error?3?5Wrong?5group?5definition?5in@ 0048158c     mysqlclient:default.obj
 0002:000045cc       ??_C@_02BAABKJLB@?9?9?$AA@ 004815cc     mysqlclient:default.obj
 0002:000045d0       ??_C@_0GG@GBLJMDFL@Warning?3?5skipping?5?8?$CFs?8?5directive@ 004815d0     mysqlclient:default.obj
 0002:00004638       ??_C@_0DD@BMIFLCG@Fatal?5error?5in?5defaults?5handling@ 00481638     mysqlclient:default.obj
 0002:0000466c       ??_C@_0CL@DPGKONAJ@Could?5not?5open?5required?5defaults@ 0048166c     mysqlclient:default.obj
 0002:00004698       ??_C@_0BD@GMCINPDE@MYSQL_GROUP_SUFFIX?$AA@ 00481698     mysqlclient:default.obj
 0002:000046ac       ??_C@_03IKGEINEE@?$CFs?5?$AA@ 004816ac     mysqlclient:default.obj
 0002:000046b0       ??_C@_0DK@MHCNAEBD@?$CFs?5would?5have?5been?5started?5with?5@ 004816b0     mysqlclient:default.obj
 0002:000046ec       ??_C@_0BB@BKNLJB@?9?9print?9defaults?$AA@ 004816ec     mysqlclient:default.obj
 0002:00004700       ??_C@_08LMJEPNLL@defaults?$AA@ 00481700     mysqlclient:default.obj
 0002:0000470c       ??_C@_0O@LNAGOGFC@?9?9no?9defaults?$AA@ 0048170c     mysqlclient:default.obj
 0002:0000471c       ??_C@_0P@GHFPNOJB@bad?5allocation?$AA@ 0048171c     mysqlclient:ssl.obj
 0002:00004734       ??_7Message@yaSSL@@6B@     00481734     mysqlclient:ssl.obj
 0002:00004750       ??_7HandShakeBase@yaSSL@@6B@ 00481750     mysqlclient:ssl.obj
 0002:00004768       ??_7HASH@TaoCrypt@@6B@     00481768     mysqlclient:ssl.obj
 0002:00004784       ??_7MD5@TaoCrypt@@6B@      00481784     mysqlclient:ssl.obj
 0002:000047a8       ??_C@_03GCGHEHKJ@MD5?$AA@  004817a8     mysqlclient:ssl.obj
 0002:000047ac       ??_C@_0N@MLDFENGJ@DES?9EDE3?9CBC?$AA@ 004817ac     mysqlclient:ssl.obj
 0002:000047bc       ??_C@_0M@FOEEEMFG@AES?9256?9CBC?$AA@ 004817bc     mysqlclient:ssl.obj
 0002:000047c8       ??_C@_0M@IMPKGDNH@AES?9192?9CBC?$AA@ 004817c8     mysqlclient:ssl.obj
 0002:000047d4       ??_C@_0M@CPGGBEEL@AES?9128?9CBC?$AA@ 004817d4     mysqlclient:ssl.obj
 0002:000047e0       ??_C@_07LDJJJFAI@DES?9CBC?$AA@ 004817e0     mysqlclient:ssl.obj
 0002:000047e8       ??_C@_02JDPG@rb?$AA@       004817e8     mysqlclient:ssl.obj
 0002:000047ec       ??_C@_01KICIPPFI@?2?$AA@   004817ec     mysqlclient:ssl.obj
 0002:000047f0       ??_C@_02KHDDNBB@?2?$CK?$AA@ 004817f0     mysqlclient:ssl.obj
 0002:000047f4       ??_C@_07OCFLHCIN@RC4?9MD5?$AA@ 004817f4     mysqlclient:ssl.obj
 0002:000047fc       ??_C@_07BANEBHLH@RC4?9SHA?$AA@ 004817fc     mysqlclient:ssl.obj
 0002:00004804       ??_C@_0M@LLIFGIFE@DES?9CBC?9SHA?$AA@ 00481804     mysqlclient:ssl.obj
 0002:00004810       ??_C@_0N@HCCILIJF@DES?9CBC3?9SHA?$AA@ 00481810     mysqlclient:ssl.obj
 0002:00004820       ??_C@_0BE@COMFBKAK@EDH?9DSS?9DES?9CBC?9SHA?$AA@ 00481820     mysqlclient:ssl.obj
 0002:00004834       ??_C@_0BF@POGOIEBE@EDH?9DSS?9DES?9CBC3?9SHA?$AA@ 00481834     mysqlclient:ssl.obj
 0002:0000484c       ??_C@_0BE@BMKPLFLB@EDH?9RSA?9DES?9CBC?9SHA?$AA@ 0048184c     mysqlclient:ssl.obj
 0002:00004860       ??_C@_0BF@KCOPIELP@EDH?9RSA?9DES?9CBC3?9SHA?$AA@ 00481860     mysqlclient:ssl.obj
 0002:00004878       ??_C@_0L@FJECLCPG@AES128?9SHA?$AA@ 00481878     mysqlclient:ssl.obj
 0002:00004884       ??_C@_0BD@HPNPDEHO@DHE?9DSS?9AES128?9SHA?$AA@ 00481884     mysqlclient:ssl.obj
 0002:00004898       ??_C@_0BD@MNBMGMFC@DHE?9RSA?9AES128?9SHA?$AA@ 00481898     mysqlclient:ssl.obj
 0002:000048ac       ??_C@_0L@CIGAOKOL@AES256?9SHA?$AA@ 004818ac     mysqlclient:ssl.obj
 0002:000048b8       ??_C@_0BD@OPNGMGD@DHE?9DSS?9AES256?9SHA?$AA@ 004818b8     mysqlclient:ssl.obj
 0002:000048cc       ??_C@_0BD@LMDODEEP@DHE?9RSA?9AES256?9SHA?$AA@ 004818cc     mysqlclient:ssl.obj
 0002:000048e0       ??_C@_0BF@EGKJPLJF@DHE?9DSS?9DES?9CBC3?9RMD?$AA@ 004818e0     mysqlclient:ssl.obj
 0002:000048f8       ??_C@_0BD@LMNPGFLF@DHE?9DSS?9AES128?9RMD?$AA@ 004818f8     mysqlclient:ssl.obj
 0002:0000490c       ??_C@_0BD@MNPNDNKI@DHE?9DSS?9AES256?9RMD?$AA@ 0048190c     mysqlclient:ssl.obj
 0002:00004920       ??_C@_0BF@BKCIPLDO@DHE?9RSA?9DES?9CBC3?9RMD?$AA@ 00481920     mysqlclient:ssl.obj
 0002:00004938       ??_C@_0BD@OBMDNJJ@DHE?9RSA?9AES128?9RMD?$AA@ 00481938     mysqlclient:ssl.obj
 0002:0000494c       ??_C@_0BD@HPDOGFIE@DHE?9RSA?9AES256?9RMD?$AA@ 0048194c     mysqlclient:ssl.obj
 0002:00004960       ??_C@_0N@LBCIOJFO@DES?9CBC3?9RMD?$AA@ 00481960     mysqlclient:ssl.obj
 0002:00004970       ??_C@_0L@JKECODDN@AES128?9RMD?$AA@ 00481970     mysqlclient:ssl.obj
 0002:0000497c       ??_C@_0L@OLGALLCA@AES256?9RMD?$AA@ 0048197c     mysqlclient:ssl.obj
 0002:00004988       ??_C@_04LHHHFLPP@utf8?$AA@ 00481988     mysqlclient:charset.obj
 0002:00004990       ??_C@_04JKLLLNMI@ucs2?$AA@ 00481990     mysqlclient:charset.obj
 0002:00004998       ??_C@_09NKDKDEJM@charsets?1?$AA@ 00481998     mysqlclient:charset.obj
 0002:000049a4       ??_C@_0CJ@GPDDGFPJ@c?3?1Program?5Files?1MySQL?1MySQL?5Ser@ 004819a4     mysqlclient:charset.obj
 0002:000049d0       ??_C@_05KGKMKOAF@share?$AA@ 004819d0     mysqlclient:charset.obj
 0002:000049d8       ??_C@_09NJBIMGLE@Index?4xml?$AA@ 004819d8     mysqlclient:charset.obj
 0002:000049e4       ??_C@_04GAOAGNCM@?4xml?$AA@ 004819e4     mysqlclient:charset.obj
 0002:000049ec       ??_C@_05HPPBHLPE@cp932?$AA@ 004819ec     mysqlclient:charset.obj
 0002:000049f4       ??_C@_02GFBACKGC@cp?$AA@   004819f4     mysqlclient:charset.obj
 0002:000049f8       ??_C@_0BB@BIKLJNJD@Unknown?5error?5?$CFd?$AA@ 004819f8     mysqlclient:my_error.obj
 0002:00004a10       __real@41cfffffff800000    00481a10     mysqlclient:password.obj
 0002:00004a18       __real@4050000000000000    00481a18     mysqlclient:password.obj
 0002:00004a20       __real@403f000000000000    00481a20     mysqlclient:password.obj
 0002:00004a28       ??_C@_0BD@JKAKBJG@SSL_CTX_new?5failed?$AA@ 00481a28     mysqlclient:viosslfactories.obj
 0002:00004a3c       ??_C@_0BN@EHNEHPHI@Failed?5to?5set?5ciphers?5to?5use?$AA@ 00481a3c     mysqlclient:viosslfactories.obj
 0002:00004a5c       ??_C@_0CI@KGNJEOAP@SSL_CTX_set_default_verify_paths@ 00481a5c     mysqlclient:viosslfactories.obj
 0002:00004a84       ??_C@_0DG@IDILMGMM@Private?5key?5does?5not?5match?5the?5c@ 00481a84     mysqlclient:viosslfactories.obj
 0002:00004abc       ??_C@_0BK@OJIINBMD@Unable?5to?5get?5private?5key?$AA@ 00481abc     mysqlclient:viosslfactories.obj
 0002:00004ad8       ??_C@_0BK@DLGAGNNA@Unable?5to?5get?5certificate?$AA@ 00481ad8     mysqlclient:viosslfactories.obj
 0002:00004af4       ??_C@_08INEPGKHH@No?5error?$AA@ 00481af4     mysqlclient:viosslfactories.obj
 0002:00004b00       ??_C@_0P@PDGGPCGE@SSL?5error?3?5?$CFs?6?$AA@ 00481b00     mysqlclient:viosslfactories.obj
 0002:00004b10       ??_C@_0BJ@DBKDBMMN@SSL?5error?3?5?$CFs?5from?5?8?$CFs?8?6?$AA@ 00481b10     mysqlclient:viosslfactories.obj
 0002:00004b2c       ??_C@_09PFCHIMEP@127?40?40?41?$AA@ 00481b2c     mysqlclient:viosocket.obj
 0002:00004b38       ??_C@_01NEMOKFLO@?$DN?$AA@ 00481b38     mysqlclient:my_init.obj
 0002:00004b3c       ??_C@_0P@NEKPODBM@SOFTWARE?2MySQL?$AA@ 00481b3c     mysqlclient:my_init.obj
 0002:00004b4c       ??_C@_0L@LKJCDLMN@HAVE_TCPIP?$AA@ 00481b4c     mysqlclient:my_init.obj
 0002:00004b58       ??_C@_0DF@KNCKAEOE@SYSTEM?2CurrentControlSet?2Service@ 00481b58     mysqlclient:my_init.obj
 0002:00004b90       ??_C@_0DG@NPLBFMIJ@SYSTEM?2CurrentControlSet?2Service@ 00481b90     mysqlclient:my_init.obj
 0002:00004bc8       ??_C@_0DD@IKBMIFKO@SYSTEM?2CurrentControlSet?2Service@ 00481bc8     mysqlclient:my_init.obj
 0002:00004bfc       ??_C@_09KHPDOLMK@UMASK_DIR?$AA@ 00481bfc     mysqlclient:my_init.obj
 0002:00004c08       ??_C@_05OMMCGCJP@UMASK?$AA@ 00481c08     mysqlclient:my_init.obj
 0002:00004c10       ??_C@_04GHGFPGNC@HOME?$AA@ 00481c10     mysqlclient:my_init.obj
 0002:00004c18       ??_C@_0CE@CLEEBIJB@Can?8t?5initialize?5threads?3?5error?5@ 00481c18     mysqlclient:my_thr_init.obj
 0002:00004c3c       ??_C@_0CG@HMFJBFKL@Can?8t?5seek?5in?5file?5?8?$CFs?8?5?$CIErrcode@ 00481c3c     mysqlclient:errors.obj
 0002:00004c64       ??_C@_0DI@JALLKPON@Can?8t?5change?5permissions?5of?5the?5@ 00481c64     mysqlclient:errors.obj
 0002:00004c9c       ??_C@_0DG@LHNCLHDC@Can?8t?5change?5ownership?5of?5the?5fi@ 00481c9c     mysqlclient:errors.obj
 0002:00004cd4       ??_C@_0CG@OCCIMCJO@File?5?8?$CFs?8?5?$CIfileno?3?5?$CFd?$CJ?5was?5not?5c@ 00481cd4     mysqlclient:errors.obj
 0002:00004cfc       ??_C@_0CC@POIIBGBO@File?5?8?$CFs?8?5not?5found?5?$CIErrcode?3?5?$CFd@ 00481cfc     mysqlclient:errors.obj
 0002:00004d20       ??_C@_0FB@HBKGDBGI@Collation?5?8?$CFs?8?5is?5not?5a?5compiled@ 00481d20     mysqlclient:errors.obj
 0002:00004d74       ??_C@_0CL@IPPKDKJC@Can?8t?5sync?5file?5?8?$CFs?8?5to?5disk?5?$CIEr@ 00481d74     mysqlclient:errors.obj
 0002:00004da0       ??_C@_0CH@DMNLJIAN@Error?5on?5realpath?$CI?$CJ?5on?5?8?$CFs?8?5?$CIErr@ 00481da0     mysqlclient:errors.obj
 0002:00004dc8       ??_C@_0DG@MPBGHFJG@Can?8t?5create?5symlink?5?8?$CFs?8?5pointi@ 00481dc8     mysqlclient:errors.obj
 0002:00004e00       ??_C@_0CN@FDDHNKAL@Can?8t?5read?5value?5for?5symlink?5?8?$CFs@ 00481e00     mysqlclient:errors.obj
 0002:00004e30       ??_C@_0DG@HFJCEGGP@Out?5of?5resources?5when?5opening?5fi@ 00481e30     mysqlclient:errors.obj
 0002:00004e68       ??_C@_0FJ@LJEFGFHC@Character?5set?5?8?$CFs?8?5is?5not?5a?5comp@ 00481e68     mysqlclient:errors.obj
 0002:00004ec4       ??_C@_0CK@KAOBDLLK@Can?8t?5create?5directory?5?8?$CFs?8?5?$CIErr@ 00481ec4     mysqlclient:errors.obj
 0002:00004ef0       ??_C@_0JL@NKJOFGOC@Disk?5is?5full?5writing?5?8?$CFs?8?5?$CIErrco@ 00481ef0     mysqlclient:errors.obj
 0002:00004f8c       ??_C@_0CP@OFJOGNNM@Warning?3?5?$CFd?5files?5and?5?$CFd?5streams@ 00481f8c     mysqlclient:errors.obj
 0002:00004fbc       ??_C@_0BL@KPAFHPFA@Warning?3?5?8?$CFs?8?5had?5?$CFd?5links?$AA@ 00481fbc     mysqlclient:errors.obj
 0002:00004fd8       ??_C@_0CH@HKPCIIFI@Can?8t?5change?5dir?5to?5?8?$CFs?8?5?$CIErrcod@ 00481fd8     mysqlclient:errors.obj
 0002:00005000       ??_C@_0CJ@HHIGEGH@Can?8t?5get?5working?5dirctory?5?$CIErrc@ 00482000     mysqlclient:errors.obj
 0002:0000502c       ??_C@_0CM@IDOLEFDO@Can?8t?5open?5stream?5from?5handle?5?$CIE@ 0048202c     mysqlclient:errors.obj
 0002:00005058       ??_C@_0CI@JHPDBJAP@Can?8t?5change?5size?5of?5file?5?$CIErrco@ 00482058     mysqlclient:errors.obj
 0002:00005080       ??_C@_0CF@EBINEGNH@Can?8t?5get?5stat?5of?5?8?$CFs?8?5?$CIErrcode?3@ 00482080     mysqlclient:errors.obj
 0002:000050a8       ??_C@_0CF@DKKFLCIK@Can?8t?5read?5dir?5of?5?8?$CFs?8?5?$CIErrcode?3@ 004820a8     mysqlclient:errors.obj
 0002:000050d0       ??_C@_0CA@NMCGOICJ@Can?8t?5unlock?5file?5?$CIErrcode?3?5?$CFd?$CJ?$AA@ 004820d0     mysqlclient:errors.obj
 0002:000050f0       ??_C@_0BO@FABCFMMA@Can?8t?5lock?5file?5?$CIErrcode?3?5?$CFd?$CJ?$AA@ 004820f0     mysqlclient:errors.obj
 0002:00005110       ??_C@_0DK@OPEJLFLC@Unexpected?5eof?5found?5when?5readin@ 00482110     mysqlclient:errors.obj
 0002:0000514c       ??_C@_0CO@NDIKPEAP@Error?5on?5rename?5of?5?8?$CFs?8?5to?5?8?$CFs?8?5@ 0048214c     mysqlclient:errors.obj
 0002:0000517c       ??_C@_0CG@LPKMPJNP@Error?5on?5delete?5of?5?8?$CFs?8?5?$CIErrcode@ 0048217c     mysqlclient:errors.obj
 0002:000051a4       ??_C@_0CA@NLHLMAKD@Out?5of?5memory?5?$CINeeded?5?$CFu?5bytes?$CJ?$AA@ 004821a4     mysqlclient:errors.obj
 0002:000051c4       ??_C@_0CF@BEDBELLH@Error?5on?5close?5of?5?8?$CFs?8?5?$CIErrcode?3@ 004821c4     mysqlclient:errors.obj
 0002:000051ec       ??_C@_0CG@CGPFOMKP@Error?5writing?5file?5?8?$CFs?8?5?$CIErrcode@ 004821ec     mysqlclient:errors.obj
 0002:00005214       ??_C@_0CG@NONCHHAM@Error?5reading?5file?5?8?$CFs?8?5?$CIErrcode@ 00482214     mysqlclient:errors.obj
 0002:0000523c       ??_C@_0CO@OHAAEPNE@Can?8t?5create?1write?5to?5file?5?8?$CFs?8?5@ 0048223c     mysqlclient:errors.obj
 0002:00005270       ??_C@_01JOAMLHOP@?9?$AA@   00482270     mysqlclient:my_time.obj
 0002:000058c0       __dist_code                004828c0     mysqlclient:trees.obj
 0002:00005ac0       __length_code              00482ac0     mysqlclient:trees.obj
 0002:00007cb0       ??_C@_0BF@CJFPCCEG@incompatible?5version?$AA@ 00484cb0     mysqlclient:zutil.obj
 0002:00007cc8       ??_C@_0N@DFPGLBGC@buffer?5error?$AA@ 00484cc8     mysqlclient:zutil.obj
 0002:00007cd8       ??_C@_0BE@OGGJBMCE@insufficient?5memory?$AA@ 00484cd8     mysqlclient:zutil.obj
 0002:00007cec       ??_C@_0L@HAHMBNLP@data?5error?$AA@ 00484cec     mysqlclient:zutil.obj
 0002:00007cf8       ??_C@_0N@MKKNPMJD@stream?5error?$AA@ 00484cf8     mysqlclient:zutil.obj
 0002:00007d08       ??_C@_0L@KIJFAKBJ@file?5error?$AA@ 00484d08     mysqlclient:zutil.obj
 0002:00007d14       ??_C@_0L@FNAOCBOG@stream?5end?$AA@ 00484d14     mysqlclient:zutil.obj
 0002:00007d20       ??_C@_0BA@MOKMMFOD@need?5dictionary?$AA@ 00484d20     mysqlclient:zutil.obj
 0002:00007d30       _z_errmsg                  00484d30     mysqlclient:zutil.obj
 0002:00007d58       _inflate_copyright         00484d58     mysqlclient:inftrees.obj
 0002:00007e88       ??_C@_06FNFBAEBE@binary?$AA@ 00484e88     mysqlclient:ctype-bin.obj
 0002:00007e90       ??_C@_08BABJIOEM@filename?$AA@ 00484e90     mysqlclient:ctype-utf8.obj
 0002:00007e9c       ??_C@_08BMIDNPKK@utf8_bin?$AA@ 00484e9c     mysqlclient:ctype-utf8.obj
 0002:00007ea8       ??_C@_0BJ@OBCBHDLG@utf8_general_mysql500_ci?$AA@ 00484ea8     mysqlclient:ctype-utf8.obj
 0002:00007ec4       ??_C@_0BA@JGAHNPHO@utf8_general_ci?$AA@ 00484ec4     mysqlclient:ctype-utf8.obj
 0002:00007ed4       ??_C@_0BB@JCEFLFJE@0123456789abcdef?$AA@ 00484ed4     mysqlclient:ctype-utf8.obj
 0002:00007f0c       ??_C@_07MIJDMBL@GGGGGGG?$AA@ 00484f0c     mysqlclient:yassl_int.obj
 0002:00007f14       ??_C@_06CHLBDKEK@FFFFFF?$AA@ 00484f14     mysqlclient:yassl_int.obj
 0002:00007f1c       ??_C@_05NGCOEONO@EEEEE?$AA@ 00484f1c     mysqlclient:yassl_int.obj
 0002:00007f24       ??_C@_03POJCPIGP@CCC?$AA@  00484f24     mysqlclient:yassl_int.obj
 0002:00007f28       ??_C@_09IKAJMJIH@yaSSL?4log?$AA@ 00484f28     mysqlclient:yassl_int.obj
 0002:00007f34       ??_C@_0BL@LPICHLF@01230120022455012623010202?$AA@ 00484f34     mysqlclient:my_static.obj
 0002:00007f50       ??_C@_02DJGKEECL@?4?4?$AA@ 00484f50     mysqlclient:mf_pack.obj
 0002:00007f54       ??_C@_04LFNFNAMA@?4sym?$AA@ 00484f54     mysqlclient:mf_pack.obj
 0002:00007f64       ??_7Digest@yaSSL@@6B@      00484f64     mysqlclient:crypto_wrapper.obj
 0002:00007f80       ??_7BulkCipher@yaSSL@@6B@  00484f80     mysqlclient:crypto_wrapper.obj
 0002:00007fa4       ??_7Auth@yaSSL@@6B@        00484fa4     mysqlclient:crypto_wrapper.obj
 0002:00007fb8       ??_7SHA@TaoCrypt@@6B@      00484fb8     mysqlclient:crypto_wrapper.obj
 0002:00007fe0       ??_7RIPEMD160@TaoCrypt@@6B@ 00484fe0     mysqlclient:crypto_wrapper.obj
 0002:00008008       ??_7Mode_BASE@TaoCrypt@@6B@ 00485008     mysqlclient:crypto_wrapper.obj
 0002:00008018       ??_7DES@TaoCrypt@@6B@      00485018     mysqlclient:crypto_wrapper.obj
 0002:00008028       ??_7DES_EDE3@TaoCrypt@@6B@ 00485028     mysqlclient:crypto_wrapper.obj
 0002:00008038       ??_7AES@TaoCrypt@@6B@      00485038     mysqlclient:crypto_wrapper.obj
 0002:00008048       ??_7MD5@yaSSL@@6B@         00485048     mysqlclient:crypto_wrapper.obj
 0002:00008064       ??_7SHA@yaSSL@@6B@         00485064     mysqlclient:crypto_wrapper.obj
 0002:00008080       ??_7RMD@yaSSL@@6B@         00485080     mysqlclient:crypto_wrapper.obj
 0002:0000809c       ??_7RC4@yaSSL@@6B@         0048509c     mysqlclient:crypto_wrapper.obj
 0002:000080c0       ??_7AES@yaSSL@@6B@         004850c0     mysqlclient:crypto_wrapper.obj
 0002:000080e4       ??_7HMAC_MD5@yaSSL@@6B@    004850e4     mysqlclient:crypto_wrapper.obj
 0002:00008100       ??_7HMAC_SHA@yaSSL@@6B@    00485100     mysqlclient:crypto_wrapper.obj
 0002:0000811c       ??_7HMAC_RMD@yaSSL@@6B@    0048511c     mysqlclient:crypto_wrapper.obj
 0002:00008138       ??_7DES@yaSSL@@6B@         00485138     mysqlclient:crypto_wrapper.obj
 0002:0000815c       ??_7DES_EDE@yaSSL@@6B@     0048515c     mysqlclient:crypto_wrapper.obj
 0002:00008180       ??_7DSS@yaSSL@@6B@         00485180     mysqlclient:crypto_wrapper.obj
 0002:00008194       ??_7RSA@yaSSL@@6B@         00485194     mysqlclient:crypto_wrapper.obj
 0002:000081a4       ??_C@_01LIIJDEN@?$AN?$AA@  004851a4     mysqlclient:crypto_wrapper.obj
 0002:000081a8       ??_C@_03BKNEFOAH@AES?$AA@  004851a8     mysqlclient:crypto_wrapper.obj
 0002:000081ac       ??_C@_01IHBHIGKO@?0?$AA@   004851ac     mysqlclient:crypto_wrapper.obj
 0002:000081b0       ??_C@_03CNAKKODF@DES?$AA@  004851b0     mysqlclient:crypto_wrapper.obj
 0002:000081b4       ??_C@_09OEEMHJLK@Proc?9Type?$AA@ 004851b4     mysqlclient:crypto_wrapper.obj
 0002:000081c0       ??_C@_0BO@KNLPBMJG@?9?9?9?9?9END?5RSA?5PRIVATE?5KEY?9?9?9?9?9?$AA@ 004851c0     mysqlclient:crypto_wrapper.obj
 0002:000081e0       ??_C@_0CA@PEOGIGIM@?9?9?9?9?9BEGIN?5RSA?5PRIVATE?5KEY?9?9?9?9?9?$AA@ 004851e0     mysqlclient:crypto_wrapper.obj
 0002:00008200       ??_C@_0BK@LPPAEOGJ@?9?9?9?9?9END?5CERTIFICATE?9?9?9?9?9?$AA@ 00485200     mysqlclient:crypto_wrapper.obj
 0002:0000821c       ??_C@_0BM@CPJANAAJ@?9?9?9?9?9BEGIN?5CERTIFICATE?9?9?9?9?9?$AA@ 0048521c     mysqlclient:crypto_wrapper.obj
 0002:0000823c       ??_7HASHwithTransform@TaoCrypt@@6B@ 0048523c     mysqlclient:hash.cpp.obj
 0002:00008270       ??_7HandShakeHeader@yaSSL@@6B@ 00485270     mysqlclient:yassl_imp.obj
 0002:0000828c       ??_7ServerKeyBase@yaSSL@@6B@ 0048528c     mysqlclient:yassl_imp.obj
 0002:000082a4       ??_7ClientKeyBase@yaSSL@@6B@ 004852a4     mysqlclient:yassl_imp.obj
 0002:000082bc       ??_7ClientDiffieHellmanPublic@yaSSL@@6B@ 004852bc     mysqlclient:yassl_imp.obj
 0002:000082d4       ??_7ChangeCipherSpec@yaSSL@@6B@ 004852d4     mysqlclient:yassl_imp.obj
 0002:000082f0       ??_7Alert@yaSSL@@6B@       004852f0     mysqlclient:yassl_imp.obj
 0002:0000830c       ??_7Data@yaSSL@@6B@        0048530c     mysqlclient:yassl_imp.obj
 0002:00008328       ??_7Certificate@yaSSL@@6B@ 00485328     mysqlclient:yassl_imp.obj
 0002:00008340       ??_7ServerHello@yaSSL@@6B@ 00485340     mysqlclient:yassl_imp.obj
 0002:00008358       ??_7ServerHelloDone@yaSSL@@6B@ 00485358     mysqlclient:yassl_imp.obj
 0002:00008370       ??_7ClientHello@yaSSL@@6B@ 00485370     mysqlclient:yassl_imp.obj
 0002:00008388       ??_7ServerKeyExchange@yaSSL@@6B@ 00485388     mysqlclient:yassl_imp.obj
 0002:000083a0       ??_7CertificateVerify@yaSSL@@6B@ 004853a0     mysqlclient:yassl_imp.obj
 0002:000083b8       ??_7ClientKeyExchange@yaSSL@@6B@ 004853b8     mysqlclient:yassl_imp.obj
 0002:000083d0       ??_7Finished@yaSSL@@6B@    004853d0     mysqlclient:yassl_imp.obj
 0002:000083e8       ??_7HelloRequest@yaSSL@@6B@ 004853e8     mysqlclient:yassl_imp.obj
 0002:00008400       ??_7RSA_Server@yaSSL@@6B@  00485400     mysqlclient:yassl_imp.obj
 0002:00008418       ??_7Fortezza_Server@yaSSL@@6B@ 00485418     mysqlclient:yassl_imp.obj
 0002:00008430       ??_7FortezzaKeys@yaSSL@@6B@ 00485430     mysqlclient:yassl_imp.obj
 0002:00008448       ??_7EncryptedPreMasterSecret@yaSSL@@6B@ 00485448     mysqlclient:yassl_imp.obj
 0002:0000845c       ??_C@_0BJ@MIAIEIAP@server?5denied?5resumption?$AA@ 0048545c     mysqlclient:yassl_imp.obj
 0002:00008478       ??_C@_0BG@NFGEHEFF@session?5lookup?5failed?$AA@ 00485478     mysqlclient:yassl_imp.obj
 0002:00008494       ??_7DH_Server@yaSSL@@6B@   00485494     mysqlclient:yassl_imp.obj
 0002:000084a8       ??_C@_04OKGDLNCL@NONE?$AA@ 004854a8     mysqlclient:yassl_imp.obj
 0002:000084b4       ??_7CertificateRequest@yaSSL@@6B@ 004854b4     mysqlclient:yassl_imp.obj
 0002:00008610       ??_C@_0CD@LKLOKDOO@charsets?1charset?1collation?1rules@ 00485610     mysqlclient:ctype.obj
 0002:00008634       ??_C@_0CD@PFPPDFCJ@charsets?1charset?1collation?1rules@ 00485634     mysqlclient:ctype.obj
 0002:00008658       ??_C@_0CD@NONCGGOK@charsets?1charset?1collation?1rules@ 00485658     mysqlclient:ctype.obj
 0002:0000867c       ??_C@_0CH@EHCCKNPN@charsets?1charset?1collation?1rules@ 0048567c     mysqlclient:ctype.obj
 0002:000086a4       ??_C@_0BP@MDNMPBHP@charsets?1charset?1collation?1map?$AA@ 004856a4     mysqlclient:ctype.obj
 0002:000086c4       ??_C@_0CA@HCJLGNLH@charsets?1charset?1collation?1flag?$AA@ 004856c4     mysqlclient:ctype.obj
 0002:000086e4       ??_C@_0CB@IEPLPKEB@charsets?1charset?1collation?1order@ 004856e4     mysqlclient:ctype.obj
 0002:00008708       ??_C@_0BO@PKAEPDFI@charsets?1charset?1collation?1id?$AA@ 00485708     mysqlclient:ctype.obj
 0002:00008728       ??_C@_0CA@ILKNGFEN@charsets?1charset?1collation?1name?$AA@ 00485728     mysqlclient:ctype.obj
 0002:00008748       ??_C@_0BL@JFMDNPGN@charsets?1charset?1collation?$AA@ 00485748     mysqlclient:ctype.obj
 0002:00008764       ??_C@_0BN@PEPOLNOE@charsets?1charset?1unicode?1map?$AA@ 00485764     mysqlclient:ctype.obj
 0002:00008784       ??_C@_0BJ@KHPKNFM@charsets?1charset?1unicode?$AA@ 00485784     mysqlclient:ctype.obj
 0002:000087a0       ??_C@_0BL@ELLNOHCD@charsets?1charset?1lower?1map?$AA@ 004857a0     mysqlclient:ctype.obj
 0002:000087bc       ??_C@_0BH@HBDHNKIJ@charsets?1charset?1lower?$AA@ 004857bc     mysqlclient:ctype.obj
 0002:000087d4       ??_C@_0BL@OJLKMJLI@charsets?1charset?1upper?1map?$AA@ 004857d4     mysqlclient:ctype.obj
 0002:000087f0       ??_C@_0BH@CKIJLBDA@charsets?1charset?1upper?$AA@ 004857f0     mysqlclient:ctype.obj
 0002:00008808       ??_C@_0BL@KKJMPDHK@charsets?1charset?1ctype?1map?$AA@ 00485808     mysqlclient:ctype.obj
 0002:00008824       ??_C@_0BH@GIOAFMPB@charsets?1charset?1ctype?$AA@ 00485824     mysqlclient:ctype.obj
 0002:0000883c       ??_C@_0BH@CENNAKLG@charsets?1charset?1alias?$AA@ 0048583c     mysqlclient:ctype.obj
 0002:00008854       ??_C@_0BN@LLOCCHFI@charsets?1charset?1description?$AA@ 00485854     mysqlclient:ctype.obj
 0002:00008874       ??_C@_0BI@ICKMEODO@charsets?1charset?1family?$AA@ 00485874     mysqlclient:ctype.obj
 0002:0000888c       ??_C@_0BG@LDPKBCKB@charsets?1charset?1name?$AA@ 0048588c     mysqlclient:ctype.obj
 0002:000088a4       ??_C@_0BL@LNCPEELC@charsets?1charset?1binary?9id?$AA@ 004858a4     mysqlclient:ctype.obj
 0002:000088c0       ??_C@_0BM@NDJFGPHG@charsets?1charset?1primary?9id?$AA@ 004858c0     mysqlclient:ctype.obj
 0002:000088dc       ??_C@_0BB@MPLJNAOI@charsets?1charset?$AA@ 004858dc     mysqlclient:ctype.obj
 0002:000088f0       ??_C@_0BA@NFCJBDGG@charsets?1max?9id?$AA@ 004858f0     mysqlclient:ctype.obj
 0002:00008900       ??_C@_08PBFNHBDC@charsets?$AA@ 00485900     mysqlclient:ctype.obj
 0002:0000890c       ??_C@_0N@JABJMIAL@xml?1encoding?$AA@ 0048590c     mysqlclient:ctype.obj
 0002:0000891c       ??_C@_0M@BOENADBE@xml?1version?$AA@ 0048591c     mysqlclient:ctype.obj
 0002:00008928       ??_C@_03PJHHNEEI@xml?$AA@  00485928     mysqlclient:ctype.obj
 0002:0000892c       ??_C@_04HHCDBDLF@?5?7?$AN?6?$AA@ 0048592c     mysqlclient:ctype.obj
 0002:00008934       ??_C@_06NOJLBGIH@?5?$CFs?5?$CFs?$AA@ 00485934     mysqlclient:ctype.obj
 0002:0000893c       ??_C@_03DKMEACPB@?$DM?$DM?$DM?$AA@ 0048593c     mysqlclient:ctype.obj
 0002:00008940       ??_C@_02FODMEDOG@?$DM?$DM?$AA@ 00485940     mysqlclient:ctype.obj
 0002:00008944       ??_C@_01MNNFJEPP@?$DM?$AA@ 00485944     mysqlclient:ctype.obj
 0002:00008948       ??_C@_01HNPIGOCE@?$CG?$AA@ 00485948     mysqlclient:ctype.obj
 0002:0000894c       ??_C@_08DOMPDOCM@compiled?$AA@ 0048594c     mysqlclient:ctype.obj
 0002:00008958       ??_C@_07CJDBHDIN@primary?$AA@ 00485958     mysqlclient:ctype.obj
 0002:00008960       ??_C@_0BC@FAACCCJD@utf8_hungarian_ci?$AA@ 00485960     mysqlclient:ctype-uca.obj
 0002:00008974       ??_C@_0BC@MMMDBEJH@utf8_esperanto_ci?$AA@ 00485974     mysqlclient:ctype-uca.obj
 0002:00008988       ??_C@_0BA@POPDBMKL@utf8_persian_ci?$AA@ 00485988     mysqlclient:ctype-uca.obj
 0002:00008998       ??_C@_0O@JCIJCIKH@utf8_roman_ci?$AA@ 00485998     mysqlclient:ctype-uca.obj
 0002:000089a8       ??_C@_0BB@DMDMGDOP@utf8_spanish2_ci?$AA@ 004859a8     mysqlclient:ctype-uca.obj
 0002:000089bc       ??_C@_0P@NIJBPDBH@utf8_slovak_ci?$AA@ 004859bc     mysqlclient:ctype-uca.obj
 0002:000089cc       ??_C@_0BD@MHPAIICH@utf8_lithuanian_ci?$AA@ 004859cc     mysqlclient:ctype-uca.obj
 0002:000089e0       ??_C@_0P@LICOLLCI@utf8_danish_ci?$AA@ 004859e0     mysqlclient:ctype-uca.obj
 0002:000089f0       ??_C@_0O@OMAOFLBG@utf8_czech_ci?$AA@ 004859f0     mysqlclient:ctype-uca.obj
 0002:00008a00       ??_C@_0BA@HIEJCGP@utf8_turkish_ci?$AA@ 00485a00     mysqlclient:ctype-uca.obj
 0002:00008a10       ??_C@_0BA@DLMLGKMF@utf8_swedish_ci?$AA@ 00485a10     mysqlclient:ctype-uca.obj
 0002:00008a20       ??_C@_0BA@BFDLDMHI@utf8_spanish_ci?$AA@ 00485a20     mysqlclient:ctype-uca.obj
 0002:00008a30       ??_C@_0BB@IDIAKKIG@utf8_estonian_ci?$AA@ 00485a30     mysqlclient:ctype-uca.obj
 0002:00008a44       ??_C@_0P@BMIMEGFF@utf8_polish_ci?$AA@ 00485a44     mysqlclient:ctype-uca.obj
 0002:00008a54       ??_C@_0BC@ONGHKMPJ@utf8_slovenian_ci?$AA@ 00485a54     mysqlclient:ctype-uca.obj
 0002:00008a68       ??_C@_0BB@EMJFIJEJ@utf8_romanian_ci?$AA@ 00485a68     mysqlclient:ctype-uca.obj
 0002:00008a7c       ??_C@_0BA@GIAOJNDD@utf8_latvian_ci?$AA@ 00485a7c     mysqlclient:ctype-uca.obj
 0002:00008a8c       ??_C@_0BC@OLHAMMMB@utf8_icelandic_ci?$AA@ 00485a8c     mysqlclient:ctype-uca.obj
 0002:00008aa0       ??_C@_0BA@GBKHDDAB@utf8_unicode_ci?$AA@ 00485aa0     mysqlclient:ctype-uca.obj
 0002:00008ab0       ??_C@_0BC@JMLAFJDL@ucs2_hungarian_ci?$AA@ 00485ab0     mysqlclient:ctype-uca.obj
 0002:00008ac4       ??_C@_0BC@HBGPDP@ucs2_esperanto_ci?$AA@ 00485ac4     mysqlclient:ctype-uca.obj
 0002:00008ad8       ??_C@_0BA@PJNOLINJ@ucs2_persian_ci?$AA@ 00485ad8     mysqlclient:ctype-uca.obj
 0002:00008ae8       ??_C@_0O@CNOJEKEN@ucs2_roman_ci?$AA@ 00485ae8     mysqlclient:ctype-uca.obj
 0002:00008af8       ??_C@_0BB@ICDAFOFL@ucs2_spanish2_ci?$AA@ 00485af8     mysqlclient:ctype-uca.obj
 0002:00008b0c       ??_C@_0P@JIPBJIBD@ucs2_slovak_ci?$AA@ 00485b0c     mysqlclient:ctype-uca.obj
 0002:00008b1c       ??_C@_0BD@BPDBBBIG@ucs2_lithuanian_ci?$AA@ 00485b1c     mysqlclient:ctype-uca.obj
 0002:00008b30       ??_C@_0P@PIEONACM@ucs2_danish_ci?$AA@ 00485b30     mysqlclient:ctype-uca.obj
 0002:00008b40       ??_C@_0O@FDGODJPM@ucs2_czech_ci?$AA@ 00485b40     mysqlclient:ctype-uca.obj
 0002:00008b50       ??_C@_0BA@KJDGBN@ucs2_turkish_ci?$AA@ 00485b50     mysqlclient:ctype-uca.obj
 0002:00008b60       ??_C@_0BA@DMOGMOLH@ucs2_swedish_ci?$AA@ 00485b60     mysqlclient:ctype-uca.obj
 0002:00008b70       ??_C@_0BA@BCBGJIAK@ucs2_spanish_ci?$AA@ 00485b70     mysqlclient:ctype-uca.obj
 0002:00008b80       ??_C@_0BB@DNIMJHDC@ucs2_estonian_ci?$AA@ 00485b80     mysqlclient:ctype-uca.obj
 0002:00008b94       ??_C@_0P@FMOMCNFB@ucs2_polish_ci?$AA@ 00485b94     mysqlclient:ctype-uca.obj
 0002:00008ba4       ??_C@_0BC@CBNFNHFB@ucs2_slovenian_ci?$AA@ 00485ba4     mysqlclient:ctype-uca.obj
 0002:00008bb8       ??_C@_0BB@PCJJLEPN@ucs2_romanian_ci?$AA@ 00485bb8     mysqlclient:ctype-uca.obj
 0002:00008bcc       ??_C@_0BA@GPCDDJEB@ucs2_latvian_ci?$AA@ 00485bcc     mysqlclient:ctype-uca.obj
 0002:00008bdc       ??_C@_0BC@CHMCLHGJ@ucs2_icelandic_ci?$AA@ 00485bdc     mysqlclient:ctype-uca.obj
 0002:00008bf0       ??_C@_0BA@GGIKJHHD@ucs2_unicode_ci?$AA@ 00485bf0     mysqlclient:ctype-uca.obj
 0002:000098b8       ??_C@_0L@JHIJEIOB@?$CFs?5at?5?8?$CFs?8?$AA@ 004868b8     mysqlclient:ctype-uca.obj
 0002:000098c4       ??_C@_0L@BNFOJFGF@?$CG?5expected?$AA@ 004868c4     mysqlclient:ctype-uca.obj
 0002:000098d0       ??_C@_0BA@CIAPGHM@?$CG?5or?5?$DM?5expected?$AA@ 004868d0     mysqlclient:ctype-uca.obj
 0002:000098e0       ??_C@_0BE@OMJLCPFJ@Should?5never?5happen?$AA@ 004868e0     mysqlclient:ctype-uca.obj
 0002:000098f4       ??_C@_0P@MGHCGHFF@Too?5many?5rules?$AA@ 004868f4     mysqlclient:ctype-uca.obj
 0002:00009904       ??_C@_0BD@DBLGAKEN@character?5expected?$AA@ 00486904     mysqlclient:ctype-uca.obj
 0002:00009918       ??_C@_0BC@FMLIFBCF@Unknown?5character?$AA@ 00486918     mysqlclient:ctype-uca.obj
 0002:0000992c       ??_C@_09LKJGLAE@cp932_bin?$AA@ 0048692c     mysqlclient:ctype-cp932.obj
 0002:00009938       ??_C@_0BC@CHMDDICP@cp932_japanese_ci?$AA@ 00486938     mysqlclient:ctype-cp932.obj
 0002:0000994c       _sha_const_key             0048694c     mysqlclient:sha1.obj
 0002:00009970       ??_C@_08KKHFAPMN@UNOPENED?$AA@ 00486970     mysqlclient:my_div.obj
 0002:0000997c       ??_C@_04KOCLJNO@LPT9?$AA@  0048697c     mysqlclient:my_access.obj
 0002:00009984       ??_C@_04BDPJIIJP@LPT8?$AA@ 00486984     mysqlclient:my_access.obj
 0002:0000998c       ??_C@_04JEGBJEFA@LPT7?$AA@ 0048698c     mysqlclient:my_access.obj
 0002:00009994       ??_C@_04INHKKFBB@LPT6?$AA@ 00486994     mysqlclient:my_access.obj
 0002:0000999c       ??_C@_04KGFHPGNC@LPT5?$AA@ 0048699c     mysqlclient:my_access.obj
 0002:000099a4       ??_C@_04LPEMMHJD@LPT4?$AA@ 004869a4     mysqlclient:my_access.obj
 0002:000099ac       ??_C@_04PAANFBFE@LPT3?$AA@ 004869ac     mysqlclient:my_access.obj
 0002:000099b4       ??_C@_04OJBGGABF@LPT2?$AA@ 004869b4     mysqlclient:my_access.obj
 0002:000099bc       ??_C@_04MCDLDDNG@LPT1?$AA@ 004869bc     mysqlclient:my_access.obj
 0002:000099c4       ??_C@_04JDDPPBDJ@COM9?$AA@ 004869c4     mysqlclient:my_access.obj
 0002:000099cc       ??_C@_04IKCEMAHI@COM8?$AA@ 004869cc     mysqlclient:my_access.obj
 0002:000099d4       ??_C@_04NLMNMLH@COM7?$AA@  004869d4     mysqlclient:my_access.obj
 0002:000099dc       ??_C@_04BEKHONPG@COM6?$AA@ 004869dc     mysqlclient:my_access.obj
 0002:000099e4       ??_C@_04DPIKLODF@COM5?$AA@ 004869e4     mysqlclient:my_access.obj
 0002:000099ec       ??_C@_04CGJBIPHE@COM4?$AA@ 004869ec     mysqlclient:my_access.obj
 0002:000099f4       ??_C@_04GJNABJLD@COM3?$AA@ 004869f4     mysqlclient:my_access.obj
 0002:000099fc       ??_C@_04HAMLCIPC@COM2?$AA@ 004869fc     mysqlclient:my_access.obj
 0002:00009a04       ??_C@_04FLOGHLDB@COM1?$AA@ 00486a04     mysqlclient:my_access.obj
 0002:00009a0c       ??_C@_03JDMLODLP@NUL?$AA@  00486a0c     mysqlclient:my_access.obj
 0002:00009a10       ??_C@_03OFAGCELM@AUX?$AA@  00486a10     mysqlclient:my_access.obj
 0002:00009a14       ??_C@_03BEHELHBE@PRN?$AA@  00486a14     mysqlclient:my_access.obj
 0002:00009a18       ??_C@_03ECCGHPEG@CON?$AA@  00486a18     mysqlclient:my_access.obj
 0002:00009a1c       ??_C@_06LBMPDOLO@CLOCK$?$AA@ 00486a1c     mysqlclient:my_access.obj
 0002:00009a28       _log_10                    00486a28     mysqlclient:strtod.obj
 0002:0000a3d0       __real@7fefffffffffffff    004873d0     mysqlclient:strtod.obj
 0002:0000a3d8       __real@3ffcc359e067a348    004873d8     mysqlclient:strtod.obj
 0002:0000a3e0       __real@3ff0000000000000    004873e0     mysqlclient:strtod.obj
 0002:0000a414       ??_7MultiplicativeGroupT@AbstractRing@TaoCrypt@@6B@ 00487414     mysqlclient:integer.obj
 0002:0000a44c       ??_7ModularArithmetic@TaoCrypt@@6B@ 0048744c     mysqlclient:integer.obj
 0002:0000a4bc       ??_7MontgomeryRepresentation@TaoCrypt@@6B@ 004874bc     mysqlclient:integer.obj
 0002:0000a52c       ??_7EuclideanDomainOf@TaoCrypt@@6B@ 0048752c     mysqlclient:integer.obj
 0002:0000a918       ??_C@_0N@BDDFKIGD@GenuineIntel?$AA@ 00487918     mysqlclient:misc.obj
 0002:0000b1c0       ?Te@AES@TaoCrypt@@0QAY0BAA@$$CBIA 004881c0     mysqlclient:aes.obj
 0002:0000c5c0       ?Td@AES@TaoCrypt@@0QAY0BAA@$$CBIA 004895c0     mysqlclient:aes.obj
 0002:0000d9c4       ??_7BER_Decoder@TaoCrypt@@6B@ 0048a9c4     mysqlclient:dsa.obj
 0002:0000d9d0       ??_7DSA_Private_Decoder@TaoCrypt@@6B@ 0048a9d0     mysqlclient:dsa.obj
 0002:0000d9dc       ??_7DSA_Public_Decoder@TaoCrypt@@6B@ 0048a9dc     mysqlclient:dsa.obj
 0002:0000d9e8       __real@4014000000000000    0048a9e8     mysqlclient:dh.obj
 0002:0000d9f0       __real@4003333333333333    0048a9f0     mysqlclient:dh.obj
 0002:0000d9f8       __real@3fd5555555555555    0048a9f8     mysqlclient:dh.obj
 0002:0000da00       __real@3fe5555555555555    0048aa00     mysqlclient:dh.obj
 0002:0000da0c       ??_7RSA_Private_Decoder@TaoCrypt@@6B@ 0048aa0c     mysqlclient:rsa.obj
 0002:0000da18       ??_7RSA_Public_Decoder@TaoCrypt@@6B@ 0048aa18     mysqlclient:rsa.obj
 0002:0000da24       ??_7DER_Encoder@TaoCrypt@@6B@ 0048aa24     mysqlclient:asn.obj
 0002:0000da2c       ??_7CertDecoder@TaoCrypt@@6B@ 0048aa2c     mysqlclient:asn.obj
 0002:0000da34       ??_C@_0P@FGCJCCJK@?1emailAddress?$DN?$AA@ 0048aa34     mysqlclient:asn.obj
 0002:0000da44       ??_C@_04LJKEFMLJ@?1OU?$DN?$AA@ 0048aa44     mysqlclient:asn.obj
 0002:0000da4c       ??_C@_03DHMEBNMI@?1O?$DN?$AA@ 0048aa4c     mysqlclient:asn.obj
 0002:0000da50       ??_C@_04KCKJNOKJ@?1ST?$DN?$AA@ 0048aa50     mysqlclient:asn.obj
 0002:0000da58       ??_C@_03DFICKDJB@?1L?$DN?$AA@ 0048aa58     mysqlclient:asn.obj
 0002:0000da5c       ??_C@_03DONOOEKM@?1C?$DN?$AA@ 0048aa5c     mysqlclient:asn.obj
 0002:0000da60       ??_C@_04LDBIPIAP@?1SN?$DN?$AA@ 0048aa60     mysqlclient:asn.obj
 0002:0000da8c       ??_7Signature_Encoder@TaoCrypt@@6B@ 0048aa8c     mysqlclient:asn.obj
 0002:0000da90       ??_C@_0O@IDJJBCJJ@unknown?5token?$AA@ 0048aa90     mysqlclient:xml.obj
 0002:0000daa0       ??_C@_03BECJNG@?8?$CB?8?$AA@ 0048aaa0     mysqlclient:xml.obj
 0002:0000daa4       ??_C@_03BGKMKHKM@?8?$DP?8?$AA@ 0048aaa4     mysqlclient:xml.obj
 0002:0000daa8       ??_C@_04OEPMCOLO@TEXT?$AA@ 0048aaa8     mysqlclient:xml.obj
 0002:0000dab0       ??_C@_07JEDAPFNH@COMMENT?$AA@ 0048aab0     mysqlclient:xml.obj
 0002:0000dab8       ??_C@_03KIKAENM@?8?1?8?$AA@ 0048aab8     mysqlclient:xml.obj
 0002:0000dabc       ??_C@_03BHGOMNJL@?8?$DO?8?$AA@ 0048aabc     mysqlclient:xml.obj
 0002:0000dac0       ??_C@_03BEOKBJPF@?8?$DM?8?$AA@ 0048aac0     mysqlclient:xml.obj
 0002:0000dac4       ??_C@_03BFCIHDMC@?8?$DN?8?$AA@ 0048aac4     mysqlclient:xml.obj
 0002:0000dac8       ??_C@_05MLPNBPGH@CDATA?$AA@ 0048aac8     mysqlclient:xml.obj
 0002:0000dad0       ??_C@_05MDAAGLOE@IDENT?$AA@ 0048aad0     mysqlclient:xml.obj
 0002:0000dad8       ??_C@_06IGECGLFO@STRING?$AA@ 0048aad8     mysqlclient:xml.obj
 0002:0000dae0       ??_C@_0N@KFMDIEOD@END?9OF?9INPUT?$AA@ 0048aae0     mysqlclient:xml.obj
 0002:0000daf0       ??_C@_06NPFKMDPM@?$DP?$DN?1?$DM?$DO?$CB?$AA@ 0048aaf0     mysqlclient:xml.obj
 0002:0000daf8       ??_C@_09BLLNCBLF@?$DM?$CB?$FLCDATA?$FL?$AA@ 0048aaf8     mysqlclient:xml.obj
 0002:0000db04       ??_C@_03PNLDJJMO@?9?9?$DO?$AA@ 0048ab04     mysqlclient:xml.obj
 0002:0000db08       ??_C@_04FFDNBKGC@?$DM?$CB?9?9?$AA@ 0048ab08     mysqlclient:xml.obj
 0002:0000db10       ??_C@_0M@JHPIDPOK@To?5deep?5XML?$AA@ 0048ab10     mysqlclient:xml.obj
 0002:0000db1c       ??_C@_0CJ@FBAHKBHA@?8?$DM?1?$CFs?$DO?8?5unexpected?5?$CIEND?9OF?9INPUT@ 0048ab1c     mysqlclient:xml.obj
 0002:0000db48       ??_C@_0CE@HIBBMALO@?8?$DM?1?$CFs?$DO?8?5unexpected?5?$CI?8?$DM?1?$CFs?$DO?8?5want@ 0048ab48     mysqlclient:xml.obj
 0002:0000db6c       ??_C@_0CE@KDMBOGDF@?$CFs?5unexpected?5?$CIident?5or?5?8?1?8?5want@ 0048ab6c     mysqlclient:xml.obj
 0002:0000db90       ??_C@_0BL@DBFJAODI@?$CFs?5unexpected?5?$CI?8?$DP?8?5wanted?$CJ?$AA@ 0048ab90     mysqlclient:xml.obj
 0002:0000dbac       ??_C@_0CH@MBBDFLOA@?$CFs?5unexpected?5?$CIident?5or?5string?5w@ 0048abac     mysqlclient:xml.obj
 0002:0000dbd4       ??_C@_0BN@GIJBNIHN@?$CFs?5unexpected?5?$CIident?5wanted?$CJ?$AA@ 0048abd4     mysqlclient:xml.obj
 0002:0000dbf4       ??_C@_0BI@GOAECBLB@unexpected?5END?9OF?9INPUT?$AA@ 0048abf4     mysqlclient:xml.obj
 0002:0000dc0c       ??_C@_0BL@PANHNBPI@?$CFs?5unexpected?5?$CI?8?$DO?8?5wanted?$CJ?$AA@ 0048ac0c     mysqlclient:xml.obj
 0002:0000dc28       ??_C@_08POIAHHJH@ucs2_bin?$AA@ 0048ac28     mysqlclient:ctype-ucs2.obj
 0002:0000dc34       ??_C@_0BJ@KCBMBJHH@ucs2_general_mysql500_ci?$AA@ 0048ac34     mysqlclient:ctype-ucs2.obj
 0002:0000dc50       ??_C@_0BA@JBCKHLAM@ucs2_general_ci?$AA@ 0048ac50     mysqlclient:ctype-ucs2.obj
 0002:0000dc60       ??_C@_0BB@LGBJIEIE@cp1250_polish_ci?$AA@ 0048ac60     mysqlclient:ctype-extra.obj
 0002:0000dc74       ??_C@_0BC@DDCCPNHL@latin1_spanish_ci?$AA@ 0048ac74     mysqlclient:ctype-extra.obj
 0002:0000dc88       ??_C@_0M@DIHPIFMI@geostd8_bin?$AA@ 0048ac88     mysqlclient:ctype-extra.obj
 0002:0000dc94       ??_C@_0BD@IFKPCMBG@geostd8_general_ci?$AA@ 0048ac94     mysqlclient:ctype-extra.obj
 0002:0000dca8       ??_C@_07GCLBCFCK@geostd8?$AA@ 0048aca8     mysqlclient:ctype-extra.obj
 0002:0000dcb0       ??_C@_08CBKIAJIL@swe7_bin?$AA@ 0048acb0     mysqlclient:ctype-extra.obj
 0002:0000dcbc       ??_C@_09KENDFOKA@cp852_bin?$AA@ 0048acbc     mysqlclient:ctype-extra.obj
 0002:0000dcc8       ??_C@_09OJBLPPKL@cp850_bin?$AA@ 0048acc8     mysqlclient:ctype-extra.obj
 0002:0000dcd4       ??_C@_0L@MHJKNNFC@latin7_bin?$AA@ 0048acd4     mysqlclient:ctype-extra.obj
 0002:0000dce0       ??_C@_0L@IKFCHMFJ@latin5_bin?$AA@ 0048ace0     mysqlclient:ctype-extra.obj
 0002:0000dcec       ??_C@_0L@JHFHEMOB@latin2_bin?$AA@ 0048acec     mysqlclient:ctype-extra.obj
 0002:0000dcf8       ??_C@_09COHLDLLI@koi8u_bin?$AA@ 0048acf8     mysqlclient:ctype-extra.obj
 0002:0000dd04       ??_C@_09DDHOALAA@koi8r_bin?$AA@ 0048ad04     mysqlclient:ctype-extra.obj
 0002:0000dd10       ??_C@_0M@NJOCNGMA@keybcs2_bin?$AA@ 0048ad10     mysqlclient:ctype-extra.obj
 0002:0000dd1c       ??_C@_07KIGBPGH@hp8_bin?$AA@ 0048ad1c     mysqlclient:ctype-extra.obj
 0002:0000dd24       ??_C@_0L@INPMEGLK@hebrew_bin?$AA@ 0048ad24     mysqlclient:ctype-extra.obj
 0002:0000dd30       ??_C@_09EFLJIAMD@greek_bin?$AA@ 0048ad30     mysqlclient:ctype-extra.obj
 0002:0000dd3c       ??_C@_08EFBBJHIK@dec8_bin?$AA@ 0048ad3c     mysqlclient:ctype-extra.obj
 0002:0000dd48       ??_C@_09OKKAGCL@cp866_bin?$AA@ 0048ad48     mysqlclient:ctype-extra.obj
 0002:0000dd54       ??_C@_0L@OKMJAEHC@cp1256_bin?$AA@ 0048ad54     mysqlclient:ctype-extra.obj
 0002:0000dd60       ??_C@_0L@DMJAOHGP@cp1250_bin?$AA@ 0048ad60     mysqlclient:ctype-extra.obj
 0002:0000dd6c       ??_C@_09BDNLCGDP@ascii_bin?$AA@ 0048ad6c     mysqlclient:ctype-extra.obj
 0002:0000dd78       ??_C@_0N@KGPIBLHK@armscii8_bin?$AA@ 0048ad78     mysqlclient:ctype-extra.obj
 0002:0000dd88       ??_C@_0BC@BKAKKOKG@cp1257_general_ci?$AA@ 0048ad88     mysqlclient:ctype-extra.obj
 0002:0000dd9c       ??_C@_0L@CBJFNHNH@cp1257_bin?$AA@ 0048ad9c     mysqlclient:ctype-extra.obj
 0002:0000dda8       ??_C@_0BC@MHJMHHCD@cp1256_general_ci?$AA@ 0048ada8     mysqlclient:ctype-extra.obj
 0002:0000ddbc       ??_C@_06LODAGMCK@cp1256?$AA@ 0048adbc     mysqlclient:ctype-extra.obj
 0002:0000ddc4       ??_C@_0N@HBDGIFNG@macroman_bin?$AA@ 0048adc4     mysqlclient:ctype-extra.obj
 0002:0000ddd4       ??_C@_0BC@KMCILKA@cp1251_general_cs?$AA@ 0048add4     mysqlclient:ctype-extra.obj
 0002:0000dde8       ??_C@_0BC@LKOPHBHL@cp1251_general_ci?$AA@ 0048ade8     mysqlclient:ctype-extra.obj
 0002:0000ddfc       ??_C@_0L@PHMMDEMK@cp1251_bin?$AA@ 0048adfc     mysqlclient:ctype-extra.obj
 0002:0000de08       ??_C@_0BC@DDOEKG@latin1_general_cs?$AA@ 0048ae08     mysqlclient:ctype-extra.obj
 0002:0000de1c       ??_C@_0BC@LABOBOHN@latin1_general_ci?$AA@ 0048ae1c     mysqlclient:ctype-extra.obj
 0002:0000de30       ??_C@_0BD@LKINKBJP@cp1250_croatian_ci?$AA@ 0048ae30     mysqlclient:ctype-extra.obj
 0002:0000de44       ??_C@_09FIGDDDHD@macce_bin?$AA@ 0048ae44     mysqlclient:ctype-extra.obj
 0002:0000de50       ??_C@_0BC@KANGDLHL@latin7_general_cs?$AA@ 0048ae50     mysqlclient:ctype-extra.obj
 0002:0000de64       ??_C@_0BC@BAPLMBKA@latin7_general_ci?$AA@ 0048ae64     mysqlclient:ctype-extra.obj
 0002:0000de78       ??_C@_0BB@HEOOOPD@cp852_general_ci?$AA@ 0048ae78     mysqlclient:ctype-extra.obj
 0002:0000de8c       ??_C@_05MDMAGACD@cp852?$AA@ 0048ae8c     mysqlclient:ctype-extra.obj
 0002:0000de94       ??_C@_0BE@BLBOGAK@macroman_general_ci?$AA@ 0048ae94     mysqlclient:ctype-extra.obj
 0002:0000dea8       ??_C@_08DEGKPPEJ@macroman?$AA@ 0048aea8     mysqlclient:ctype-extra.obj
 0002:0000deb4       ??_C@_0BB@PFHIEKKE@macce_general_ci?$AA@ 0048aeb4     mysqlclient:ctype-extra.obj
 0002:0000dec8       ??_C@_05CFINKOFD@macce?$AA@ 0048aec8     mysqlclient:ctype-extra.obj
 0002:0000ded0       ??_C@_0BD@HLAPNNNE@keybcs2_general_ci?$AA@ 0048aed0     mysqlclient:ctype-extra.obj
 0002:0000dee4       ??_C@_07JDFJFNII@keybcs2?$AA@ 0048aee4     mysqlclient:ctype-extra.obj
 0002:0000deec       ??_C@_0BB@LLJGKBLO@cp866_general_ci?$AA@ 0048aeec     mysqlclient:ctype-extra.obj
 0002:0000df00       ??_C@_05KFOKBLHO@cp866?$AA@ 0048af00     mysqlclient:ctype-extra.obj
 0002:0000df08       ??_C@_0BE@ELHAPPLJ@armscii8_general_ci?$AA@ 0048af08     mysqlclient:ctype-extra.obj
 0002:0000df1c       ??_C@_08BDGJEDFB@armscii8?$AA@ 0048af1c     mysqlclient:ctype-extra.obj
 0002:0000df28       ??_C@_0BC@OBCEDJPK@latin5_turkish_ci?$AA@ 0048af28     mysqlclient:ctype-extra.obj
 0002:0000df3c       ??_C@_06EHCJAAPF@latin5?$AA@ 0048af3c     mysqlclient:ctype-extra.obj
 0002:0000df44       ??_C@_0BF@MPPNICJ@cp1257_lithuanian_ci?$AA@ 0048af44     mysqlclient:ctype-extra.obj
 0002:0000df5c       ??_C@_06KHCLFNGL@cp1257?$AA@ 0048af5c     mysqlclient:ctype-extra.obj
 0002:0000df64       ??_C@_0BD@LCIKDBGI@latin2_croatian_ci?$AA@ 0048af64     mysqlclient:ctype-extra.obj
 0002:0000df78       ??_C@_0BC@GHHJKIPO@cp1250_general_ci?$AA@ 0048af78     mysqlclient:ctype-extra.obj
 0002:0000df8c       ??_C@_06OIGKMLKM@cp1250?$AA@ 0048af8c     mysqlclient:ctype-extra.obj
 0002:0000df94       ??_C@_0BB@CIGFIMGF@greek_general_ci?$AA@ 0048af94     mysqlclient:ctype-extra.obj
 0002:0000dfa8       ??_C@_05BMDDGOIH@greek?$AA@ 0048afa8     mysqlclient:ctype-extra.obj
 0002:0000dfb0       ??_C@_0BE@DDCHCMKA@cp1251_ukrainian_ci?$AA@ 0048afb0     mysqlclient:ctype-extra.obj
 0002:0000dfc4       ??_C@_0BB@MJPFCALL@koi8u_general_ci?$AA@ 0048afc4     mysqlclient:ctype-extra.obj
 0002:0000dfd8       ??_C@_05JHCMAEL@koi8u?$AA@ 0048afd8     mysqlclient:ctype-extra.obj
 0002:0000dfe0       ??_C@_0BE@IGDBMPBG@latin2_hungarian_ci?$AA@ 0048afe0     mysqlclient:ctype-extra.obj
 0002:0000dff4       ??_C@_0BD@FCEAFDJA@latin7_estonian_cs?$AA@ 0048aff4     mysqlclient:ctype-extra.obj
 0002:0000e008       ??_C@_06HFBPGCHH@latin7?$AA@ 0048b008     mysqlclient:ctype-extra.obj
 0002:0000e010       ??_C@_0BC@LFMOPFOE@hebrew_general_ci?$AA@ 0048b010     mysqlclient:ctype-extra.obj
 0002:0000e024       ??_C@_06IOFFBGCK@hebrew?$AA@ 0048b024     mysqlclient:ctype-extra.obj
 0002:0000e02c       ??_C@_0BB@HINPBEBI@latin1_danish_ci?$AA@ 0048b02c     mysqlclient:ctype-extra.obj
 0002:0000e040       ??_C@_0BE@HOCIKLDG@cp1251_bulgarian_ci?$AA@ 0048b040     mysqlclient:ctype-extra.obj
 0002:0000e054       ??_C@_06PBHBPKON@cp1251?$AA@ 0048b054     mysqlclient:ctype-extra.obj
 0002:0000e05c       ??_C@_0BB@EJGKFKGI@ascii_general_ci?$AA@ 0048b05c     mysqlclient:ctype-extra.obj
 0002:0000e070       ??_C@_05OJENGABA@ascii?$AA@ 0048b070     mysqlclient:ctype-extra.obj
 0002:0000e078       ??_C@_0BA@CCDGJJLG@swe7_swedish_ci?$AA@ 0048b078     mysqlclient:ctype-extra.obj
 0002:0000e088       ??_C@_04KPFMKDCH@swe7?$AA@ 0048b088     mysqlclient:ctype-extra.obj
 0002:0000e090       ??_C@_0BC@NNEHCLD@latin2_general_ci?$AA@ 0048b090     mysqlclient:ctype-extra.obj
 0002:0000e0a4       ??_C@_06IGIJGDC@latin2?$AA@ 0048b0a4     mysqlclient:ctype-extra.obj
 0002:0000e0ac       ??_C@_0BB@LEIGCGOD@koi8r_general_ci?$AA@ 0048b0ac     mysqlclient:ctype-extra.obj
 0002:0000e0c0       ??_C@_05EGDDFGIM@koi8r?$AA@ 0048b0c0     mysqlclient:ctype-extra.obj
 0002:0000e0c8       ??_C@_0P@FKJAJKJA@hp8_english_ci?$AA@ 0048b0c8     mysqlclient:ctype-extra.obj
 0002:0000e0d8       ??_C@_03GDEHCLKE@hp8?$AA@  0048b0d8     mysqlclient:ctype-extra.obj
 0002:0000e0dc       ??_C@_0BC@EOOMILFB@latin1_german1_ci?$AA@ 0048b0dc     mysqlclient:ctype-extra.obj
 0002:0000e0f0       ??_C@_0BB@GHBCFLLI@cp850_general_ci?$AA@ 0048b0f0     mysqlclient:ctype-extra.obj
 0002:0000e104       ??_C@_05PBPGACKB@cp850?$AA@ 0048b104     mysqlclient:ctype-extra.obj
 0002:0000e10c       ??_C@_0BA@KLOOPAA@dec8_swedish_ci?$AA@ 0048b10c     mysqlclient:ctype-extra.obj
 0002:0000e11c       ??_C@_04EJJBHNM@dec8?$AA@  0048b11c     mysqlclient:ctype-extra.obj
 0002:0000e124       ??_C@_08OGGFHGPF@ujis_bin?$AA@ 0048b124     mysqlclient:ctype-ujis.obj
 0002:0000e130       ??_C@_0BB@KEGFAMFE@ujis_japanese_ci?$AA@ 0048b130     mysqlclient:ctype-ujis.obj
 0002:0000e144       ??_C@_04BPGAKKKA@ujis?$AA@ 0048b144     mysqlclient:ctype-ujis.obj
 0002:0000e14c       ??_C@_0L@NBGPIHPA@tis620_bin?$AA@ 0048b14c     mysqlclient:ctype-tis620.obj
 0002:0000e158       ??_C@_0P@GFLKKABK@tis620_thai_ci?$AA@ 0048b158     mysqlclient:ctype-tis620.obj
 0002:0000e168       ??_C@_06MGNELAEE@tis620?$AA@ 0048b168     mysqlclient:ctype-tis620.obj
 0002:0000e170       ??_C@_08JFHPAPHP@sjis_bin?$AA@ 0048b170     mysqlclient:ctype-sjis.obj
 0002:0000e17c       ??_C@_0BB@DFBLLFM@sjis_japanese_ci?$AA@ 0048b17c     mysqlclient:ctype-sjis.obj
 0002:0000e190       ??_C@_04JACAFPAA@sjis?$AA@ 0048b190     mysqlclient:ctype-sjis.obj
 0002:0000e198       ??_C@_07KJPNPKHF@gbk_bin?$AA@ 0048b198     mysqlclient:ctype-gbk.obj
 0002:0000e1a0       ??_C@_0P@GNPIDCFN@gbk_chinese_ci?$AA@ 0048b1a0     mysqlclient:ctype-gbk.obj
 0002:0000e1b0       ??_C@_03LFBAECHL@gbk?$AA@  0048b1b0     mysqlclient:ctype-gbk.obj
 0002:0000e1b4       ??_C@_0L@ODLCHMHL@gb2312_bin?$AA@ 0048b1b4     mysqlclient:ctype-gb2312.obj
 0002:0000e1c0       ??_C@_0BC@NLCEMJAE@gb2312_chinese_ci?$AA@ 0048b1c0     mysqlclient:ctype-gb2312.obj
 0002:0000e1d4       ??_C@_06JIBIJLME@gb2312?$AA@ 0048b1d4     mysqlclient:ctype-gb2312.obj
 0002:0000e1dc       ??_C@_09JHKEBMLO@euckr_bin?$AA@ 0048b1dc     mysqlclient:ctype-euc_kr.obj
 0002:0000e1e8       ??_C@_0BA@EKHKJCHH@euckr_korean_ci?$AA@ 0048b1e8     mysqlclient:ctype-euc_kr.obj
 0002:0000e1f8       ??_C@_05FHCOMIFC@euckr?$AA@ 0048b1f8     mysqlclient:ctype-euc_kr.obj
 0002:0000e200       ??_C@_0M@BEKAHKLO@eucjpms_bin?$AA@ 0048b200     mysqlclient:ctype-eucjpms.obj
 0002:0000e20c       ??_C@_0BE@GEODDEKB@eucjpms_japanese_ci?$AA@ 0048b20c     mysqlclient:ctype-eucjpms.obj
 0002:0000e220       ??_C@_07MOEGLBAH@eucjpms?$AA@ 0048b220     mysqlclient:ctype-eucjpms.obj
 0002:0000e228       ??_C@_0BA@IOACFKLD@latin2_czech_cs?$AA@ 0048b228     mysqlclient:ctype-czech.obj
 0002:0000e238       ??_C@_04PJNGGADL@?$AF?6?$BC?$BC?$AA@ 0048b238     mysqlclient:ctype-czech.obj
 0002:0000e240       ??_C@_01GFHCPBMG@C?$AA@    0048b240     mysqlclient:ctype-czech.obj
 0002:0000e244       ??_C@_04NALNINKB@?$AF?6?$BB?$BB?$AA@ 0048b244     mysqlclient:ctype-czech.obj
 0002:0000e24c       ??_C@_01PAPGNFGE@c?$AA@    0048b24c     mysqlclient:ctype-czech.obj
 0002:0000e250       ??_C@_04DCMIHFOD@?$AM?$BJ11?$AA@ 0048b250     mysqlclient:ctype-czech.obj
 0002:0000e258       ??_C@_02EKMCNAHJ@CH?$AA@   0048b258     mysqlclient:ctype-czech.obj
 0002:0000e25c       ??_C@_04CKBBCOJF@?$AM?$BJ00?$AA@ 0048b25c     mysqlclient:ctype-czech.obj
 0002:0000e264       ??_C@_02NPEGPENL@Ch?$AA@   0048b264     mysqlclient:ctype-czech.obj
 0002:0000e268       ??_C@_04PADBMEEG@?$AM?$BJ?1?1?$AA@ 0048b268     mysqlclient:ctype-czech.obj
 0002:0000e270       ??_C@_02OHALLCDL@ch?$AA@   0048b270     mysqlclient:ctype-czech.obj
 0002:0000e278       ??_C@_0BAB@LDKHKKBE@?$LE?$LF?$LG?$LH?$LI?$LJ?$LK?$LL?$LM?$AC?$LO?$LP?$MA?A?B?C?D?E?F?G?H?I?J?K?L?M?N?O?P?Q?R?S@ 0048b278     mysqlclient:ctype-czech.obj
 0002:0000e380       ??_C@_0BAB@JENJBEPB@?$AA?$AA?$AA?$AA?$AA?$AA?$AA?$AA?$AA?$AC?$AA?$AA?$AA?$AA?$AA?$AA?$AA?$AA?$AA?$AA?$AA?$AA?$AA?$AA?$AA?$AA?$AA?$AA?$AA?$AA?$AA?$AA@ 0048b380     mysqlclient:ctype-czech.obj
 0002:0000e488       ??_C@_0BAB@GIDHDAFJ@?$AA?$AA?$AA?$AA?$AA?$AA?$AA?$AA?$AA?$AC?$AA?$AA?$AA?$AA?$AA?$AA?$AA?$AA?$AA?$AA?$AA?$AA?$AA?$AA?$AA?$AA?$AA?$AA?$AA?$AA?$AA?$AA@ 0048b488     mysqlclient:ctype-czech.obj
 0002:0000e590       ??_C@_0BAB@HNOGOFAJ@?$AA?$AA?$AA?$AA?$AA?$AA?$AA?$AA?$AA?$AC?$AA?$AA?$AA?$AA?$AA?$AA?$AA?$AA?$AA?$AA?$AA?$AA?$AA?$AA?$AA?$AA?$AA?$AA?$AA?$AA?$AA?$AA@ 0048b590     mysqlclient:ctype-czech.obj
 0002:0000e694       ??_C@_0BA@MDKNCPKD@cp1250_czech_cs?$AA@ 0048b694     mysqlclient:ctype-win1250ch.obj
 0002:0000e6a4       ??_C@_08CJHFMMIC@big5_bin?$AA@ 0048b6a4     mysqlclient:ctype-big5.obj
 0002:0000e6b0       ??_C@_0BA@HCMNJPNC@big5_chinese_ci?$AA@ 0048b6b0     mysqlclient:ctype-big5.obj
 0002:0000e6c0       ??_C@_04HDKIILFF@big5?$AA@ 0048b6c0     mysqlclient:ctype-big5.obj
 0002:0000e6c8       ?rcon_@AES@TaoCrypt@@0QBIB 0048b6c8     mysqlclient:aestables.obj
 0002:0000e7f4       ??_7MD2@TaoCrypt@@6B@      0048b7f4     mysqlclient:md2.obj
 0002:0000e80c       ??_C@_01NBENCBCI@?$CK?$AA@ 0048b80c     libcpmt:locale0.obj
 0002:0000e814       ??_7_Locimp@locale@std@@6B@ 0048b814     libcpmt:locale0.obj
 0002:0000e81c       ??_7error_category@std@@6B@ 0048b81c     libcpmt:syserror.obj
 0002:0000e834       ??_C@_07DCLBNMLN@generic?$AA@ 0048b834     libcpmt:syserror.obj
 0002:0000e840       ??_7_Generic_error_category@std@@6B@ 0048b840     libcpmt:syserror.obj
 0002:0000e858       ??_C@_08LLGCOLLL@iostream?$AA@ 0048b858     libcpmt:syserror.obj
 0002:0000e868       ??_7_Iostream_error_category@std@@6B@ 0048b868     libcpmt:syserror.obj
 0002:0000e880       ??_C@_06FHFOAHML@system?$AA@ 0048b880     libcpmt:syserror.obj
 0002:0000e88c       ??_7_System_error_category@std@@6B@ 0048b88c     libcpmt:syserror.obj
 0002:0000e8a4       ??_C@_0BG@PADBLCHM@iostream?5stream?5error?$AA@ 0048b8a4     libcpmt:syserror.obj
 0002:0000e8c0       ??_7logic_error@std@@6B@   0048b8c0     libcpmt:xthrow.obj
 0002:0000e8cc       ??_7length_error@std@@6B@  0048b8cc     libcpmt:xthrow.obj
 0002:0000e8d8       ??_7out_of_range@std@@6B@  0048b8d8     libcpmt:xthrow.obj
 0002:0000e8e4       ??_7ios_base@std@@6B@      0048b8e4     libcpmt:cout.obj
 0002:0000e8ec       ??_7?$basic_ostream@DU?$char_traits@D@std@@@std@@6B@ 0048b8ec     libcpmt:cout.obj
 0002:0000e8f4       ??_7?$basic_ios@DU?$char_traits@D@std@@@std@@6B@ 0048b8f4     libcpmt:cout.obj
 0002:0000e8fc       ??_7?$ctype@D@std@@6B@     0048b8fc     libcpmt:cout.obj
 0002:0000e924       ??_7?$basic_streambuf@DU?$char_traits@D@std@@@std@@6B@ 0048b924     libcpmt:cout.obj
 0002:0000e964       ??_7?$basic_filebuf@DU?$char_traits@D@std@@@std@@6B@ 0048b964     libcpmt:cout.obj
 0002:0000e9a4       ??_7?$codecvt@DDH@std@@6B@ 0048b9a4     libcpmt:cout.obj
 0002:0000e9c4       ??_8?$basic_ostream@DU?$char_traits@D@std@@@std@@7B@ 0048b9c4     libcpmt:cout.obj
 0002:0000e9d0       ?_BADOFF@std@@3_JB         0048b9d0     libcpmt:ios.obj
 0002:0000e9dc       ??_7exception@std@@6B@     0048b9dc     LIBCMT:stdexcpt.obj
 0002:0000e9e4       ??_C@_0BC@EOODALEL@Unknown?5exception?$AA@ 0048b9e4     LIBCMT:stdexcpt.obj
 0002:0000e9fc       ??_7bad_cast@std@@6B@      0048b9fc     LIBCMT:stdexcpt.obj
 0002:0000ea08       ??_7type_info@@6B@         0048ba08     LIBCMT:typinfo.obj
 0002:0000ea2c       __FPinit                   0048ba2c     LIBCMT:_fpinit_.obj
 0002:0000ea30       ??_C@_0P@MIGLKIOC@CorExitProcess?$AA@ 0048ba30     LIBCMT:crt0dat.obj
 0002:0000ea40       ??_C@_1BI@BGOHAHKC@?$AAm?$AAs?$AAc?$AAo?$AAr?$AAe?$AAe?$AA?4?$AAd?$AAl?$AAl?$AA?$AA@ 0048ba40     LIBCMT:crt0dat.obj
 0002:0000eab0       ??_C@_02CLFPBFFP@TZ?$AA@   0048bab0     LIBCMT:tzset.obj
 0002:0000eab4       ??_C@_03LLEJOLGL@?4?1?2?$AA@ 0048bab4     LIBCMT:stati32.obj
 0002:0000eab8       ??_C@_02EAOCEIGI@?$DP?$CK?$AA@ 0048bab8     LIBCMT:stati32.obj
 0002:0000eabc       ??_C@_07LCBHPJJN@LC_TIME?$AA@ 0048babc     LIBCMT:setlocal.obj
 0002:0000eac4       ??_C@_0L@DLHIECNL@LC_NUMERIC?$AA@ 0048bac4     LIBCMT:setlocal.obj
 0002:0000ead0       ??_C@_0M@MIENIKLA@LC_MONETARY?$AA@ 0048bad0     LIBCMT:setlocal.obj
 0002:0000eadc       ??_C@_08EADHIDAD@LC_CTYPE?$AA@ 0048badc     LIBCMT:setlocal.obj
 0002:0000eae8       ??_C@_0L@KFJHEKIK@LC_COLLATE?$AA@ 0048bae8     LIBCMT:setlocal.obj
 0002:0000eaf4       ??_C@_06NEFDFEKB@LC_ALL?$AA@ 0048baf4     LIBCMT:setlocal.obj
 0002:0000eb00       ___lc_category             0048bb00     LIBCMT:setlocal.obj
 0002:0000ebc8       ??_C@_03EGDHDPFD@_?4?0?$AA@ 0048bbc8     LIBCMT:setlocal.obj
 0002:0000ebcc       ??_C@_01ICJEACDI@?$DL?$AA@ 0048bbcc     LIBCMT:setlocal.obj
 0002:0000ebd0       ??_C@_02BALPLPBG@?$DN?$DL?$AA@ 0048bbd0     LIBCMT:setlocal.obj
 0002:0000ebd8       ??_C@_0EA@FCLIIPNN@Visual?5C?$CL?$CL?5CRT?3?5Not?5enough?5memor@ 0048bbd8     LIBCMT:strerror.obj
 0002:0000ec18       __pDestructExceptionObject 0048bc18     LIBCMT:frame.obj
 0002:0000ec20       ??_7bad_exception@std@@6B@ 0048bc20     LIBCMT:frame.obj
 0002:0000ec28       ??_C@_0O@DPKOEFFH@bad?5exception?$AA@ 0048bc28     LIBCMT:frame.obj
 0002:0000ec38       ___newctype                0048bc38     LIBCMT:ctype.obj
 0002:0000ef38       __wctype                   0048bf38     LIBCMT:ctype.obj
 0002:0000f140       ___newclmap                0048c140     LIBCMT:ctype.obj
 0002:0000f2c0       ___newcumap                0048c2c0     LIBCMT:ctype.obj
 0002:0000f440       ??_C@_1BK@DBDEIDLH@?$AAK?$AAE?$AAR?$AAN?$AAE?$AAL?$AA3?$AA2?$AA?4?$AAD?$AAL?$AAL?$AA?$AA@ 0048c440     LIBCMT:tidtable.obj
 0002:0000f45c       ??_C@_07PEJMOBNF@FlsFree?$AA@ 0048c45c     LIBCMT:tidtable.obj
 0002:0000f464       ??_C@_0M@JCPCPOEF@FlsSetValue?$AA@ 0048c464     LIBCMT:tidtable.obj
 0002:0000f470       ??_C@_0M@GDNOONDI@FlsGetValue?$AA@ 0048c470     LIBCMT:tidtable.obj
 0002:0000f47c       ??_C@_08KNHFBNJ@FlsAlloc?$AA@ 0048c47c     LIBCMT:tidtable.obj
 0002:0000f490       ??_C@_1BC@GDGBMEMK@?$AAH?$AAH?$AA?3?$AAm?$AAm?$AA?3?$AAs?$AAs?$AA?$AA@ 0048c490     LIBCMT:nlsdata2.obj
 0002:0000f4a4       ??_C@_1CI@KNAKOEBC@?$AAd?$AAd?$AAd?$AAd?$AA?0?$AA?5?$AAM?$AAM?$AAM?$AAM?$AA?5?$AAd?$AAd?$AA?0?$AA?5?$AAy?$AAy?$AAy?$AAy?$AA?$AA@ 0048c4a4     LIBCMT:nlsdata2.obj
 0002:0000f4cc       ??_C@_1BC@IEBCMHCM@?$AAM?$AAM?$AA?1?$AAd?$AAd?$AA?1?$AAy?$AAy?$AA?$AA@ 0048c4cc     LIBCMT:nlsdata2.obj
 0002:0000f4e0       ??_C@_15CLMNNGEL@?$AAP?$AAM?$AA?$AA@ 0048c4e0     LIBCMT:nlsdata2.obj
 0002:0000f4e8       ??_C@_15ODEHAHHF@?$AAA?$AAM?$AA?$AA@ 0048c4e8     LIBCMT:nlsdata2.obj
 0002:0000f4f0       ??_C@_1BC@FEMKIFH@?$AAD?$AAe?$AAc?$AAe?$AAm?$AAb?$AAe?$AAr?$AA?$AA@ 0048c4f0     LIBCMT:nlsdata2.obj
 0002:0000f504       ??_C@_1BC@BGLIFPF@?$AAN?$AAo?$AAv?$AAe?$AAm?$AAb?$AAe?$AAr?$AA?$AA@ 0048c504     LIBCMT:nlsdata2.obj
 0002:0000f518       ??_C@_1BA@EPANDLNG@?$AAO?$AAc?$AAt?$AAo?$AAb?$AAe?$AAr?$AA?$AA@ 0048c518     LIBCMT:nlsdata2.obj
 0002:0000f528       ??_C@_1BE@DKAAMBJL@?$AAS?$AAe?$AAp?$AAt?$AAe?$AAm?$AAb?$AAe?$AAr?$AA?$AA@ 0048c528     LIBCMT:nlsdata2.obj
 0002:0000f53c       ??_C@_1O@PAHLKOAC@?$AAA?$AAu?$AAg?$AAu?$AAs?$AAt?$AA?$AA@ 0048c53c     LIBCMT:nlsdata2.obj
 0002:0000f54c       ??_C@_19BIFMLPCD@?$AAJ?$AAu?$AAl?$AAy?$AA?$AA@ 0048c54c     LIBCMT:nlsdata2.obj
 0002:0000f558       ??_C@_19EPFLPGAP@?$AAJ?$AAu?$AAn?$AAe?$AA?$AA@ 0048c558     LIBCMT:nlsdata2.obj
 0002:0000f564       ??_C@_1M@GJNLMHFD@?$AAA?$AAp?$AAr?$AAi?$AAl?$AA?$AA@ 0048c564     LIBCMT:nlsdata2.obj
 0002:0000f570       ??_C@_1M@IKEENEDF@?$AAM?$AAa?$AAr?$AAc?$AAh?$AA?$AA@ 0048c570     LIBCMT:nlsdata2.obj
 0002:0000f57c       ??_C@_1BC@JGDDFFAM@?$AAF?$AAe?$AAb?$AAr?$AAu?$AAa?$AAr?$AAy?$AA?$AA@ 0048c57c     LIBCMT:nlsdata2.obj
 0002:0000f590       ??_C@_1BA@EFMEIEBA@?$AAJ?$AAa?$AAn?$AAu?$AAa?$AAr?$AAy?$AA?$AA@ 0048c590     LIBCMT:nlsdata2.obj
 0002:0000f5a0       ??_C@_17EGKACKIF@?$AAD?$AAe?$AAc?$AA?$AA@ 0048c5a0     LIBCMT:nlsdata2.obj
 0002:0000f5a8       ??_C@_17BBDMLCIG@?$AAN?$AAo?$AAv?$AA?$AA@ 0048c5a8     LIBCMT:nlsdata2.obj
 0002:0000f5b0       ??_C@_17FNLKOI@?$AAO?$AAc?$AAt?$AA?$AA@ 0048c5b0     LIBCMT:nlsdata2.obj
 0002:0000f5b8       ??_C@_17HCHCOKMG@?$AAS?$AAe?$AAp?$AA?$AA@ 0048c5b8     LIBCMT:nlsdata2.obj
 0002:0000f5c0       ??_C@_17ICPELBCN@?$AAA?$AAu?$AAg?$AA?$AA@ 0048c5c0     LIBCMT:nlsdata2.obj
 0002:0000f5c8       ??_C@_17IJPCKHK@?$AAJ?$AAu?$AAl?$AA?$AA@ 0048c5c8     LIBCMT:nlsdata2.obj
 0002:0000f5d0       ??_C@_17KCJGOCPB@?$AAJ?$AAu?$AAn?$AA?$AA@ 0048c5d0     LIBCMT:nlsdata2.obj
 0002:0000f5d8       ??_C@_17PNNKMEED@?$AAM?$AAa?$AAy?$AA?$AA@ 0048c5d8     LIBCMT:nlsdata2.obj
 0002:0000f5e0       ??_C@_17LFPOIHDD@?$AAA?$AAp?$AAr?$AA?$AA@ 0048c5e0     LIBCMT:nlsdata2.obj
 0002:0000f5e8       ??_C@_17CKNLEDEC@?$AAM?$AAa?$AAr?$AA?$AA@ 0048c5e8     LIBCMT:nlsdata2.obj
 0002:0000f5f0       ??_C@_17LMDJEKJN@?$AAF?$AAe?$AAb?$AA?$AA@ 0048c5f0     LIBCMT:nlsdata2.obj
 0002:0000f5f8       ??_C@_17DKNBKCHM@?$AAJ?$AAa?$AAn?$AA?$AA@ 0048c5f8     LIBCMT:nlsdata2.obj
 0002:0000f600       ??_C@_1BC@ENMNNPAJ@?$AAS?$AAa?$AAt?$AAu?$AAr?$AAd?$AAa?$AAy?$AA?$AA@ 0048c600     LIBCMT:nlsdata2.obj
 0002:0000f614       ??_C@_1O@PDICJHAG@?$AAF?$AAr?$AAi?$AAd?$AAa?$AAy?$AA?$AA@ 0048c614     LIBCMT:nlsdata2.obj
 0002:0000f624       ??_C@_1BC@HHMNLIHE@?$AAT?$AAh?$AAu?$AAr?$AAs?$AAd?$AAa?$AAy?$AA?$AA@ 0048c624     LIBCMT:nlsdata2.obj
 0002:0000f638       ??_C@_1BE@EBOGMDOH@?$AAW?$AAe?$AAd?$AAn?$AAe?$AAs?$AAd?$AAa?$AAy?$AA?$AA@ 0048c638     LIBCMT:nlsdata2.obj
 0002:0000f64c       ??_C@_1BA@ENFBFFEK@?$AAT?$AAu?$AAe?$AAs?$AAd?$AAa?$AAy?$AA?$AA@ 0048c64c     LIBCMT:nlsdata2.obj
 0002:0000f65c       ??_C@_1O@MMNBFLIA@?$AAM?$AAo?$AAn?$AAd?$AAa?$AAy?$AA?$AA@ 0048c65c     LIBCMT:nlsdata2.obj
 0002:0000f66c       ??_C@_1O@IHNHDHPB@?$AAS?$AAu?$AAn?$AAd?$AAa?$AAy?$AA?$AA@ 0048c66c     LIBCMT:nlsdata2.obj
 0002:0000f67c       ??_C@_17GGIBDPIH@?$AAS?$AAa?$AAt?$AA?$AA@ 0048c67c     LIBCMT:nlsdata2.obj
 0002:0000f684       ??_C@_17HFOLPPLP@?$AAF?$AAr?$AAi?$AA?$AA@ 0048c684     LIBCMT:nlsdata2.obj
 0002:0000f68c       ??_C@_17PDPHAADD@?$AAT?$AAh?$AAu?$AA?$AA@ 0048c68c     LIBCMT:nlsdata2.obj
 0002:0000f694       ??_C@_17CJEDCEPE@?$AAW?$AAe?$AAd?$AA?$AA@ 0048c694     LIBCMT:nlsdata2.obj
 0002:0000f69c       ??_C@_17BMKGEGOJ@?$AAT?$AAu?$AAe?$AA?$AA@ 0048c69c     LIBCMT:nlsdata2.obj
 0002:0000f6a4       ??_C@_17KBOMKBF@?$AAM?$AAo?$AAn?$AA?$AA@ 0048c6a4     LIBCMT:nlsdata2.obj
 0002:0000f6ac       ??_C@_17MBGCMIPB@?$AAS?$AAu?$AAn?$AA?$AA@ 0048c6ac     LIBCMT:nlsdata2.obj
 0002:0000f6b4       ??_C@_08JCCMCCIL@HH?3mm?3ss?$AA@ 0048c6b4     LIBCMT:nlsdata2.obj
 0002:0000f6c0       ??_C@_0BE@CKGJFCPC@dddd?0?5MMMM?5dd?0?5yyyy?$AA@ 0048c6c0     LIBCMT:nlsdata2.obj
 0002:0000f6d4       ??_C@_08BPBNCDIB@MM?1dd?1yy?$AA@ 0048c6d4     LIBCMT:nlsdata2.obj
 0002:0000f6e0       ??_C@_02CJNFDJBF@PM?$AA@   0048c6e0     LIBCMT:nlsdata2.obj
 0002:0000f6e4       ??_C@_02DEDBPAFC@AM?$AA@   0048c6e4     LIBCMT:nlsdata2.obj
 0002:0000f6e8       ??_C@_08EDHMEBNP@December?$AA@ 0048c6e8     LIBCMT:nlsdata2.obj
 0002:0000f6f4       ??_C@_08HCHEGEOA@November?$AA@ 0048c6f4     LIBCMT:nlsdata2.obj
 0002:0000f700       ??_C@_07JJNFCEND@October?$AA@ 0048c700     LIBCMT:nlsdata2.obj
 0002:0000f708       ??_C@_09BHHEALKD@September?$AA@ 0048c708     LIBCMT:nlsdata2.obj
 0002:0000f714       ??_C@_06LBBHFDDG@August?$AA@ 0048c714     LIBCMT:nlsdata2.obj
 0002:0000f71c       ??_C@_04MIEPOIFP@July?$AA@ 0048c71c     LIBCMT:nlsdata2.obj
 0002:0000f724       ??_C@_04CNLMGBGM@June?$AA@ 0048c724     LIBCMT:nlsdata2.obj
 0002:0000f72c       ??_C@_05DMJDNLEJ@April?$AA@ 0048c72c     LIBCMT:nlsdata2.obj
 0002:0000f734       ??_C@_05HPCKOFNC@March?$AA@ 0048c734     LIBCMT:nlsdata2.obj
 0002:0000f73c       ??_C@_08GNJGEPFN@February?$AA@ 0048c73c     LIBCMT:nlsdata2.obj
 0002:0000f748       ??_C@_07CGJPFGJA@January?$AA@ 0048c748     LIBCMT:nlsdata2.obj
 0002:0000f750       ??_C@_03MKABNOCG@Dec?$AA@  0048c750     LIBCMT:nlsdata2.obj
 0002:0000f754       ??_C@_03JPJOFNIA@Nov?$AA@  0048c754     LIBCMT:nlsdata2.obj
 0002:0000f758       ??_C@_03BMAOKBAD@Oct?$AA@  0048c758     LIBCMT:nlsdata2.obj
 0002:0000f75c       ??_C@_03GGCAPAJC@Sep?$AA@  0048c75c     LIBCMT:nlsdata2.obj
 0002:0000f760       ??_C@_03IFJFEIGA@Aug?$AA@  0048c760     LIBCMT:nlsdata2.obj
 0002:0000f764       ??_C@_03LBGABGKK@Jul?$AA@  0048c764     LIBCMT:nlsdata2.obj
 0002:0000f768       ??_C@_03IDFGHECI@Jun?$AA@  0048c768     LIBCMT:nlsdata2.obj
 0002:0000f76c       ??_C@_03CNMDKL@May?$AA@    0048c76c     LIBCMT:nlsdata2.obj
 0002:0000f770       ??_C@_03LEOLGMJP@Apr?$AA@  0048c770     LIBCMT:nlsdata2.obj
 0002:0000f774       ??_C@_03ODNJBKGA@Mar?$AA@  0048c774     LIBCMT:nlsdata2.obj
 0002:0000f778       ??_C@_03HJBDCHOM@Feb?$AA@  0048c778     LIBCMT:nlsdata2.obj
 0002:0000f77c       ??_C@_03JIHJHPIE@Jan?$AA@  0048c77c     LIBCMT:nlsdata2.obj
 0002:0000f780       ??_C@_08INBOOONO@Saturday?$AA@ 0048c780     LIBCMT:nlsdata2.obj
 0002:0000f78c       ??_C@_06JECMNKMI@Friday?$AA@ 0048c78c     LIBCMT:nlsdata2.obj
 0002:0000f794       ??_C@_08HACCIKIA@Thursday?$AA@ 0048c794     LIBCMT:nlsdata2.obj
 0002:0000f7a0       ??_C@_09DLIGFAKA@Wednesday?$AA@ 0048c7a0     LIBCMT:nlsdata2.obj
 0002:0000f7ac       ??_C@_07BAAGCFCM@Tuesday?$AA@ 0048c7ac     LIBCMT:nlsdata2.obj
 0002:0000f7b4       ??_C@_06JLEDEDGH@Monday?$AA@ 0048c7b4     LIBCMT:nlsdata2.obj
 0002:0000f7bc       ??_C@_06OOPIFAJ@Sunday?$AA@ 0048c7bc     LIBCMT:nlsdata2.obj
 0002:0000f7c4       ??_C@_03FEFJNEK@Sat?$AA@   0048c7c4     LIBCMT:nlsdata2.obj
 0002:0000f7c8       ??_C@_03IDIOELNC@Fri?$AA@  0048c7c8     LIBCMT:nlsdata2.obj
 0002:0000f7cc       ??_C@_03IOFIKPDN@Thu?$AA@  0048c7cc     LIBCMT:nlsdata2.obj
 0002:0000f7d0       ??_C@_03MHOMLAJA@Wed?$AA@  0048c7d0     LIBCMT:nlsdata2.obj
 0002:0000f7d4       ??_C@_03NAGEINEP@Tue?$AA@  0048c7d4     LIBCMT:nlsdata2.obj
 0002:0000f7d8       ??_C@_03PDAGKDH@Mon?$AA@   0048c7d8     LIBCMT:nlsdata2.obj
 0002:0000f7dc       ??_C@_03KOEHGMDN@Sun?$AA@  0048c7dc     LIBCMT:nlsdata2.obj
 0002:0000f7e0       ??_C@_1O@CEDCILHN@?$AA?$CI?$AAn?$AAu?$AAl?$AAl?$AA?$CJ?$AA?$AA@ 0048c7e0     LIBCMT:output.obj
 0002:0000f7f0       ___lookuptable             0048c7f0     LIBCMT:output.obj
 0002:0000f84c       ??_C@_05KLBDPFGC@e?$CL000?$AA@ 0048c84c     LIBCMT:cvt.obj
 0002:0000f878       __XcptActTab               0048c878     LIBCMT:winxfltr.obj
 0002:0000f908       __First_FPE_Indx           0048c908     LIBCMT:winxfltr.obj
 0002:0000f90c       __Num_FPE                  0048c90c     LIBCMT:winxfltr.obj
 0002:0000f910       __XcptActTabSize           0048c910     LIBCMT:winxfltr.obj
 0002:0000f914       __XcptActTabCount          0048c914     LIBCMT:winxfltr.obj
 0002:0000f918       ??_C@_1BO@BKOMIGKJ@?$AAr?$AAu?$AAn?$AAt?$AAi?$AAm?$AAe?$AA?5?$AAe?$AAr?$AAr?$AAo?$AAr?$AA?5?$AA?$AA@ 0048c918     LIBCMT:crt0msg.obj
 0002:0000f938       ??_C@_15JNBOKNOG@?$AA?$AN?$AA?6?$AA?$AA@ 0048c938     LIBCMT:crt0msg.obj
 0002:0000f940       ??_C@_1BM@JBBEPPHI@?$AAT?$AAL?$AAO?$AAS?$AAS?$AA?5?$AAe?$AAr?$AAr?$AAo?$AAr?$AA?$AN?$AA?6?$AA?$AA@ 0048c940     LIBCMT:crt0msg.obj
 0002:0000f95c       ??_C@_1BK@KMOMNAAI@?$AAS?$AAI?$AAN?$AAG?$AA?5?$AAe?$AAr?$AAr?$AAo?$AAr?$AA?$AN?$AA?6?$AA?$AA@ 0048c95c     LIBCMT:crt0msg.obj
 0002:0000f978       ??_C@_1BO@BFCDCGC@?$AAD?$AAO?$AAM?$AAA?$AAI?$AAN?$AA?5?$AAe?$AAr?$AAr?$AAo?$AAr?$AA?$AN?$AA?6?$AA?$AA@ 0048c978     LIBCMT:crt0msg.obj
 0002:0000f998       ??_C@_1BOO@KGEDBGAJ@?$AAR?$AA6?$AA0?$AA3?$AA3?$AA?$AN?$AA?6?$AA?9?$AA?5?$AAA?$AAt?$AAt?$AAe?$AAm?$AAp?$AAt?$AA?5?$AAt?$AAo?$AA?5?$AAu?$AAs?$AAe?$AA?5?$AAM?$AAS?$AAI?$AAL?$AA?5?$AAc?$AAo?$AAd@ 0048c998     LIBCMT:crt0msg.obj
 0002:0000fb88       ??_C@_1GG@GOPILAJP@?$AAR?$AA6?$AA0?$AA3?$AA2?$AA?$AN?$AA?6?$AA?9?$AA?5?$AAn?$AAo?$AAt?$AA?5?$AAe?$AAn?$AAo?$AAu?$AAg?$AAh?$AA?5?$AAs?$AAp?$AAa?$AAc?$AAe?$AA?5?$AAf?$AAo?$AAr?$AA?5?$AAl?$AAo@ 0048cb88     LIBCMT:crt0msg.obj
 0002:0000fbf0       ??_C@_1MG@ENCOOIDF@?$AAR?$AA6?$AA0?$AA3?$AA1?$AA?$AN?$AA?6?$AA?9?$AA?5?$AAA?$AAt?$AAt?$AAe?$AAm?$AAp?$AAt?$AA?5?$AAt?$AAo?$AA?5?$AAi?$AAn?$AAi?$AAt?$AAi?$AAa?$AAl?$AAi?$AAz?$AAe?$AA?5?$AAt@ 0048cbf0     LIBCMT:crt0msg.obj
 0002:0000fcb8       ??_C@_1DO@BMFCDCD@?$AAR?$AA6?$AA0?$AA3?$AA0?$AA?$AN?$AA?6?$AA?9?$AA?5?$AAC?$AAR?$AAT?$AA?5?$AAn?$AAo?$AAt?$AA?5?$AAi?$AAn?$AAi?$AAt?$AAi?$AAa?$AAl?$AAi?$AAz?$AAe?$AAd?$AA?$AN?$AA?6?$AA?$AA@ 0048ccb8     LIBCMT:crt0msg.obj
 0002:0000fcf8       ??_C@_1EK@HHFLMAOL@?$AAR?$AA6?$AA0?$AA2?$AA8?$AA?$AN?$AA?6?$AA?9?$AA?5?$AAu?$AAn?$AAa?$AAb?$AAl?$AAe?$AA?5?$AAt?$AAo?$AA?5?$AAi?$AAn?$AAi?$AAt?$AAi?$AAa?$AAl?$AAi?$AAz?$AAe?$AA?5?$AAh?$AAe@ 0048ccf8     LIBCMT:crt0msg.obj
 0002:0000fd48       ??_C@_1GK@MFGOKLAG@?$AAR?$AA6?$AA0?$AA2?$AA7?$AA?$AN?$AA?6?$AA?9?$AA?5?$AAn?$AAo?$AAt?$AA?5?$AAe?$AAn?$AAo?$AAu?$AAg?$AAh?$AA?5?$AAs?$AAp?$AAa?$AAc?$AAe?$AA?5?$AAf?$AAo?$AAr?$AA?5?$AAl?$AAo@ 0048cd48     LIBCMT:crt0msg.obj
 0002:0000fdb8       ??_C@_1GK@MCAAGJMO@?$AAR?$AA6?$AA0?$AA2?$AA6?$AA?$AN?$AA?6?$AA?9?$AA?5?$AAn?$AAo?$AAt?$AA?5?$AAe?$AAn?$AAo?$AAu?$AAg?$AAh?$AA?5?$AAs?$AAp?$AAa?$AAc?$AAe?$AA?5?$AAf?$AAo?$AAr?$AA?5?$AAs?$AAt@ 0048cdb8     LIBCMT:crt0msg.obj
 0002:0000fe28       ??_C@_1EM@MAADIHMB@?$AAR?$AA6?$AA0?$AA2?$AA5?$AA?$AN?$AA?6?$AA?9?$AA?5?$AAp?$AAu?$AAr?$AAe?$AA?5?$AAv?$AAi?$AAr?$AAt?$AAu?$AAa?$AAl?$AA?5?$AAf?$AAu?$AAn?$AAc?$AAt?$AAi?$AAo?$AAn?$AA?5?$AAc@ 0048ce28     LIBCMT:crt0msg.obj
 0002:0000fe78       ??_C@_1GK@FHCKBEFA@?$AAR?$AA6?$AA0?$AA2?$AA4?$AA?$AN?$AA?6?$AA?9?$AA?5?$AAn?$AAo?$AAt?$AA?5?$AAe?$AAn?$AAo?$AAu?$AAg?$AAh?$AA?5?$AAs?$AAp?$AAa?$AAc?$AAe?$AA?5?$AAf?$AAo?$AAr?$AA?5?$AA_?$AAo@ 0048ce78     LIBCMT:crt0msg.obj
 0002:0000fee8       ??_C@_1FC@ECHBIFBC@?$AAR?$AA6?$AA0?$AA1?$AA9?$AA?$AN?$AA?6?$AA?9?$AA?5?$AAu?$AAn?$AAa?$AAb?$AAl?$AAe?$AA?5?$AAt?$AAo?$AA?5?$AAo?$AAp?$AAe?$AAn?$AA?5?$AAc?$AAo?$AAn?$AAs?$AAo?$AAl?$AAe?$AA?5@ 0048cee8     LIBCMT:crt0msg.obj
 0002:0000ff40       ??_C@_1EC@JIBHAOPH@?$AAR?$AA6?$AA0?$AA1?$AA8?$AA?$AN?$AA?6?$AA?9?$AA?5?$AAu?$AAn?$AAe?$AAx?$AAp?$AAe?$AAc?$AAt?$AAe?$AAd?$AA?5?$AAh?$AAe?$AAa?$AAp?$AA?5?$AAe?$AAr?$AAr?$AAo?$AAr?$AA?$AN?$AA?6@ 0048cf40     LIBCMT:crt0msg.obj
 0002:0000ff88       ??_C@_1FK@BEOGODMC@?$AAR?$AA6?$AA0?$AA1?$AA7?$AA?$AN?$AA?6?$AA?9?$AA?5?$AAu?$AAn?$AAe?$AAx?$AAp?$AAe?$AAc?$AAt?$AAe?$AAd?$AA?5?$AAm?$AAu?$AAl?$AAt?$AAi?$AAt?$AAh?$AAr?$AAe?$AAa?$AAd?$AA?5@ 0048cf88     LIBCMT:crt0msg.obj
 0002:0000ffe8       ??_C@_1FI@LOGNIKDM@?$AAR?$AA6?$AA0?$AA1?$AA6?$AA?$AN?$AA?6?$AA?9?$AA?5?$AAn?$AAo?$AAt?$AA?5?$AAe?$AAn?$AAo?$AAu?$AAg?$AAh?$AA?5?$AAs?$AAp?$AAa?$AAc?$AAe?$AA?5?$AAf?$AAo?$AAr?$AA?5?$AAt?$AAh@ 0048cfe8     LIBCMT:crt0msg.obj
 0002:00010040       ??_C@_1EG@BEHAGFJD@?$AAR?$AA6?$AA0?$AA1?$AA0?$AA?$AN?$AA?6?$AA?9?$AA?5?$AAa?$AAb?$AAo?$AAr?$AAt?$AA?$CI?$AA?$CJ?$AA?5?$AAh?$AAa?$AAs?$AA?5?$AAb?$AAe?$AAe?$AAn?$AA?5?$AAc?$AAa?$AAl?$AAl?$AAe?$AAd@ 0048d040     LIBCMT:crt0msg.obj
 0002:00010088       ??_C@_1FI@HONFMGBI@?$AAR?$AA6?$AA0?$AA0?$AA9?$AA?$AN?$AA?6?$AA?9?$AA?5?$AAn?$AAo?$AAt?$AA?5?$AAe?$AAn?$AAo?$AAu?$AAg?$AAh?$AA?5?$AAs?$AAp?$AAa?$AAc?$AAe?$AA?5?$AAf?$AAo?$AAr?$AA?5?$AAe?$AAn@ 0048d088     LIBCMT:crt0msg.obj
 0002:000100e0       ??_C@_1FE@LLNEDJMD@?$AAR?$AA6?$AA0?$AA0?$AA8?$AA?$AN?$AA?6?$AA?9?$AA?5?$AAn?$AAo?$AAt?$AA?5?$AAe?$AAn?$AAo?$AAu?$AAg?$AAh?$AA?5?$AAs?$AAp?$AAa?$AAc?$AAe?$AA?5?$AAf?$AAo?$AAr?$AA?5?$AAa?$AAr@ 0048d0e0     LIBCMT:crt0msg.obj
 0002:00010138       ??_C@_1FK@PGACCAFB@?$AAR?$AA6?$AA0?$AA0?$AA2?$AA?$AN?$AA?6?$AA?9?$AA?5?$AAf?$AAl?$AAo?$AAa?$AAt?$AAi?$AAn?$AAg?$AA?5?$AAp?$AAo?$AAi?$AAn?$AAt?$AA?5?$AAs?$AAu?$AAp?$AAp?$AAo?$AAr?$AAt?$AA?5@ 0048d138     LIBCMT:crt0msg.obj
 0002:00010248       ??_C@_1EK@MBDPDCGA@?$AAM?$AAi?$AAc?$AAr?$AAo?$AAs?$AAo?$AAf?$AAt?$AA?5?$AAV?$AAi?$AAs?$AAu?$AAa?$AAl?$AA?5?$AAC?$AA?$CL?$AA?$CL?$AA?5?$AAR?$AAu?$AAn?$AAt?$AAi?$AAm?$AAe?$AA?5?$AAL?$AAi?$AAb@ 0048d248     LIBCMT:crt0msg.obj
 0002:00010294       ??_C@_15IABLJNFO@?$AA?6?$AA?6?$AA?$AA@ 0048d294     LIBCMT:crt0msg.obj
 0002:0001029c       ??_C@_17LGKOMLJ@?$AA?4?$AA?4?$AA?4?$AA?$AA@ 0048d29c     LIBCMT:crt0msg.obj
 0002:000102a4       ??_C@_1CO@EAEJAADC@?$AA?$DM?$AAp?$AAr?$AAo?$AAg?$AAr?$AAa?$AAm?$AA?5?$AAn?$AAa?$AAm?$AAe?$AA?5?$AAu?$AAn?$AAk?$AAn?$AAo?$AAw?$AAn?$AA?$DO?$AA?$AA@ 0048d2a4     LIBCMT:crt0msg.obj
 0002:000102d4       ??_C@_1DE@JNGNBFGO@?$AAR?$AAu?$AAn?$AAt?$AAi?$AAm?$AAe?$AA?5?$AAE?$AAr?$AAr?$AAo?$AAr?$AA?$CB?$AA?6?$AA?6?$AAP?$AAr?$AAo?$AAg?$AAr?$AAa?$AAm?$AA?3?$AA?5?$AA?$AA@ 0048d2d4     LIBCMT:crt0msg.obj
 0002:00010308       ___dnames                  0048d308     LIBCMT:timeset.obj
 0002:00010320       ___mnames                  0048d320     LIBCMT:timeset.obj
 0002:00010348       ___lookuptable_s           0048d348     LIBCMT:outputs.obj
 0002:00010410       ??_C@_03IIINPABG@tan?$AA@  0048d410     LIBCMT:_libm_error_.obj
 0002:00010414       ??_C@_03LALBNOCG@cos?$AA@  0048d414     LIBCMT:_libm_error_.obj
 0002:00010418       ??_C@_03BLEJJJBH@sin?$AA@  0048d418     LIBCMT:_libm_error_.obj
 0002:0001041c       ??_C@_04EHEDPDJG@modf?$AA@ 0048d41c     LIBCMT:_libm_error_.obj
 0002:00010424       ??_C@_05PBJFFIGL@floor?$AA@ 0048d424     LIBCMT:_libm_error_.obj
 0002:0001042c       ??_C@_04GFPJNGEK@ceil?$AA@ 0048d42c     LIBCMT:_libm_error_.obj
 0002:00010434       ??_C@_04MLLJIGOK@atan?$AA@ 0048d434     LIBCMT:_libm_error_.obj
 0002:0001043c       ??_C@_05EOHGHCHD@exp10?$AA@ 0048d43c     LIBCMT:_libm_error_.obj
 0002:00010444       ??_C@_04PDIFKINK@acos?$AA@ 0048d444     LIBCMT:_libm_error_.obj
 0002:0001044c       ??_C@_04FIHNOPOL@asin?$AA@ 0048d44c     LIBCMT:_libm_error_.obj
 0002:00010454       ??_C@_03MGHMBJCF@log?$AA@  0048d454     LIBCMT:_libm_error_.obj
 0002:00010458       ??_C@_05HGHHAHAP@log10?$AA@ 0048d458     LIBCMT:_libm_error_.obj
 0002:00010460       ??_C@_03KHJOGHMM@exp?$AA@  0048d460     LIBCMT:_libm_error_.obj
 0002:00010464       ??_C@_03JGHBODFD@pow?$AA@  0048d464     LIBCMT:_libm_error_.obj
 0002:00010468       ??_C@_04PNGHFIJN@?4com?$AA@ 0048d468     LIBCMT:stat.obj
 0002:00010470       ??_C@_04NEEFLLOK@?4bat?$AA@ 0048d470     LIBCMT:stat.obj
 0002:00010478       ??_C@_04CPCBDHLK@?4cmd?$AA@ 0048d478     LIBCMT:stat.obj
 0002:00010480       ??_C@_04JLMDILM@?4exe?$AA@ 0048d480     LIBCMT:stat.obj
 0002:00010488       ??_C@_0L@KDOEJCKC@_nextafter?$AA@ 0048d488     LIBCMT:_fpexcept_.obj
 0002:00010494       ??_C@_05JGDBENOH@_logb?$AA@ 0048d494     LIBCMT:_fpexcept_.obj
 0002:0001049c       ??_C@_03ONILCKOB@_yn?$AA@  0048d49c     LIBCMT:_fpexcept_.obj
 0002:000104a0       ??_C@_03NAKIGLHK@_y1?$AA@  0048d4a0     LIBCMT:_fpexcept_.obj
 0002:000104a4       ??_C@_03MJLDFKDL@_y0?$AA@  0048d4a4     LIBCMT:_fpexcept_.obj
 0002:000104a8       ??_C@_05GKKHEGJL@frexp?$AA@ 0048d4a8     LIBCMT:_fpexcept_.obj
 0002:000104b0       ??_C@_04KEPJIHGP@fmod?$AA@ 0048d4b0     LIBCMT:_fpexcept_.obj
 0002:000104b8       ??_C@_06MEIMCGCF@_hypot?$AA@ 0048d4b8     LIBCMT:_fpexcept_.obj
 0002:000104c0       ??_C@_05KBKMEMPO@_cabs?$AA@ 0048d4c0     LIBCMT:_fpexcept_.obj
 0002:000104c8       ??_C@_05CEJMAHNP@ldexp?$AA@ 0048d4c8     LIBCMT:_fpexcept_.obj
 0002:000104d0       ??_C@_04ODHECPBC@fabs?$AA@ 0048d4d0     LIBCMT:_fpexcept_.obj
 0002:000104d8       ??_C@_04EIAKFFMI@sqrt?$AA@ 0048d4d8     LIBCMT:_fpexcept_.obj
 0002:000104e0       ??_C@_05KNGEOGJB@atan2?$AA@ 0048d4e0     LIBCMT:_fpexcept_.obj
 0002:000104e8       ??_C@_04FJHINJAO@tanh?$AA@ 0048d4e8     LIBCMT:_fpexcept_.obj
 0002:000104f0       ??_C@_04HPJJNFIM@cosh?$AA@ 0048d4f0     LIBCMT:_fpexcept_.obj
 0002:000104f8       ??_C@_04COOMCNPB@sinh?$AA@ 0048d4f8     LIBCMT:_fpexcept_.obj
 0002:00013e40       __infinity                 00490e40     LIBCMT:_87tran_.obj
 0002:00013e4a       __minfinity                00490e4a     LIBCMT:_87tran_.obj
 0002:00013e54       __logemax                  00490e54     LIBCMT:_87tran_.obj
 0002:00013e7a       __OP_EXPjmptab             00490e7a     LIBCMT:_87tran_.obj
 0002:00013ea0       __indefinite               00490ea0     LIBCMT:_87disp_.obj
 0002:00013eaa       __piby2                    00490eaa     LIBCMT:_87disp_.obj
 0002:00013ed8       __DEFAULT_CW_in_mem        00490ed8     LIBCMT:_common_.obj
 0002:00013eda       __pi_by_2_to_61            00490eda     LIBCMT:_common_.obj
 0002:00014820       ??_C@_0O@FMJNFNKE@united?9states?$AA@ 00491820     LIBCMT:getqloc.obj
 0002:00014830       ??_C@_0P@NDHFFKCA@united?9kingdom?$AA@ 00491830     LIBCMT:getqloc.obj
 0002:00014840       ??_C@_0BC@HHDADLGF@trinidad?5?$CG?5tobago?$AA@ 00491840     LIBCMT:getqloc.obj
 0002:00014854       ??_C@_0M@IOAEBDAC@south?9korea?$AA@ 00491854     LIBCMT:getqloc.obj
 0002:00014860       ??_C@_0N@FIELFKIJ@south?9africa?$AA@ 00491860     LIBCMT:getqloc.obj
 0002:00014870       ??_C@_0M@OPNDHCMC@south?5korea?$AA@ 00491870     LIBCMT:getqloc.obj
 0002:0001487c       ??_C@_0N@MDEOEPFI@south?5africa?$AA@ 0049187c     LIBCMT:getqloc.obj
 0002:0001488c       ??_C@_06FKAPCJLB@slovak?$AA@ 0049188c     LIBCMT:getqloc.obj
 0002:00014894       ??_C@_0M@EFJANOAL@puerto?9rico?$AA@ 00491894     LIBCMT:getqloc.obj
 0002:000148a0       ??_C@_08PGOJKDAI@pr?9china?$AA@ 004918a0     LIBCMT:getqloc.obj
 0002:000148ac       ??_C@_08JHDOMCMI@pr?5china?$AA@ 004918ac     LIBCMT:getqloc.obj
 0002:000148b8       ??_C@_02JHCHFBLL@nz?$AA@   004918b8     LIBCMT:getqloc.obj
 0002:000148bc       ??_C@_0M@LINHDHKP@new?9zealand?$AA@ 004918bc     LIBCMT:getqloc.obj
 0002:000148c8       ??_C@_09IIIPPBDB@hong?9kong?$AA@ 004918c8     LIBCMT:getqloc.obj
 0002:000148d4       ??_C@_07HJLCKBG@holland?$AA@ 004918d4     LIBCMT:getqloc.obj
 0002:000148dc       ??_C@_0O@LEHGMHAG@great?5britain?$AA@ 004918dc     LIBCMT:getqloc.obj
 0002:000148ec       ??_C@_07FACOMELA@england?$AA@ 004918ec     LIBCMT:getqloc.obj
 0002:000148f4       ??_C@_05JIHCEICB@czech?$AA@ 004918f4     LIBCMT:getqloc.obj
 0002:000148fc       ??_C@_05BBJOBLGB@china?$AA@ 004918fc     LIBCMT:getqloc.obj
 0002:00014904       ??_C@_07GPKPHICP@britain?$AA@ 00491904     LIBCMT:getqloc.obj
 0002:0001490c       ??_C@_07MHIPBHMG@america?$AA@ 0049190c     LIBCMT:getqloc.obj
 0002:00014914       ??_C@_03KIALPMKC@usa?$AA@  00491914     LIBCMT:getqloc.obj
 0002:00014918       ??_C@_02FGJGKGGD@us?$AA@   00491918     LIBCMT:getqloc.obj
 0002:0001491c       ??_C@_02NEINDODK@uk?$AA@   0049191c     LIBCMT:getqloc.obj
 0002:00014920       ??_C@_05JMPCFJFJ@swiss?$AA@ 00491920     LIBCMT:getqloc.obj
 0002:00014928       ??_C@_0BA@HLOCPIOD@swedish?9finland?$AA@ 00491928     LIBCMT:getqloc.obj
 0002:00014938       ??_C@_0BC@PKCNIABK@spanish?9venezuela?$AA@ 00491938     LIBCMT:getqloc.obj
 0002:0001494c       ??_C@_0BA@GBHHMIJI@spanish?9uruguay?$AA@ 0049194c     LIBCMT:getqloc.obj
 0002:0001495c       ??_C@_0BE@BHDOHPMC@spanish?9puerto?5rico?$AA@ 0049195c     LIBCMT:getqloc.obj
 0002:00014970       ??_C@_0N@KMOIDGGN@spanish?9peru?$AA@ 00491970     LIBCMT:getqloc.obj
 0002:00014980       ??_C@_0BB@HMHLPGPH@spanish?9paraguay?$AA@ 00491980     LIBCMT:getqloc.obj
 0002:00014994       ??_C@_0P@MCPKNGFD@spanish?9panama?$AA@ 00491994     LIBCMT:getqloc.obj
 0002:000149a4       ??_C@_0BC@IHOHGAIL@spanish?9nicaragua?$AA@ 004919a4     LIBCMT:getqloc.obj
 0002:000149b8       ??_C@_0P@KLMJDNFJ@spanish?9modern?$AA@ 004919b8     LIBCMT:getqloc.obj
 0002:000149c8       ??_C@_0BA@BPAPGBCM@spanish?9mexican?$AA@ 004919c8     LIBCMT:getqloc.obj
 0002:000149d8       ??_C@_0BB@PDECHHHE@spanish?9honduras?$AA@ 004919d8     LIBCMT:getqloc.obj
 0002:000149ec       ??_C@_0BC@KLHKFGDB@spanish?9guatemala?$AA@ 004919ec     LIBCMT:getqloc.obj
 0002:00014a00       ??_C@_0BE@MFOOKJAI@spanish?9el?5salvador?$AA@ 00491a00     LIBCMT:getqloc.obj
 0002:00014a14       ??_C@_0BA@FCOKFPFC@spanish?9ecuador?$AA@ 00491a14     LIBCMT:getqloc.obj
 0002:00014a24       ??_C@_0BL@PLMGIMOO@spanish?9dominican?5republic?$AA@ 00491a24     LIBCMT:getqloc.obj
 0002:00014a40       ??_C@_0BD@HLGDNMHB@spanish?9costa?5rica?$AA@ 00491a40     LIBCMT:getqloc.obj
 0002:00014a54       ??_C@_0BB@PKCBKCPE@spanish?9colombia?$AA@ 00491a54     LIBCMT:getqloc.obj
 0002:00014a68       ??_C@_0O@MCBIJGNE@spanish?9chile?$AA@ 00491a68     LIBCMT:getqloc.obj
 0002:00014a78       ??_C@_0BA@BEFEIGJJ@spanish?9bolivia?$AA@ 00491a78     LIBCMT:getqloc.obj
 0002:00014a88       ??_C@_0BC@EMECMPD@spanish?9argentina?$AA@ 00491a88     LIBCMT:getqloc.obj
 0002:00014a9c       ??_C@_0BF@EALFLENP@portuguese?9brazilian?$AA@ 00491a9c     LIBCMT:getqloc.obj
 0002:00014ab4       ??_C@_0BC@HBLEBLNN@norwegian?9nynorsk?$AA@ 00491ab4     LIBCMT:getqloc.obj
 0002:00014ac8       ??_C@_0BB@HMACDDCK@norwegian?9bokmal?$AA@ 00491ac8     LIBCMT:getqloc.obj
 0002:00014adc       ??_C@_09BAFFPPHE@norwegian?$AA@ 00491adc     LIBCMT:getqloc.obj
 0002:00014ae8       ??_C@_0O@EAJFJDFG@italian?9swiss?$AA@ 00491ae8     LIBCMT:getqloc.obj
 0002:00014af8       ??_C@_0O@CNOMPGD@irish?9english?$AA@ 00491af8     LIBCMT:getqloc.obj
 0002:00014b08       ??_C@_0N@EDHBGCKG@german?9swiss?$AA@ 00491b08     LIBCMT:getqloc.obj
 0002:00014b18       ??_C@_0BC@JACMHNBP@german?9luxembourg?$AA@ 00491b18     LIBCMT:getqloc.obj
 0002:00014b2c       ??_C@_0BE@HBGMGFEG@german?9lichtenstein?$AA@ 00491b2c     LIBCMT:getqloc.obj
 0002:00014b40       ??_C@_0BA@HKKBIBKL@german?9austrian?$AA@ 00491b40     LIBCMT:getqloc.obj
 0002:00014b50       ??_C@_0N@GCAEPEBK@french?9swiss?$AA@ 00491b50     LIBCMT:getqloc.obj
 0002:00014b60       ??_C@_0BC@DJFJJCK@french?9luxembourg?$AA@ 00491b60     LIBCMT:getqloc.obj
 0002:00014b74       ??_C@_0BA@NNCEDFIC@french?9canadian?$AA@ 00491b74     LIBCMT:getqloc.obj
 0002:00014b84       ??_C@_0P@CMPOCLM@french?9belgian?$AA@ 00491b84     LIBCMT:getqloc.obj
 0002:00014b94       ??_C@_0M@GHHDJOK@english?9usa?$AA@ 00491b94     LIBCMT:getqloc.obj
 0002:00014ba0       ??_C@_0L@PLDJKEIL@english?9us?$AA@ 00491ba0     LIBCMT:getqloc.obj
 0002:00014bac       ??_C@_0L@HJCCDMNC@english?9uk?$AA@ 00491bac     LIBCMT:getqloc.obj
 0002:00014bb8       ??_C@_0BK@CKLIAGJB@english?9trinidad?5y?5tobago?$AA@ 00491bb8     LIBCMT:getqloc.obj
 0002:00014bd4       ??_C@_0BF@JMJMGNNF@english?9south?5africa?$AA@ 00491bd4     LIBCMT:getqloc.obj
 0002:00014bec       ??_C@_0L@DKIIFDFD@english?9nz?$AA@ 00491bec     LIBCMT:getqloc.obj
 0002:00014bf8       ??_C@_0BA@ONHGJCLH@english?9jamaica?$AA@ 00491bf8     LIBCMT:getqloc.obj
 0002:00014c08       ??_C@_0M@HJBGHOPO@english?9ire?$AA@ 00491c08     LIBCMT:getqloc.obj
 0002:00014c14       ??_C@_0BC@LFEKMIFB@english?9caribbean?$AA@ 00491c14     LIBCMT:getqloc.obj
 0002:00014c28       ??_C@_0M@OLDPFKHI@english?9can?$AA@ 00491c28     LIBCMT:getqloc.obj
 0002:00014c34       ??_C@_0P@OMDEHBMP@english?9belize?$AA@ 00491c34     LIBCMT:getqloc.obj
 0002:00014c44       ??_C@_0M@KFHFPFED@english?9aus?$AA@ 00491c44     LIBCMT:getqloc.obj
 0002:00014c50       ??_C@_0BB@MNMBKDFE@english?9american?$AA@ 00491c50     LIBCMT:getqloc.obj
 0002:00014c64       ??_C@_0O@KIDLNNBA@dutch?9belgian?$AA@ 00491c64     LIBCMT:getqloc.obj
 0002:00014c74       ??_C@_0BE@JBKABBMH@chinese?9traditional?$AA@ 00491c74     LIBCMT:getqloc.obj
 0002:00014c88       ??_C@_0BC@MJJMPKCG@chinese?9singapore?$AA@ 00491c88     LIBCMT:getqloc.obj
 0002:00014c9c       ??_C@_0BD@FDKADDCP@chinese?9simplified?$AA@ 00491c9c     LIBCMT:getqloc.obj
 0002:00014cb0       ??_C@_0BB@DBEFDDME@chinese?9hongkong?$AA@ 00491cb0     LIBCMT:getqloc.obj
 0002:00014cc4       ??_C@_07DHNMFMCI@chinese?$AA@ 00491cc4     LIBCMT:getqloc.obj
 0002:00014ccc       ??_C@_03FNDDCHI@chi?$AA@   00491ccc     LIBCMT:getqloc.obj
 0002:00014cd0       ??_C@_03BMMIADDJ@chh?$AA@  00491cd0     LIBCMT:getqloc.obj
 0002:00014cd4       ??_C@_08OAIPJDGI@canadian?$AA@ 00491cd4     LIBCMT:getqloc.obj
 0002:00014ce0       ??_C@_07HBPMNPNJ@belgian?$AA@ 00491ce0     LIBCMT:getqloc.obj
 0002:00014ce8       ??_C@_0L@OEKOPBEL@australian?$AA@ 00491ce8     LIBCMT:getqloc.obj
 0002:00014cf4       ??_C@_0BB@MEIMBEDG@american?9english?$AA@ 00491cf4     LIBCMT:getqloc.obj
 0002:00014d08       ??_C@_0BB@DFMDPDGB@american?5english?$AA@ 00491d08     LIBCMT:getqloc.obj
 0002:00014d1c       ??_C@_08IJLOKOLL@american?$AA@ 00491d1c     LIBCMT:getqloc.obj
 0002:00014d28       ___rg_language             00491d28     LIBCMT:getqloc.obj
 0002:00014f30       ___rg_country              00491f30     LIBCMT:getqloc.obj
 0002:00014fe8       ___rglangidNotDefault      00491fe8     LIBCMT:getqloc.obj
 0002:00014ffc       ??_C@_03NFKLAGEF@OCP?$AA@  00491ffc     LIBCMT:getqloc.obj
 0002:00015000       ??_C@_03DFHEHBHG@ACP?$AA@  00492000     LIBCMT:getqloc.obj
 0002:00015004       ??_C@_0BC@NFIEMBLL@Norwegian?9Nynorsk?$AA@ 00492004     LIBCMT:getqloc.obj
 0002:00015018       ??_C@_0BG@KLEAJEFJ@Illegal?5byte?5sequence?$AA@ 00492018     LIBCMT:syserr.obj
 0002:00015030       ??_C@_0BE@ICMCHPHH@Directory?5not?5empty?$AA@ 00492030     LIBCMT:syserr.obj
 0002:00015044       ??_C@_0BJ@IHEHINLI@Function?5not?5implemented?$AA@ 00492044     LIBCMT:syserr.obj
 0002:00015060       ??_C@_0BD@CLHBCGPB@No?5locks?5available?$AA@ 00492060     LIBCMT:syserr.obj
 0002:00015074       ??_C@_0BC@BEDIHIDK@Filename?5too?5long?$AA@ 00492074     LIBCMT:syserr.obj
 0002:00015088       ??_C@_0BK@JAEBMJJM@Resource?5deadlock?5avoided?$AA@ 00492088     LIBCMT:syserr.obj
 0002:000150a4       ??_C@_0BB@FCBJFCAJ@Result?5too?5large?$AA@ 004920a4     LIBCMT:syserr.obj
 0002:000150b8       ??_C@_0N@MMJPGLJK@Domain?5error?$AA@ 004920b8     LIBCMT:syserr.obj
 0002:000150c8       ??_C@_0M@LHEPIIOM@Broken?5pipe?$AA@ 004920c8     LIBCMT:syserr.obj
 0002:000150d4       ??_C@_0P@PKCJJLLM@Too?5many?5links?$AA@ 004920d4     LIBCMT:syserr.obj
 0002:000150e4       ??_C@_0BG@DDBFNKBH@Read?9only?5file?5system?$AA@ 004920e4     LIBCMT:syserr.obj
 0002:000150fc       ??_C@_0N@FEHLOILP@Invalid?5seek?$AA@ 004920fc     LIBCMT:syserr.obj
 0002:0001510c       ??_C@_0BI@FEALHKLD@No?5space?5left?5on?5device?$AA@ 0049210c     LIBCMT:syserr.obj
 0002:00015124       ??_C@_0P@LFMMIPAE@File?5too?5large?$AA@ 00492124     LIBCMT:syserr.obj
 0002:00015134       ??_C@_0CE@ONOKNLPF@Inappropriate?5I?1O?5control?5operat@ 00492134     LIBCMT:syserr.obj
 0002:00015158       ??_C@_0BE@INBJMKGG@Too?5many?5open?5files?$AA@ 00492158     LIBCMT:syserr.obj
 0002:0001516c       ??_C@_0BO@IIFBODJE@Too?5many?5open?5files?5in?5system?$AA@ 0049216c     LIBCMT:syserr.obj
 0002:0001518c       ??_C@_0BB@HMGGCEBG@Invalid?5argument?$AA@ 0049218c     LIBCMT:syserr.obj
 0002:000151a0       ??_C@_0P@NDHGCGKE@Is?5a?5directory?$AA@ 004921a0     LIBCMT:syserr.obj
 0002:000151b0       ??_C@_0BA@CJBACOOL@Not?5a?5directory?$AA@ 004921b0     LIBCMT:syserr.obj
 0002:000151c0       ??_C@_0P@NLEIANHE@No?5such?5device?$AA@ 004921c0     LIBCMT:syserr.obj
 0002:000151d0       ??_C@_0O@OAMDNOCP@Improper?5link?$AA@ 004921d0     LIBCMT:syserr.obj
 0002:000151e0       ??_C@_0M@NAAJNNGH@File?5exists?$AA@ 004921e0     LIBCMT:syserr.obj
 0002:000151ec       ??_C@_0BA@BIBLIOEK@Resource?5device?$AA@ 004921ec     LIBCMT:syserr.obj
 0002:000151fc       ??_C@_0O@NIPGCINC@Unknown?5error?$AA@ 004921fc     LIBCMT:syserr.obj
 0002:0001520c       ??_C@_0M@LOEHLCJD@Bad?5address?$AA@ 0049220c     LIBCMT:syserr.obj
 0002:00015218       ??_C@_0BC@HFNFNKAI@Permission?5denied?$AA@ 00492218     LIBCMT:syserr.obj
 0002:0001522c       ??_C@_0BB@IMDKMPFB@Not?5enough?5space?$AA@ 0049222c     LIBCMT:syserr.obj
 0002:00015240       ??_C@_0CB@EPFKGNAK@Resource?5temporarily?5unavailable@ 00492240     LIBCMT:syserr.obj
 0002:00015264       ??_C@_0BD@LOHELEP@No?5child?5processes?$AA@ 00492264     LIBCMT:syserr.obj
 0002:00015278       ??_C@_0BE@NFGDDCEF@Bad?5file?5descriptor?$AA@ 00492278     LIBCMT:syserr.obj
 0002:0001528c       ??_C@_0BC@HKPNECK@Exec?5format?5error?$AA@ 0049228c     LIBCMT:syserr.obj
 0002:000152a0       ??_C@_0BC@MFFGCDFL@Arg?5list?5too?5long?$AA@ 004922a0     LIBCMT:syserr.obj
 0002:000152b4       ??_C@_0BK@DPKMCKJ@No?5such?5device?5or?5address?$AA@ 004922b4     LIBCMT:syserr.obj
 0002:000152d0       ??_C@_0BD@KKNFOBBD@Input?1output?5error?$AA@ 004922d0     LIBCMT:syserr.obj
 0002:000152e4       ??_C@_0BK@FJBOAFDK@Interrupted?5function?5call?$AA@ 004922e4     LIBCMT:syserr.obj
 0002:00015300       ??_C@_0BA@FKIAIBGA@No?5such?5process?$AA@ 00492300     LIBCMT:syserr.obj
 0002:00015310       ??_C@_0BK@FMDHKPNF@No?5such?5file?5or?5directory?$AA@ 00492310     LIBCMT:syserr.obj
 0002:0001532c       ??_C@_0BI@BJFCGOHL@Operation?5not?5permitted?$AA@ 0049232c     LIBCMT:syserr.obj
 0002:00015344       ??_C@_0BK@CFCOFLF@?5Complete?5Object?5Locator?8?$AA@ 00492344     LIBCMT:undname.obj
 0002:00015360       ??_C@_0BN@MECKDCOJ@?5Class?5Hierarchy?5Descriptor?8?$AA@ 00492360     LIBCMT:undname.obj
 0002:00015380       ??_C@_0BD@LGICGFMM@?5Base?5Class?5Array?8?$AA@ 00492380     LIBCMT:undname.obj
 0002:00015394       ??_C@_0BM@LDKODKLH@?5Base?5Class?5Descriptor?5at?5?$CI?$AA@ 00492394     LIBCMT:undname.obj
 0002:000153b0       ??_C@_0BC@DAFEJGAK@?5Type?5Descriptor?8?$AA@ 004923b0     LIBCMT:undname.obj
 0002:000153c4       ??_C@_0BM@PMGGMLDN@?$GAlocal?5static?5thread?5guard?8?$AA@ 004923c4     LIBCMT:undname.obj
 0002:000153e0       ??_C@_0CL@FGIJHLCE@?$GAmanaged?5vector?5copy?5constructor@ 004923e0     LIBCMT:undname.obj
 0002:0001540c       ??_C@_0CJ@GJELGAMM@?$GAvector?5vbase?5copy?5constructor?5i@ 0049240c     LIBCMT:undname.obj
 0002:00015438       ??_C@_0CD@CGAJBKEJ@?$GAvector?5copy?5constructor?5iterato@ 00492438     LIBCMT:undname.obj
 0002:0001545c       ??_C@_0CB@PDBIFEP@?$GAdynamic?5atexit?5destructor?5for?5?8@ 0049245c     LIBCMT:undname.obj
 0002:00015480       ??_C@_0BL@CLIPGLGB@?$GAdynamic?5initializer?5for?5?8?$AA@ 00492480     LIBCMT:undname.obj
 0002:0001549c       ??_C@_0CM@FCBBDIGB@?$GAeh?5vector?5vbase?5copy?5constructo@ 0049249c     LIBCMT:undname.obj
 0002:000154c8       ??_C@_0CG@HLDDJMAG@?$GAeh?5vector?5copy?5constructor?5iter@ 004924c8     LIBCMT:undname.obj
 0002:000154f0       ??_C@_0CF@IMGKMJNO@?$GAmanaged?5vector?5destructor?5itera@ 004924f0     LIBCMT:undname.obj
 0002:00015518       ??_C@_0CG@CFDHKGGD@?$GAmanaged?5vector?5constructor?5iter@ 00492518     LIBCMT:undname.obj
 0002:00015540       ??_C@_0BN@CKNJLHMB@?$GAplacement?5delete?$FL?$FN?5closure?8?$AA@ 00492540     LIBCMT:undname.obj
 0002:00015560       ??_C@_0BL@CNOONJFP@?$GAplacement?5delete?5closure?8?$AA@ 00492560     LIBCMT:undname.obj
 0002:0001557c       ??_C@_0P@HJKNJFNN@?$GAomni?5callsig?8?$AA@ 0049257c     LIBCMT:undname.obj
 0002:0001558c       ??_C@_09LBNFPBCA@?5delete?$FL?$FN?$AA@ 0049258c     LIBCMT:undname.obj
 0002:00015598       ??_C@_06FHBGPFGH@?5new?$FL?$FN?$AA@ 00492598     LIBCMT:undname.obj
 0002:000155a0       ??_C@_0CE@IIHCMGGL@?$GAlocal?5vftable?5constructor?5closu@ 004925a0     LIBCMT:undname.obj
 0002:000155c4       ??_C@_0BA@KKLDJDLB@?$GAlocal?5vftable?8?$AA@ 004925c4     LIBCMT:undname.obj
 0002:000155d4       ??_C@_05KHLCHHI@?$GARTTI?$AA@ 004925d4     LIBCMT:undname.obj
 0002:000155dc       ??_C@_03KLGMFNMG@?$GAEH?$AA@ 004925dc     LIBCMT:undname.obj
 0002:000155e0       ??_C@_0BA@KBCDOMBN@?$GAudt?5returning?8?$AA@ 004925e0     LIBCMT:undname.obj
 0002:000155f0       ??_C@_0BL@LLKPOHJI@?$GAcopy?5constructor?5closure?8?$AA@ 004925f0     LIBCMT:undname.obj
 0002:0001560c       ??_C@_0CH@OOJPLCPH@?$GAeh?5vector?5vbase?5constructor?5ite@ 0049260c     LIBCMT:undname.obj
 0002:00015634       ??_C@_0CA@GCEOPDGL@?$GAeh?5vector?5destructor?5iterator?8?$AA@ 00492634     LIBCMT:undname.obj
 0002:00015654       ??_C@_0CB@JONCMFFK@?$GAeh?5vector?5constructor?5iterator?8@ 00492654     LIBCMT:undname.obj
 0002:00015678       ??_C@_0BL@NILFHHPC@?$GAvirtual?5displacement?5map?8?$AA@ 00492678     LIBCMT:undname.obj
 0002:00015694       ??_C@_0CE@IKBNEHA@?$GAvector?5vbase?5constructor?5iterat@ 00492694     LIBCMT:undname.obj
 0002:000156b8       ??_C@_0BN@LFPFMEDL@?$GAvector?5destructor?5iterator?8?$AA@ 004926b8     LIBCMT:undname.obj
 0002:000156d8       ??_C@_0BO@PFGOCPJJ@?$GAvector?5constructor?5iterator?8?$AA@ 004926d8     LIBCMT:undname.obj
 0002:000156f8       ??_C@_0BN@IMDCHIKM@?$GAscalar?5deleting?5destructor?8?$AA@ 004926f8     LIBCMT:undname.obj
 0002:00015718       ??_C@_0BO@OBMKPJIG@?$GAdefault?5constructor?5closure?8?$AA@ 00492718     LIBCMT:undname.obj
 0002:00015738       ??_C@_0BN@DEGPLNFK@?$GAvector?5deleting?5destructor?8?$AA@ 00492738     LIBCMT:undname.obj
 0002:00015758       ??_C@_0BD@JDLKDPAB@?$GAvbase?5destructor?8?$AA@ 00492758     LIBCMT:undname.obj
 0002:0001576c       ??_C@_08OBABFOLI@?$GAstring?8?$AA@ 0049276c     LIBCMT:undname.obj
 0002:00015778       ??_C@_0BF@KDPPACIK@?$GAlocal?5static?5guard?8?$AA@ 00492778     LIBCMT:undname.obj
 0002:00015790       ??_C@_08LLFFHHDJ@?$GAtypeof?8?$AA@ 00492790     LIBCMT:undname.obj
 0002:0001579c       ??_C@_07FEEIOKP@?$GAvcall?8?$AA@ 0049279c     LIBCMT:undname.obj
 0002:000157a4       ??_C@_09BLBHBJP@?$GAvbtable?8?$AA@ 004927a4     LIBCMT:undname.obj
 0002:000157b0       ??_C@_09IFPLHPGF@?$GAvftable?8?$AA@ 004927b0     LIBCMT:undname.obj
 0002:000157bc       ??_C@_02MHEGNOJ@?$FO?$DN?$AA@ 004927bc     LIBCMT:undname.obj
 0002:000157c0       ??_C@_02DHLNPPGH@?$HM?$DN?$AA@ 004927c0     LIBCMT:undname.obj
 0002:000157c4       ??_C@_02FGJGFEAB@?$CG?$DN?$AA@ 004927c4     LIBCMT:undname.obj
 0002:000157c8       ??_C@_03CDNPDDLA@?$DM?$DM?$DN?$AA@ 004927c8     LIBCMT:undname.obj
 0002:000157cc       ??_C@_03IKFCCPFF@?$DO?$DO?$DN?$AA@ 004927cc     LIBCMT:undname.obj
 0002:000157d0       ??_C@_02FENAOKFI@?$CF?$DN?$AA@ 004927d0     LIBCMT:undname.obj
 0002:000157d4       ??_C@_02FJEHGPIO@?1?$DN?$AA@ 004927d4     LIBCMT:undname.obj
 0002:000157d8       ??_C@_02FKMDLLOA@?9?$DN?$AA@ 004927d8     LIBCMT:undname.obj
 0002:000157dc       ??_C@_02FOEOMHFC@?$CL?$DN?$AA@ 004927dc     LIBCMT:undname.obj
 0002:000157e0       ??_C@_02FPIMKNGF@?$CK?$DN?$AA@ 004927e0     LIBCMT:undname.obj
 0002:000157e4       ??_C@_02NONPIBCD@?$HM?$HM?$AA@ 004927e4     LIBCMT:undname.obj
 0002:000157e8       ??_C@_02PPKAJPJL@?$CG?$CG?$AA@ 004927e8     LIBCMT:undname.obj
 0002:000157ec       ??_C@_01DNKMNLPK@?$HM?$AA@ 004927ec     LIBCMT:undname.obj
 0002:000157f0       ??_C@_01JKBOJNNK@?$FO?$AA@ 004927f0     LIBCMT:undname.obj
 0002:000157f4       ??_C@_01PJKLJHI@?$HO?$AA@  004927f4     LIBCMT:undname.obj
 0002:000157f8       ??_C@_02HCKGKOFO@?$CI?$CJ?$AA@ 004927f8     LIBCMT:undname.obj
 0002:000157fc       ??_C@_02EEKDKGMJ@?$DO?$DN?$AA@ 004927fc     LIBCMT:undname.obj
 0002:00015800       ??_C@_01PPODPGHN@?$DO?$AA@ 00492800     LIBCMT:undname.obj
 0002:00015804       ??_C@_02EHCHHCKH@?$DM?$DN?$AA@ 00492804     LIBCMT:undname.obj
 0002:00015808       ??_C@_01FGNFDNOH@?$CF?$AA@ 00492808     LIBCMT:undname.obj
 0002:0001580c       ??_C@_03MNHNFDLC@?9?$DO?$CK?$AA@ 0049280c     LIBCMT:undname.obj
 0002:00015810       ??_C@_01MIFGBAGJ@?$CL?$AA@ 00492810     LIBCMT:undname.obj
 0002:00015814       ??_C@_02ECNGHCIF@?$CL?$CL?$AA@ 00492814     LIBCMT:undname.obj
 0002:00015818       ??_C@_02HBOOOICD@?9?$DO?$AA@ 00492818     LIBCMT:undname.obj
 0002:0001581c       ??_C@_08LHJFAFGD@operator?$AA@ 0049281c     LIBCMT:undname.obj
 0002:00015828       ??_C@_02GPECMEKF@?$FL?$FN?$AA@ 00492828     LIBCMT:undname.obj
 0002:0001582c       ??_C@_02FDNJECIE@?$CB?$DN?$AA@ 0049282c     LIBCMT:undname.obj
 0002:00015830       ??_C@_02EGOFBIJA@?$DN?$DN?$AA@ 00492830     LIBCMT:undname.obj
 0002:00015834       ??_C@_01DCLJPIOD@?$CB?$AA@ 00492834     LIBCMT:undname.obj
 0002:00015838       ??_C@_02GPIOPFAK@?$DO?$DO?$AA@ 00492838     LIBCMT:undname.obj
 0002:0001583c       ??_C@_07FPCDHGMM@?5delete?$AA@ 0049283c     LIBCMT:undname.obj
 0002:00015844       ??_C@_04NIHEBCM@?5new?$AA@ 00492844     LIBCMT:undname.obj
 0002:0001584c       ??_C@_0M@GFIIJFMG@__unaligned?$AA@ 0049284c     LIBCMT:undname.obj
 0002:00015858       ??_C@_0L@PILCLIHE@__restrict?$AA@ 00492858     LIBCMT:undname.obj
 0002:00015864       ??_C@_07JOMMBBKO@__ptr64?$AA@ 00492864     LIBCMT:undname.obj
 0002:0001586c       ??_C@_06GHPCKEAG@__eabi?$AA@ 0049286c     LIBCMT:undname.obj
 0002:00015874       ??_C@_09HIJEGCPM@__clrcall?$AA@ 00492874     LIBCMT:undname.obj
 0002:00015880       ??_C@_0L@JMKHOMEK@__fastcall?$AA@ 00492880     LIBCMT:undname.obj
 0002:0001588c       ??_C@_0L@NPHFGOKO@__thiscall?$AA@ 0049288c     LIBCMT:undname.obj
 0002:00015898       ??_C@_09IFJBGAPI@__stdcall?$AA@ 00492898     LIBCMT:undname.obj
 0002:000158a4       ??_C@_08GHMPAG@__pascal?$AA@ 004928a4     LIBCMT:undname.obj
 0002:000158b0       ??_C@_07KOLFKCDI@__cdecl?$AA@ 004928b0     LIBCMT:undname.obj
 0002:000158b8       ??_C@_08EHJDFFNH@__based?$CI?$AA@ 004928b8     LIBCMT:undname.obj
 0002:00015a4c       ??_C@_0BI@DFKBFLJE@GetProcessWindowStation?$AA@ 00492a4c     LIBCMT:crtmboxw.obj
 0002:00015a64       ??_C@_0BK@DEKFELLI@GetUserObjectInformationW?$AA@ 00492a64     LIBCMT:crtmboxw.obj
 0002:00015a80       ??_C@_0BD@HHGDFDBJ@GetLastActivePopup?$AA@ 00492a80     LIBCMT:crtmboxw.obj
 0002:00015a94       ??_C@_0BA@HNOPNCHB@GetActiveWindow?$AA@ 00492a94     LIBCMT:crtmboxw.obj
 0002:00015aa4       ??_C@_0M@DLDCCGNP@MessageBoxW?$AA@ 00492aa4     LIBCMT:crtmboxw.obj
 0002:00015ab0       ??_C@_1BG@GOEBHBDC@?$AAU?$AAS?$AAE?$AAR?$AA3?$AA2?$AA?4?$AAD?$AAL?$AAL?$AA?$AA@ 00492ab0     LIBCMT:crtmboxw.obj
 0002:00015ac8       ??_C@_06IMKFLFPG@1?$CDQNAN?$AA@ 00492ac8     LIBCMT:_x10fout_.obj
 0002:00015ad0       ??_C@_05DNEBIAHO@1?$CDINF?$AA@ 00492ad0     LIBCMT:_x10fout_.obj
 0002:00015ad8       ??_C@_05PHHOCPM@1?$CDIND?$AA@ 00492ad8     LIBCMT:_x10fout_.obj
 0002:00015ae0       ??_C@_06PGGFOGJG@1?$CDSNAN?$AA@ 00492ae0     LIBCMT:_x10fout_.obj
 0002:00015ae8       ??_C@_1BA@BALFACEM@?$AAC?$AAO?$AAN?$AAO?$AAU?$AAT?$AA$?$AA?$AA@ 00492ae8     LIBCMT:initcon.obj
 0002:00015e38       ??_C@_1O@PNMIMBDD@?$AAC?$AAO?$AAN?$AAI?$AAN?$AA$?$AA?$AA@ 00492e38     LIBCMT:initconin.obj
 0002:00015e48       __load_config_used         00492e48     LIBCMT:loadcfg.obj
 0002:00015e90       ??_R4runtime_error@std@@6B@ 00492e90     client.obj
 0002:00015ea4       ??_R3runtime_error@std@@8  00492ea4     client.obj
 0002:00015eb4       ??_R2runtime_error@std@@8  00492eb4     client.obj
 0002:00015ec0       ??_R1A@?0A@EA@runtime_error@std@@8 00492ec0     client.obj
 0002:00015edc       ??_R1A@?0A@EA@exception@std@@8 00492edc     client.obj
 0002:00015ef8       ??_R3exception@std@@8      00492ef8     client.obj
 0002:00015f08       ??_R2exception@std@@8      00492f08     client.obj
 0002:00015f10       ??_R4facet@locale@std@@6B@ 00492f10     client.obj
 0002:00015f24       ??_R3facet@locale@std@@8   00492f24     client.obj
 0002:00015f34       ??_R2facet@locale@std@@8   00492f34     client.obj
 0002:00015f3c       ??_R1A@?0A@EA@facet@locale@std@@8 00492f3c     client.obj
 0002:00015f58       ??_R4system_error@std@@6B@ 00492f58     client.obj
 0002:00015f6c       ??_R3system_error@std@@8   00492f6c     client.obj
 0002:00015f7c       ??_R2system_error@std@@8   00492f7c     client.obj
 0002:00015f8c       ??_R1A@?0A@EA@system_error@std@@8 00492f8c     client.obj
 0002:00015fa8       ??_R4failure@ios_base@std@@6B@ 00492fa8     client.obj
 0002:00015fbc       ??_R3failure@ios_base@std@@8 00492fbc     client.obj
 0002:00015fcc       ??_R2failure@ios_base@std@@8 00492fcc     client.obj
 0002:00015fe0       ??_R1A@?0A@EA@failure@ios_base@std@@8 00492fe0     client.obj
 0002:00015ffc       ??_R4?$num_put@DV?$ostreambuf_iterator@DU?$char_traits@D@std@@@std@@@std@@6B@ 00492ffc     client.obj
 0002:00016010       ??_R3?$num_put@DV?$ostreambuf_iterator@DU?$char_traits@D@std@@@std@@@std@@8 00493010     client.obj
 0002:00016020       ??_R2?$num_put@DV?$ostreambuf_iterator@DU?$char_traits@D@std@@@std@@@std@@8 00493020     client.obj
 0002:0001602c       ??_R1A@?0A@EA@?$num_put@DV?$ostreambuf_iterator@DU?$char_traits@D@std@@@std@@@std@@8 0049302c     client.obj
 0002:00016048       ??_R4bad_alloc@std@@6B@    00493048     client.obj
 0002:0001605c       ??_R3bad_alloc@std@@8      0049305c     client.obj
 0002:0001606c       ??_R2bad_alloc@std@@8      0049306c     client.obj
 0002:00016078       ??_R1A@?0A@EA@bad_alloc@std@@8 00493078     client.obj
 0002:00016094       ??_R4?$numpunct@D@std@@6B@ 00493094     client.obj
 0002:000160a8       ??_R3?$numpunct@D@std@@8   004930a8     client.obj
 0002:000160b8       ??_R2?$numpunct@D@std@@8   004930b8     client.obj
 0002:000160c4       ??_R1A@?0A@EA@?$numpunct@D@std@@8 004930c4     client.obj
 0002:000160e0       ??_R4EQNetworkPacket@@6B@  004930e0     EQNetwork.obj
 0002:000160f4       ??_R3EQNetworkPacket@@8    004930f4     EQNetwork.obj
 0002:00016104       ??_R2EQNetworkPacket@@8    00493104     EQNetwork.obj
 0002:0001610c       ??_R1A@?0A@EA@EQNetworkPacket@@8 0049310c     EQNetwork.obj
 0002:00016128       ??_R4EQNetworkFragmentGroup@@6B@ 00493128     EQNetwork.obj
 0002:0001613c       ??_R3EQNetworkFragmentGroup@@8 0049313c     EQNetwork.obj
 0002:0001614c       ??_R2EQNetworkFragmentGroup@@8 0049314c     EQNetwork.obj
 0002:00016154       ??_R1A@?0A@EA@EQNetworkFragmentGroup@@8 00493154     EQNetwork.obj
 0002:00016170       ??_R4EQNetworkServer@@6B@  00493170     EQNetwork.obj
 0002:00016184       ??_R3EQNetworkServer@@8    00493184     EQNetwork.obj
 0002:00016194       ??_R2EQNetworkServer@@8    00493194     EQNetwork.obj
 0002:0001619c       ??_R1A@?0A@EA@EQNetworkServer@@8 0049319c     EQNetwork.obj
 0002:000161b8       ??_R4EQNetworkFragmentGroupList@@6B@ 004931b8     EQNetwork.obj
 0002:000161cc       ??_R3EQNetworkFragmentGroupList@@8 004931cc     EQNetwork.obj
 0002:000161dc       ??_R2EQNetworkFragmentGroupList@@8 004931dc     EQNetwork.obj
 0002:000161e4       ??_R1A@?0A@EA@EQNetworkFragmentGroupList@@8 004931e4     EQNetwork.obj
 0002:00016200       ??_R4EQNetworkConnection@@6B@ 00493200     EQNetwork.obj
 0002:00016214       ??_R3EQNetworkConnection@@8 00493214     EQNetwork.obj
 0002:00016224       ??_R2EQNetworkConnection@@8 00493224     EQNetwork.obj
 0002:0001622c       ??_R1A@?0A@EA@EQNetworkConnection@@8 0049322c     EQNetwork.obj
 0002:00016248       ??_R4TCPConnection@@6B@    00493248     TCPConnection.obj
 0002:0001625c       ??_R3TCPConnection@@8      0049325c     TCPConnection.obj
 0002:0001626c       ??_R2TCPConnection@@8      0049326c     TCPConnection.obj
 0002:00016274       ??_R1A@?0A@EA@TCPConnection@@8 00493274     TCPConnection.obj
 0002:00016290       ??_R4TCPServer@@6B@        00493290     TCPConnection.obj
 0002:000162a4       ??_R3TCPServer@@8          004932a4     TCPConnection.obj
 0002:000162b4       ??_R2TCPServer@@8          004932b4     TCPConnection.obj
 0002:000162bc       ??_R1A@?0A@EA@TCPServer@@8 004932bc     TCPConnection.obj
 0002:000162d8       ??_R4Message@yaSSL@@6B@    004932d8     mysqlclient:ssl.obj
 0002:000162ec       ??_R3Message@yaSSL@@8      004932ec     mysqlclient:ssl.obj
 0002:000162fc       ??_R2Message@yaSSL@@8      004932fc     mysqlclient:ssl.obj
 0002:00016308       ??_R1A@?0A@EA@Message@yaSSL@@8 00493308     mysqlclient:ssl.obj
 0002:00016324       ??_R13?0A@EA@virtual_base@yaSSL@@8 00493324     mysqlclient:ssl.obj
 0002:00016340       ??_R3virtual_base@yaSSL@@8 00493340     mysqlclient:ssl.obj
 0002:00016350       ??_R2virtual_base@yaSSL@@8 00493350     mysqlclient:ssl.obj
 0002:00016358       ??_R1A@?0A@EA@virtual_base@yaSSL@@8 00493358     mysqlclient:ssl.obj
 0002:00016374       ??_R4HandShakeBase@yaSSL@@6B@ 00493374     mysqlclient:ssl.obj
 0002:00016388       ??_R3HandShakeBase@yaSSL@@8 00493388     mysqlclient:ssl.obj
 0002:00016398       ??_R2HandShakeBase@yaSSL@@8 00493398     mysqlclient:ssl.obj
 0002:000163a4       ??_R1A@?0A@EA@HandShakeBase@yaSSL@@8 004933a4     mysqlclient:ssl.obj
 0002:000163c0       ??_R4HASH@TaoCrypt@@6B@    004933c0     mysqlclient:ssl.obj
 0002:000163d4       ??_R3HASH@TaoCrypt@@8      004933d4     mysqlclient:ssl.obj
 0002:000163e4       ??_R2HASH@TaoCrypt@@8      004933e4     mysqlclient:ssl.obj
 0002:000163f0       ??_R1A@?0A@EA@HASH@TaoCrypt@@8 004933f0     mysqlclient:ssl.obj
 0002:0001640c       ??_R13?0A@EA@virtual_base@TaoCrypt@@8 0049340c     mysqlclient:ssl.obj
 0002:00016428       ??_R3virtual_base@TaoCrypt@@8 00493428     mysqlclient:ssl.obj
 0002:00016438       ??_R2virtual_base@TaoCrypt@@8 00493438     mysqlclient:ssl.obj
 0002:00016440       ??_R1A@?0A@EA@virtual_base@TaoCrypt@@8 00493440     mysqlclient:ssl.obj
 0002:0001645c       ??_R4MD5@TaoCrypt@@6B@     0049345c     mysqlclient:ssl.obj
 0002:00016470       ??_R3MD5@TaoCrypt@@8       00493470     mysqlclient:ssl.obj
 0002:00016480       ??_R2MD5@TaoCrypt@@8       00493480     mysqlclient:ssl.obj
 0002:00016494       ??_R1A@?0A@EA@MD5@TaoCrypt@@8 00493494     mysqlclient:ssl.obj
 0002:000164b0       ??_R1A@?0A@EA@HASHwithTransform@TaoCrypt@@8 004934b0     mysqlclient:ssl.obj
 0002:000164cc       ??_R3HASHwithTransform@TaoCrypt@@8 004934cc     mysqlclient:ssl.obj
 0002:000164dc       ??_R2HASHwithTransform@TaoCrypt@@8 004934dc     mysqlclient:ssl.obj
 0002:000164ec       ??_R4Digest@yaSSL@@6B@     004934ec     mysqlclient:crypto_wrapper.obj
 0002:00016500       ??_R3Digest@yaSSL@@8       00493500     mysqlclient:crypto_wrapper.obj
 0002:00016510       ??_R2Digest@yaSSL@@8       00493510     mysqlclient:crypto_wrapper.obj
 0002:0001651c       ??_R1A@?0A@EA@Digest@yaSSL@@8 0049351c     mysqlclient:crypto_wrapper.obj
 0002:00016538       ??_R4BulkCipher@yaSSL@@6B@ 00493538     mysqlclient:crypto_wrapper.obj
 0002:0001654c       ??_R3BulkCipher@yaSSL@@8   0049354c     mysqlclient:crypto_wrapper.obj
 0002:0001655c       ??_R2BulkCipher@yaSSL@@8   0049355c     mysqlclient:crypto_wrapper.obj
 0002:00016568       ??_R1A@?0A@EA@BulkCipher@yaSSL@@8 00493568     mysqlclient:crypto_wrapper.obj
 0002:00016584       ??_R4Auth@yaSSL@@6B@       00493584     mysqlclient:crypto_wrapper.obj
 0002:00016598       ??_R3Auth@yaSSL@@8         00493598     mysqlclient:crypto_wrapper.obj
 0002:000165a8       ??_R2Auth@yaSSL@@8         004935a8     mysqlclient:crypto_wrapper.obj
 0002:000165b4       ??_R1A@?0A@EA@Auth@yaSSL@@8 004935b4     mysqlclient:crypto_wrapper.obj
 0002:000165d0       ??_R4SHA@TaoCrypt@@6B@     004935d0     mysqlclient:crypto_wrapper.obj
 0002:000165e4       ??_R3SHA@TaoCrypt@@8       004935e4     mysqlclient:crypto_wrapper.obj
 0002:000165f4       ??_R2SHA@TaoCrypt@@8       004935f4     mysqlclient:crypto_wrapper.obj
 0002:00016608       ??_R1A@?0A@EA@SHA@TaoCrypt@@8 00493608     mysqlclient:crypto_wrapper.obj
 0002:00016624       ??_R4RIPEMD160@TaoCrypt@@6B@ 00493624     mysqlclient:crypto_wrapper.obj
 0002:00016638       ??_R3RIPEMD160@TaoCrypt@@8 00493638     mysqlclient:crypto_wrapper.obj
 0002:00016648       ??_R2RIPEMD160@TaoCrypt@@8 00493648     mysqlclient:crypto_wrapper.obj
 0002:0001665c       ??_R1A@?0A@EA@RIPEMD160@TaoCrypt@@8 0049365c     mysqlclient:crypto_wrapper.obj
 0002:00016678       ??_R4Mode_BASE@TaoCrypt@@6B@ 00493678     mysqlclient:crypto_wrapper.obj
 0002:0001668c       ??_R3Mode_BASE@TaoCrypt@@8 0049368c     mysqlclient:crypto_wrapper.obj
 0002:0001669c       ??_R2Mode_BASE@TaoCrypt@@8 0049369c     mysqlclient:crypto_wrapper.obj
 0002:000166a8       ??_R1A@?0A@EA@Mode_BASE@TaoCrypt@@8 004936a8     mysqlclient:crypto_wrapper.obj
 0002:000166c4       ??_R4DES@TaoCrypt@@6B@     004936c4     mysqlclient:crypto_wrapper.obj
 0002:000166d8       ??_R3DES@TaoCrypt@@8       004936d8     mysqlclient:crypto_wrapper.obj
 0002:000166e8       ??_R2DES@TaoCrypt@@8       004936e8     mysqlclient:crypto_wrapper.obj
 0002:000166fc       ??_R1A@?0A@EA@DES@TaoCrypt@@8 004936fc     mysqlclient:crypto_wrapper.obj
 0002:00016718       ??_R1DI@?0A@EA@BasicDES@TaoCrypt@@8 00493718     mysqlclient:crypto_wrapper.obj
 0002:00016734       ??_R3BasicDES@TaoCrypt@@8  00493734     mysqlclient:crypto_wrapper.obj
 0002:00016744       ??_R2BasicDES@TaoCrypt@@8  00493744     mysqlclient:crypto_wrapper.obj
 0002:0001674c       ??_R1A@?0A@EA@BasicDES@TaoCrypt@@8 0049374c     mysqlclient:crypto_wrapper.obj
 0002:00016768       ??_R4DES_EDE3@TaoCrypt@@6B@ 00493768     mysqlclient:crypto_wrapper.obj
 0002:0001677c       ??_R3DES_EDE3@TaoCrypt@@8  0049377c     mysqlclient:crypto_wrapper.obj
 0002:0001678c       ??_R2DES_EDE3@TaoCrypt@@8  0049378c     mysqlclient:crypto_wrapper.obj
 0002:0001679c       ??_R1A@?0A@EA@DES_EDE3@TaoCrypt@@8 0049379c     mysqlclient:crypto_wrapper.obj
 0002:000167b8       ??_R4AES@TaoCrypt@@6B@     004937b8     mysqlclient:crypto_wrapper.obj
 0002:000167cc       ??_R3AES@TaoCrypt@@8       004937cc     mysqlclient:crypto_wrapper.obj
 0002:000167dc       ??_R2AES@TaoCrypt@@8       004937dc     mysqlclient:crypto_wrapper.obj
 0002:000167ec       ??_R1A@?0A@EA@AES@TaoCrypt@@8 004937ec     mysqlclient:crypto_wrapper.obj
 0002:00016808       ??_R4MD5@yaSSL@@6B@        00493808     mysqlclient:crypto_wrapper.obj
 0002:0001681c       ??_R3MD5@yaSSL@@8          0049381c     mysqlclient:crypto_wrapper.obj
 0002:0001682c       ??_R2MD5@yaSSL@@8          0049382c     mysqlclient:crypto_wrapper.obj
 0002:0001683c       ??_R1A@?0A@EA@MD5@yaSSL@@8 0049383c     mysqlclient:crypto_wrapper.obj
 0002:00016858       ??_R4SHA@yaSSL@@6B@        00493858     mysqlclient:crypto_wrapper.obj
 0002:0001686c       ??_R3SHA@yaSSL@@8          0049386c     mysqlclient:crypto_wrapper.obj
 0002:0001687c       ??_R2SHA@yaSSL@@8          0049387c     mysqlclient:crypto_wrapper.obj
 0002:0001688c       ??_R1A@?0A@EA@SHA@yaSSL@@8 0049388c     mysqlclient:crypto_wrapper.obj
 0002:000168a8       ??_R4RMD@yaSSL@@6B@        004938a8     mysqlclient:crypto_wrapper.obj
 0002:000168bc       ??_R3RMD@yaSSL@@8          004938bc     mysqlclient:crypto_wrapper.obj
 0002:000168cc       ??_R2RMD@yaSSL@@8          004938cc     mysqlclient:crypto_wrapper.obj
 0002:000168dc       ??_R1A@?0A@EA@RMD@yaSSL@@8 004938dc     mysqlclient:crypto_wrapper.obj
 0002:000168f8       ??_R4RC4@yaSSL@@6B@        004938f8     mysqlclient:crypto_wrapper.obj
 0002:0001690c       ??_R3RC4@yaSSL@@8          0049390c     mysqlclient:crypto_wrapper.obj
 0002:0001691c       ??_R2RC4@yaSSL@@8          0049391c     mysqlclient:crypto_wrapper.obj
 0002:0001692c       ??_R1A@?0A@EA@RC4@yaSSL@@8 0049392c     mysqlclient:crypto_wrapper.obj
 0002:00016948       ??_R4AES@yaSSL@@6B@        00493948     mysqlclient:crypto_wrapper.obj
 0002:0001695c       ??_R3AES@yaSSL@@8          0049395c     mysqlclient:crypto_wrapper.obj
 0002:0001696c       ??_R2AES@yaSSL@@8          0049396c     mysqlclient:crypto_wrapper.obj
 0002:0001697c       ??_R1A@?0A@EA@AES@yaSSL@@8 0049397c     mysqlclient:crypto_wrapper.obj
 0002:00016998       ??_R4HMAC_MD5@yaSSL@@6B@   00493998     mysqlclient:crypto_wrapper.obj
 0002:000169ac       ??_R3HMAC_MD5@yaSSL@@8     004939ac     mysqlclient:crypto_wrapper.obj
 0002:000169bc       ??_R2HMAC_MD5@yaSSL@@8     004939bc     mysqlclient:crypto_wrapper.obj
 0002:000169cc       ??_R1A@?0A@EA@HMAC_MD5@yaSSL@@8 004939cc     mysqlclient:crypto_wrapper.obj
 0002:000169e8       ??_R4HMAC_SHA@yaSSL@@6B@   004939e8     mysqlclient:crypto_wrapper.obj
 0002:000169fc       ??_R3HMAC_SHA@yaSSL@@8     004939fc     mysqlclient:crypto_wrapper.obj
 0002:00016a0c       ??_R2HMAC_SHA@yaSSL@@8     00493a0c     mysqlclient:crypto_wrapper.obj
 0002:00016a1c       ??_R1A@?0A@EA@HMAC_SHA@yaSSL@@8 00493a1c     mysqlclient:crypto_wrapper.obj
 0002:00016a38       ??_R4HMAC_RMD@yaSSL@@6B@   00493a38     mysqlclient:crypto_wrapper.obj
 0002:00016a4c       ??_R3HMAC_RMD@yaSSL@@8     00493a4c     mysqlclient:crypto_wrapper.obj
 0002:00016a5c       ??_R2HMAC_RMD@yaSSL@@8     00493a5c     mysqlclient:crypto_wrapper.obj
 0002:00016a6c       ??_R1A@?0A@EA@HMAC_RMD@yaSSL@@8 00493a6c     mysqlclient:crypto_wrapper.obj
 0002:00016a88       ??_R4DES@yaSSL@@6B@        00493a88     mysqlclient:crypto_wrapper.obj
 0002:00016a9c       ??_R3DES@yaSSL@@8          00493a9c     mysqlclient:crypto_wrapper.obj
 0002:00016aac       ??_R2DES@yaSSL@@8          00493aac     mysqlclient:crypto_wrapper.obj
 0002:00016abc       ??_R1A@?0A@EA@DES@yaSSL@@8 00493abc     mysqlclient:crypto_wrapper.obj
 0002:00016ad8       ??_R4DES_EDE@yaSSL@@6B@    00493ad8     mysqlclient:crypto_wrapper.obj
 0002:00016aec       ??_R3DES_EDE@yaSSL@@8      00493aec     mysqlclient:crypto_wrapper.obj
 0002:00016afc       ??_R2DES_EDE@yaSSL@@8      00493afc     mysqlclient:crypto_wrapper.obj
 0002:00016b0c       ??_R1A@?0A@EA@DES_EDE@yaSSL@@8 00493b0c     mysqlclient:crypto_wrapper.obj
 0002:00016b28       ??_R4DSS@yaSSL@@6B@        00493b28     mysqlclient:crypto_wrapper.obj
 0002:00016b3c       ??_R3DSS@yaSSL@@8          00493b3c     mysqlclient:crypto_wrapper.obj
 0002:00016b4c       ??_R2DSS@yaSSL@@8          00493b4c     mysqlclient:crypto_wrapper.obj
 0002:00016b5c       ??_R1A@?0A@EA@DSS@yaSSL@@8 00493b5c     mysqlclient:crypto_wrapper.obj
 0002:00016b78       ??_R4RSA@yaSSL@@6B@        00493b78     mysqlclient:crypto_wrapper.obj
 0002:00016b8c       ??_R3RSA@yaSSL@@8          00493b8c     mysqlclient:crypto_wrapper.obj
 0002:00016b9c       ??_R2RSA@yaSSL@@8          00493b9c     mysqlclient:crypto_wrapper.obj
 0002:00016bac       ??_R1A@?0A@EA@RSA@yaSSL@@8 00493bac     mysqlclient:crypto_wrapper.obj
 0002:00016bc8       ??_R4HASHwithTransform@TaoCrypt@@6B@ 00493bc8     mysqlclient:hash.cpp.obj
 0002:00016bdc       ??_R4HandShakeHeader@yaSSL@@6B@ 00493bdc     mysqlclient:yassl_imp.obj
 0002:00016bf0       ??_R3HandShakeHeader@yaSSL@@8 00493bf0     mysqlclient:yassl_imp.obj
 0002:00016c00       ??_R2HandShakeHeader@yaSSL@@8 00493c00     mysqlclient:yassl_imp.obj
 0002:00016c10       ??_R1A@?0A@EA@HandShakeHeader@yaSSL@@8 00493c10     mysqlclient:yassl_imp.obj
 0002:00016c2c       ??_R4ServerKeyBase@yaSSL@@6B@ 00493c2c     mysqlclient:yassl_imp.obj
 0002:00016c40       ??_R3ServerKeyBase@yaSSL@@8 00493c40     mysqlclient:yassl_imp.obj
 0002:00016c50       ??_R2ServerKeyBase@yaSSL@@8 00493c50     mysqlclient:yassl_imp.obj
 0002:00016c5c       ??_R1A@?0A@EA@ServerKeyBase@yaSSL@@8 00493c5c     mysqlclient:yassl_imp.obj
 0002:00016c78       ??_R4ClientKeyBase@yaSSL@@6B@ 00493c78     mysqlclient:yassl_imp.obj
 0002:00016c8c       ??_R3ClientKeyBase@yaSSL@@8 00493c8c     mysqlclient:yassl_imp.obj
 0002:00016c9c       ??_R2ClientKeyBase@yaSSL@@8 00493c9c     mysqlclient:yassl_imp.obj
 0002:00016ca8       ??_R1A@?0A@EA@ClientKeyBase@yaSSL@@8 00493ca8     mysqlclient:yassl_imp.obj
 0002:00016cc4       ??_R4ClientDiffieHellmanPublic@yaSSL@@6B@ 00493cc4     mysqlclient:yassl_imp.obj
 0002:00016cd8       ??_R3ClientDiffieHellmanPublic@yaSSL@@8 00493cd8     mysqlclient:yassl_imp.obj
 0002:00016ce8       ??_R2ClientDiffieHellmanPublic@yaSSL@@8 00493ce8     mysqlclient:yassl_imp.obj
 0002:00016cf8       ??_R1A@?0A@EA@ClientDiffieHellmanPublic@yaSSL@@8 00493cf8     mysqlclient:yassl_imp.obj
 0002:00016d14       ??_R4ChangeCipherSpec@yaSSL@@6B@ 00493d14     mysqlclient:yassl_imp.obj
 0002:00016d28       ??_R3ChangeCipherSpec@yaSSL@@8 00493d28     mysqlclient:yassl_imp.obj
 0002:00016d38       ??_R2ChangeCipherSpec@yaSSL@@8 00493d38     mysqlclient:yassl_imp.obj
 0002:00016d48       ??_R1A@?0A@EA@ChangeCipherSpec@yaSSL@@8 00493d48     mysqlclient:yassl_imp.obj
 0002:00016d64       ??_R4Alert@yaSSL@@6B@      00493d64     mysqlclient:yassl_imp.obj
 0002:00016d78       ??_R3Alert@yaSSL@@8        00493d78     mysqlclient:yassl_imp.obj
 0002:00016d88       ??_R2Alert@yaSSL@@8        00493d88     mysqlclient:yassl_imp.obj
 0002:00016d98       ??_R1A@?0A@EA@Alert@yaSSL@@8 00493d98     mysqlclient:yassl_imp.obj
 0002:00016db4       ??_R4Data@yaSSL@@6B@       00493db4     mysqlclient:yassl_imp.obj
 0002:00016dc8       ??_R3Data@yaSSL@@8         00493dc8     mysqlclient:yassl_imp.obj
 0002:00016dd8       ??_R2Data@yaSSL@@8         00493dd8     mysqlclient:yassl_imp.obj
 0002:00016de8       ??_R1A@?0A@EA@Data@yaSSL@@8 00493de8     mysqlclient:yassl_imp.obj
 0002:00016e04       ??_R4Certificate@yaSSL@@6B@ 00493e04     mysqlclient:yassl_imp.obj
 0002:00016e18       ??_R3Certificate@yaSSL@@8  00493e18     mysqlclient:yassl_imp.obj
 0002:00016e28       ??_R2Certificate@yaSSL@@8  00493e28     mysqlclient:yassl_imp.obj
 0002:00016e38       ??_R1A@?0A@EA@Certificate@yaSSL@@8 00493e38     mysqlclient:yassl_imp.obj
 0002:00016e54       ??_R4ServerHello@yaSSL@@6B@ 00493e54     mysqlclient:yassl_imp.obj
 0002:00016e68       ??_R3ServerHello@yaSSL@@8  00493e68     mysqlclient:yassl_imp.obj
 0002:00016e78       ??_R2ServerHello@yaSSL@@8  00493e78     mysqlclient:yassl_imp.obj
 0002:00016e88       ??_R1A@?0A@EA@ServerHello@yaSSL@@8 00493e88     mysqlclient:yassl_imp.obj
 0002:00016ea4       ??_R4ServerHelloDone@yaSSL@@6B@ 00493ea4     mysqlclient:yassl_imp.obj
 0002:00016eb8       ??_R3ServerHelloDone@yaSSL@@8 00493eb8     mysqlclient:yassl_imp.obj
 0002:00016ec8       ??_R2ServerHelloDone@yaSSL@@8 00493ec8     mysqlclient:yassl_imp.obj
 0002:00016ed8       ??_R1A@?0A@EA@ServerHelloDone@yaSSL@@8 00493ed8     mysqlclient:yassl_imp.obj
 0002:00016ef4       ??_R4ClientHello@yaSSL@@6B@ 00493ef4     mysqlclient:yassl_imp.obj
 0002:00016f08       ??_R3ClientHello@yaSSL@@8  00493f08     mysqlclient:yassl_imp.obj
 0002:00016f18       ??_R2ClientHello@yaSSL@@8  00493f18     mysqlclient:yassl_imp.obj
 0002:00016f28       ??_R1A@?0A@EA@ClientHello@yaSSL@@8 00493f28     mysqlclient:yassl_imp.obj
 0002:00016f44       ??_R4ServerKeyExchange@yaSSL@@6B@ 00493f44     mysqlclient:yassl_imp.obj
 0002:00016f58       ??_R3ServerKeyExchange@yaSSL@@8 00493f58     mysqlclient:yassl_imp.obj
 0002:00016f68       ??_R2ServerKeyExchange@yaSSL@@8 00493f68     mysqlclient:yassl_imp.obj
 0002:00016f78       ??_R1A@?0A@EA@ServerKeyExchange@yaSSL@@8 00493f78     mysqlclient:yassl_imp.obj
 0002:00016f94       ??_R4CertificateVerify@yaSSL@@6B@ 00493f94     mysqlclient:yassl_imp.obj
 0002:00016fa8       ??_R3CertificateVerify@yaSSL@@8 00493fa8     mysqlclient:yassl_imp.obj
 0002:00016fb8       ??_R2CertificateVerify@yaSSL@@8 00493fb8     mysqlclient:yassl_imp.obj
 0002:00016fc8       ??_R1A@?0A@EA@CertificateVerify@yaSSL@@8 00493fc8     mysqlclient:yassl_imp.obj
 0002:00016fe4       ??_R4ClientKeyExchange@yaSSL@@6B@ 00493fe4     mysqlclient:yassl_imp.obj
 0002:00016ff8       ??_R3ClientKeyExchange@yaSSL@@8 00493ff8     mysqlclient:yassl_imp.obj
 0002:00017008       ??_R2ClientKeyExchange@yaSSL@@8 00494008     mysqlclient:yassl_imp.obj
 0002:00017018       ??_R1A@?0A@EA@ClientKeyExchange@yaSSL@@8 00494018     mysqlclient:yassl_imp.obj
 0002:00017034       ??_R4Finished@yaSSL@@6B@   00494034     mysqlclient:yassl_imp.obj
 0002:00017048       ??_R3Finished@yaSSL@@8     00494048     mysqlclient:yassl_imp.obj
 0002:00017058       ??_R2Finished@yaSSL@@8     00494058     mysqlclient:yassl_imp.obj
 0002:00017068       ??_R1A@?0A@EA@Finished@yaSSL@@8 00494068     mysqlclient:yassl_imp.obj
 0002:00017084       ??_R4HelloRequest@yaSSL@@6B@ 00494084     mysqlclient:yassl_imp.obj
 0002:00017098       ??_R3HelloRequest@yaSSL@@8 00494098     mysqlclient:yassl_imp.obj
 0002:000170a8       ??_R2HelloRequest@yaSSL@@8 004940a8     mysqlclient:yassl_imp.obj
 0002:000170b8       ??_R1A@?0A@EA@HelloRequest@yaSSL@@8 004940b8     mysqlclient:yassl_imp.obj
 0002:000170d4       ??_R4RSA_Server@yaSSL@@6B@ 004940d4     mysqlclient:yassl_imp.obj
 0002:000170e8       ??_R3RSA_Server@yaSSL@@8   004940e8     mysqlclient:yassl_imp.obj
 0002:000170f8       ??_R2RSA_Server@yaSSL@@8   004940f8     mysqlclient:yassl_imp.obj
 0002:00017108       ??_R1A@?0A@EA@RSA_Server@yaSSL@@8 00494108     mysqlclient:yassl_imp.obj
 0002:00017124       ??_R4Fortezza_Server@yaSSL@@6B@ 00494124     mysqlclient:yassl_imp.obj
 0002:00017138       ??_R3Fortezza_Server@yaSSL@@8 00494138     mysqlclient:yassl_imp.obj
 0002:00017148       ??_R2Fortezza_Server@yaSSL@@8 00494148     mysqlclient:yassl_imp.obj
 0002:00017158       ??_R1A@?0A@EA@Fortezza_Server@yaSSL@@8 00494158     mysqlclient:yassl_imp.obj
 0002:00017174       ??_R4FortezzaKeys@yaSSL@@6B@ 00494174     mysqlclient:yassl_imp.obj
 0002:00017188       ??_R3FortezzaKeys@yaSSL@@8 00494188     mysqlclient:yassl_imp.obj
 0002:00017198       ??_R2FortezzaKeys@yaSSL@@8 00494198     mysqlclient:yassl_imp.obj
 0002:000171a8       ??_R1A@?0A@EA@FortezzaKeys@yaSSL@@8 004941a8     mysqlclient:yassl_imp.obj
 0002:000171c4       ??_R4EncryptedPreMasterSecret@yaSSL@@6B@ 004941c4     mysqlclient:yassl_imp.obj
 0002:000171d8       ??_R3EncryptedPreMasterSecret@yaSSL@@8 004941d8     mysqlclient:yassl_imp.obj
 0002:000171e8       ??_R2EncryptedPreMasterSecret@yaSSL@@8 004941e8     mysqlclient:yassl_imp.obj
 0002:000171f8       ??_R1A@?0A@EA@EncryptedPreMasterSecret@yaSSL@@8 004941f8     mysqlclient:yassl_imp.obj
 0002:00017214       ??_R4DH_Server@yaSSL@@6B@  00494214     mysqlclient:yassl_imp.obj
 0002:00017228       ??_R3DH_Server@yaSSL@@8    00494228     mysqlclient:yassl_imp.obj
 0002:00017238       ??_R2DH_Server@yaSSL@@8    00494238     mysqlclient:yassl_imp.obj
 0002:00017248       ??_R1A@?0A@EA@DH_Server@yaSSL@@8 00494248     mysqlclient:yassl_imp.obj
 0002:00017264       ??_R4CertificateRequest@yaSSL@@6B@ 00494264     mysqlclient:yassl_imp.obj
 0002:00017278       ??_R3CertificateRequest@yaSSL@@8 00494278     mysqlclient:yassl_imp.obj
 0002:00017288       ??_R2CertificateRequest@yaSSL@@8 00494288     mysqlclient:yassl_imp.obj
 0002:00017298       ??_R1A@?0A@EA@CertificateRequest@yaSSL@@8 00494298     mysqlclient:yassl_imp.obj
 0002:000172b4       ??_R4MultiplicativeGroupT@AbstractRing@TaoCrypt@@6B@ 004942b4     mysqlclient:integer.obj
 0002:000172c8       ??_R3MultiplicativeGroupT@AbstractRing@TaoCrypt@@8 004942c8     mysqlclient:integer.obj
 0002:000172d8       ??_R2MultiplicativeGroupT@AbstractRing@TaoCrypt@@8 004942d8     mysqlclient:integer.obj
 0002:000172e8       ??_R1A@?0A@EA@MultiplicativeGroupT@AbstractRing@TaoCrypt@@8 004942e8     mysqlclient:integer.obj
 0002:00017304       ??_R1A@?0A@EA@AbstractGroup@TaoCrypt@@8 00494304     mysqlclient:integer.obj
 0002:00017320       ??_R3AbstractGroup@TaoCrypt@@8 00494320     mysqlclient:integer.obj
 0002:00017330       ??_R2AbstractGroup@TaoCrypt@@8 00494330     mysqlclient:integer.obj
 0002:0001733c       ??_R4ModularArithmetic@TaoCrypt@@6B@ 0049433c     mysqlclient:integer.obj
 0002:00017350       ??_R3ModularArithmetic@TaoCrypt@@8 00494350     mysqlclient:integer.obj
 0002:00017360       ??_R2ModularArithmetic@TaoCrypt@@8 00494360     mysqlclient:integer.obj
 0002:00017374       ??_R1A@?0A@EA@ModularArithmetic@TaoCrypt@@8 00494374     mysqlclient:integer.obj
 0002:00017390       ??_R1A@?0A@EA@AbstractRing@TaoCrypt@@8 00494390     mysqlclient:integer.obj
 0002:000173ac       ??_R3AbstractRing@TaoCrypt@@8 004943ac     mysqlclient:integer.obj
 0002:000173bc       ??_R2AbstractRing@TaoCrypt@@8 004943bc     mysqlclient:integer.obj
 0002:000173cc       ??_R4MontgomeryRepresentation@TaoCrypt@@6B@ 004943cc     mysqlclient:integer.obj
 0002:000173e0       ??_R3MontgomeryRepresentation@TaoCrypt@@8 004943e0     mysqlclient:integer.obj
 0002:000173f0       ??_R2MontgomeryRepresentation@TaoCrypt@@8 004943f0     mysqlclient:integer.obj
 0002:00017408       ??_R1A@?0A@EA@MontgomeryRepresentation@TaoCrypt@@8 00494408     mysqlclient:integer.obj
 0002:00017424       ??_R4EuclideanDomainOf@TaoCrypt@@6B@ 00494424     mysqlclient:integer.obj
 0002:00017438       ??_R3EuclideanDomainOf@TaoCrypt@@8 00494438     mysqlclient:integer.obj
 0002:00017448       ??_R2EuclideanDomainOf@TaoCrypt@@8 00494448     mysqlclient:integer.obj
 0002:00017460       ??_R1A@?0A@EA@EuclideanDomainOf@TaoCrypt@@8 00494460     mysqlclient:integer.obj
 0002:0001747c       ??_R1A@?0A@EA@AbstractEuclideanDomain@TaoCrypt@@8 0049447c     mysqlclient:integer.obj
 0002:00017498       ??_R3AbstractEuclideanDomain@TaoCrypt@@8 00494498     mysqlclient:integer.obj
 0002:000174a8       ??_R2AbstractEuclideanDomain@TaoCrypt@@8 004944a8     mysqlclient:integer.obj
 0002:000174bc       ??_R4BER_Decoder@TaoCrypt@@6B@ 004944bc     mysqlclient:dsa.obj
 0002:000174d0       ??_R3BER_Decoder@TaoCrypt@@8 004944d0     mysqlclient:dsa.obj
 0002:000174e0       ??_R2BER_Decoder@TaoCrypt@@8 004944e0     mysqlclient:dsa.obj
 0002:000174ec       ??_R1A@?0A@EA@BER_Decoder@TaoCrypt@@8 004944ec     mysqlclient:dsa.obj
 0002:00017508       ??_R4DSA_Private_Decoder@TaoCrypt@@6B@ 00494508     mysqlclient:dsa.obj
 0002:0001751c       ??_R3DSA_Private_Decoder@TaoCrypt@@8 0049451c     mysqlclient:dsa.obj
 0002:0001752c       ??_R2DSA_Private_Decoder@TaoCrypt@@8 0049452c     mysqlclient:dsa.obj
 0002:0001753c       ??_R1A@?0A@EA@DSA_Private_Decoder@TaoCrypt@@8 0049453c     mysqlclient:dsa.obj
 0002:00017558       ??_R4DSA_Public_Decoder@TaoCrypt@@6B@ 00494558     mysqlclient:dsa.obj
 0002:0001756c       ??_R3DSA_Public_Decoder@TaoCrypt@@8 0049456c     mysqlclient:dsa.obj
 0002:0001757c       ??_R2DSA_Public_Decoder@TaoCrypt@@8 0049457c     mysqlclient:dsa.obj
 0002:0001758c       ??_R1A@?0A@EA@DSA_Public_Decoder@TaoCrypt@@8 0049458c     mysqlclient:dsa.obj
 0002:000175a8       ??_R4RSA_Private_Decoder@TaoCrypt@@6B@ 004945a8     mysqlclient:rsa.obj
 0002:000175bc       ??_R3RSA_Private_Decoder@TaoCrypt@@8 004945bc     mysqlclient:rsa.obj
 0002:000175cc       ??_R2RSA_Private_Decoder@TaoCrypt@@8 004945cc     mysqlclient:rsa.obj
 0002:000175dc       ??_R1A@?0A@EA@RSA_Private_Decoder@TaoCrypt@@8 004945dc     mysqlclient:rsa.obj
 0002:000175f8       ??_R4RSA_Public_Decoder@TaoCrypt@@6B@ 004945f8     mysqlclient:rsa.obj
 0002:0001760c       ??_R3RSA_Public_Decoder@TaoCrypt@@8 0049460c     mysqlclient:rsa.obj
 0002:0001761c       ??_R2RSA_Public_Decoder@TaoCrypt@@8 0049461c     mysqlclient:rsa.obj
 0002:0001762c       ??_R1A@?0A@EA@RSA_Public_Decoder@TaoCrypt@@8 0049462c     mysqlclient:rsa.obj
 0002:00017648       ??_R4DER_Encoder@TaoCrypt@@6B@ 00494648     mysqlclient:asn.obj
 0002:0001765c       ??_R3DER_Encoder@TaoCrypt@@8 0049465c     mysqlclient:asn.obj
 0002:0001766c       ??_R2DER_Encoder@TaoCrypt@@8 0049466c     mysqlclient:asn.obj
 0002:00017678       ??_R1A@?0A@EA@DER_Encoder@TaoCrypt@@8 00494678     mysqlclient:asn.obj
 0002:00017694       ??_R4CertDecoder@TaoCrypt@@6B@ 00494694     mysqlclient:asn.obj
 0002:000176a8       ??_R3CertDecoder@TaoCrypt@@8 004946a8     mysqlclient:asn.obj
 0002:000176b8       ??_R2CertDecoder@TaoCrypt@@8 004946b8     mysqlclient:asn.obj
 0002:000176c8       ??_R1A@?0A@EA@CertDecoder@TaoCrypt@@8 004946c8     mysqlclient:asn.obj
 0002:000176e4       ??_R4Signature_Encoder@TaoCrypt@@6B@ 004946e4     mysqlclient:asn.obj
 0002:000176f8       ??_R3Signature_Encoder@TaoCrypt@@8 004946f8     mysqlclient:asn.obj
 0002:00017708       ??_R2Signature_Encoder@TaoCrypt@@8 00494708     mysqlclient:asn.obj
 0002:00017718       ??_R1A@?0A@EA@Signature_Encoder@TaoCrypt@@8 00494718     mysqlclient:asn.obj
 0002:00017734       ??_R4MD2@TaoCrypt@@6B@     00494734     mysqlclient:md2.obj
 0002:00017748       ??_R3MD2@TaoCrypt@@8       00494748     mysqlclient:md2.obj
 0002:00017758       ??_R2MD2@TaoCrypt@@8       00494758     mysqlclient:md2.obj
 0002:00017768       ??_R1A@?0A@EA@MD2@TaoCrypt@@8 00494768     mysqlclient:md2.obj
 0002:00017784       ??_R4_Locimp@locale@std@@6B@ 00494784     libcpmt:locale0.obj
 0002:00017798       ??_R3_Locimp@locale@std@@8 00494798     libcpmt:locale0.obj
 0002:000177a8       ??_R2_Locimp@locale@std@@8 004947a8     libcpmt:locale0.obj
 0002:000177b4       ??_R1A@?0A@EA@_Locimp@locale@std@@8 004947b4     libcpmt:locale0.obj
 0002:000177d0       ??_R4error_category@std@@6B@ 004947d0     libcpmt:syserror.obj
 0002:000177e4       ??_R3error_category@std@@8 004947e4     libcpmt:syserror.obj
 0002:000177f4       ??_R2error_category@std@@8 004947f4     libcpmt:syserror.obj
 0002:000177fc       ??_R1A@?0A@EA@error_category@std@@8 004947fc     libcpmt:syserror.obj
 0002:00017818       ??_R4_Generic_error_category@std@@6B@ 00494818     libcpmt:syserror.obj
 0002:0001782c       ??_R3_Generic_error_category@std@@8 0049482c     libcpmt:syserror.obj
 0002:0001783c       ??_R2_Generic_error_category@std@@8 0049483c     libcpmt:syserror.obj
 0002:00017848       ??_R1A@?0A@EA@_Generic_error_category@std@@8 00494848     libcpmt:syserror.obj
 0002:00017864       ??_R4_Iostream_error_category@std@@6B@ 00494864     libcpmt:syserror.obj
 0002:00017878       ??_R3_Iostream_error_category@std@@8 00494878     libcpmt:syserror.obj
 0002:00017888       ??_R2_Iostream_error_category@std@@8 00494888     libcpmt:syserror.obj
 0002:00017894       ??_R1A@?0A@EA@_Iostream_error_category@std@@8 00494894     libcpmt:syserror.obj
 0002:000178b0       ??_R4_System_error_category@std@@6B@ 004948b0     libcpmt:syserror.obj
 0002:000178c4       ??_R3_System_error_category@std@@8 004948c4     libcpmt:syserror.obj
 0002:000178d4       ??_R2_System_error_category@std@@8 004948d4     libcpmt:syserror.obj
 0002:000178e4       ??_R1A@?0A@EA@_System_error_category@std@@8 004948e4     libcpmt:syserror.obj
 0002:00017900       ??_R4logic_error@std@@6B@  00494900     libcpmt:xthrow.obj
 0002:00017914       ??_R3logic_error@std@@8    00494914     libcpmt:xthrow.obj
 0002:00017924       ??_R2logic_error@std@@8    00494924     libcpmt:xthrow.obj
 0002:00017930       ??_R1A@?0A@EA@logic_error@std@@8 00494930     libcpmt:xthrow.obj
 0002:0001794c       ??_R4length_error@std@@6B@ 0049494c     libcpmt:xthrow.obj
 0002:00017960       ??_R3length_error@std@@8   00494960     libcpmt:xthrow.obj
 0002:00017970       ??_R2length_error@std@@8   00494970     libcpmt:xthrow.obj
 0002:00017980       ??_R1A@?0A@EA@length_error@std@@8 00494980     libcpmt:xthrow.obj
 0002:0001799c       ??_R4out_of_range@std@@6B@ 0049499c     libcpmt:xthrow.obj
 0002:000179b0       ??_R3out_of_range@std@@8   004949b0     libcpmt:xthrow.obj
 0002:000179c0       ??_R2out_of_range@std@@8   004949c0     libcpmt:xthrow.obj
 0002:000179d0       ??_R1A@?0A@EA@out_of_range@std@@8 004949d0     libcpmt:xthrow.obj
 0002:000179ec       ??_R3ctype_base@std@@8     004949ec     libcpmt:cout.obj
 0002:000179fc       ??_R2ctype_base@std@@8     004949fc     libcpmt:cout.obj
 0002:00017a08       ??_R1A@?0A@EA@ctype_base@std@@8 00494a08     libcpmt:cout.obj
 0002:00017a24       ??_R4ios_base@std@@6B@     00494a24     libcpmt:cout.obj
 0002:00017a38       ??_R3ios_base@std@@8       00494a38     libcpmt:cout.obj
 0002:00017a48       ??_R2ios_base@std@@8       00494a48     libcpmt:cout.obj
 0002:00017a54       ??_R1A@?0A@EA@ios_base@std@@8 00494a54     libcpmt:cout.obj
 0002:00017a70       ??_R17?0A@EA@?$_Iosb@H@std@@8 00494a70     libcpmt:cout.obj
 0002:00017a8c       ??_R3?$_Iosb@H@std@@8      00494a8c     libcpmt:cout.obj
 0002:00017a9c       ??_R2?$_Iosb@H@std@@8      00494a9c     libcpmt:cout.obj
 0002:00017aa4       ??_R1A@?0A@EA@?$_Iosb@H@std@@8 00494aa4     libcpmt:cout.obj
 0002:00017ac0       ??_R4?$basic_ostream@DU?$char_traits@D@std@@@std@@6B@ 00494ac0     libcpmt:cout.obj
 0002:00017ad4       ??_R3?$basic_ostream@DU?$char_traits@D@std@@@std@@8 00494ad4     libcpmt:cout.obj
 0002:00017ae4       ??_R2?$basic_ostream@DU?$char_traits@D@std@@@std@@8 00494ae4     libcpmt:cout.obj
 0002:00017af8       ??_R1A@?0A@EA@?$basic_ostream@DU?$char_traits@D@std@@@std@@8 00494af8     libcpmt:cout.obj
 0002:00017b14       ??_R1A@A@3FA@?$basic_ios@DU?$char_traits@D@std@@@std@@8 00494b14     libcpmt:cout.obj
 0002:00017b30       ??_R3?$basic_ios@DU?$char_traits@D@std@@@std@@8 00494b30     libcpmt:cout.obj
 0002:00017b40       ??_R2?$basic_ios@DU?$char_traits@D@std@@@std@@8 00494b40     libcpmt:cout.obj
 0002:00017b50       ??_R1A@?0A@EA@?$basic_ios@DU?$char_traits@D@std@@@std@@8 00494b50     libcpmt:cout.obj
 0002:00017b6c       ??_R1A@A@3EA@ios_base@std@@8 00494b6c     libcpmt:cout.obj
 0002:00017b88       ??_R17A@3EA@?$_Iosb@H@std@@8 00494b88     libcpmt:cout.obj
 0002:00017ba4       ??_R4?$basic_ios@DU?$char_traits@D@std@@@std@@6B@ 00494ba4     libcpmt:cout.obj
 0002:00017bb8       ??_R4?$ctype@D@std@@6B@    00494bb8     libcpmt:cout.obj
 0002:00017bcc       ??_R3?$ctype@D@std@@8      00494bcc     libcpmt:cout.obj
 0002:00017bdc       ??_R2?$ctype@D@std@@8      00494bdc     libcpmt:cout.obj
 0002:00017bec       ??_R1A@?0A@EA@?$ctype@D@std@@8 00494bec     libcpmt:cout.obj
 0002:00017c08       ??_R4?$basic_streambuf@DU?$char_traits@D@std@@@std@@6B@ 00494c08     libcpmt:cout.obj
 0002:00017c1c       ??_R3?$basic_streambuf@DU?$char_traits@D@std@@@std@@8 00494c1c     libcpmt:cout.obj
 0002:00017c2c       ??_R2?$basic_streambuf@DU?$char_traits@D@std@@@std@@8 00494c2c     libcpmt:cout.obj
 0002:00017c34       ??_R1A@?0A@EA@?$basic_streambuf@DU?$char_traits@D@std@@@std@@8 00494c34     libcpmt:cout.obj
 0002:00017c50       ??_R4?$basic_filebuf@DU?$char_traits@D@std@@@std@@6B@ 00494c50     libcpmt:cout.obj
 0002:00017c64       ??_R3?$basic_filebuf@DU?$char_traits@D@std@@@std@@8 00494c64     libcpmt:cout.obj
 0002:00017c74       ??_R2?$basic_filebuf@DU?$char_traits@D@std@@@std@@8 00494c74     libcpmt:cout.obj
 0002:00017c80       ??_R1A@?0A@EA@?$basic_filebuf@DU?$char_traits@D@std@@@std@@8 00494c80     libcpmt:cout.obj
 0002:00017c9c       ??_R3codecvt_base@std@@8   00494c9c     libcpmt:cout.obj
 0002:00017cac       ??_R2codecvt_base@std@@8   00494cac     libcpmt:cout.obj
 0002:00017cb8       ??_R1A@?0A@EA@codecvt_base@std@@8 00494cb8     libcpmt:cout.obj
 0002:00017cd4       ??_R4?$codecvt@DDH@std@@6B@ 00494cd4     libcpmt:cout.obj
 0002:00017ce8       ??_R3?$codecvt@DDH@std@@8  00494ce8     libcpmt:cout.obj
 0002:00017cf8       ??_R2?$codecvt@DDH@std@@8  00494cf8     libcpmt:cout.obj
 0002:00017d08       ??_R1A@?0A@EA@?$codecvt@DDH@std@@8 00494d08     libcpmt:cout.obj
 0002:00017d24       ??_R4exception@std@@6B@    00494d24     LIBCMT:stdexcpt.obj
 0002:00017d38       ??_R4bad_cast@std@@6B@     00494d38     LIBCMT:stdexcpt.obj
 0002:00017d4c       ??_R3bad_cast@std@@8       00494d4c     LIBCMT:stdexcpt.obj
 0002:00017d5c       ??_R2bad_cast@std@@8       00494d5c     LIBCMT:stdexcpt.obj
 0002:00017d68       ??_R1A@?0A@EA@bad_cast@std@@8 00494d68     LIBCMT:stdexcpt.obj
 0002:00017d84       ??_R4type_info@@6B@        00494d84     LIBCMT:typinfo.obj
 0002:00017d98       ??_R3type_info@@8          00494d98     LIBCMT:typinfo.obj
 0002:00017da8       ??_R2type_info@@8          00494da8     LIBCMT:typinfo.obj
 0002:00017db0       ??_R1A@?0A@EA@type_info@@8 00494db0     LIBCMT:typinfo.obj
 0002:00017dcc       ??_R4bad_exception@std@@6B@ 00494dcc     LIBCMT:frame.obj
 0002:00017de0       ??_R3bad_exception@std@@8  00494de0     LIBCMT:frame.obj
 0002:00017df0       ??_R2bad_exception@std@@8  00494df0     LIBCMT:frame.obj
 0002:00017dfc       ??_R1A@?0A@EA@bad_exception@std@@8 00494dfc     LIBCMT:frame.obj
 0002:00017e20       ___safe_se_handler_table   00494e20     <linker-defined>
 0002:00017f60       ___rtc_iaa                 00494f60     LIBCMT:_initsect_.obj
 0002:00017f64       ___rtc_izz                 00494f64     LIBCMT:_initsect_.obj
 0002:00017f68       ___rtc_taa                 00494f68     LIBCMT:_initsect_.obj
 0002:00017f6c       ___rtc_tzz                 00494f6c     LIBCMT:_initsect_.obj
 0002:00017f70       __TI4?AVfailure@ios_base@std@@ 00494f70     client.obj
 0002:00017f80       __CTA4?AVfailure@ios_base@std@@ 00494f80     client.obj
 0002:00017f94       __CT??_R0?AVfailure@ios_base@std@@@8??0failure@ios_base@std@@QAE@ABV012@@Z20 00494f94     client.obj
 0002:00017fb0       __CT??_R0?AVsystem_error@std@@@8??0system_error@std@@QAE@ABV01@@Z20 00494fb0     client.obj
 0002:00017fcc       __CT??_R0?AVruntime_error@std@@@8??0runtime_error@std@@QAE@ABV01@@Z12 00494fcc     client.obj
 0002:00017fe8       __CT??_R0?AVexception@std@@@8??0exception@std@@QAE@ABV01@@Z12 00494fe8     client.obj
 0002:00018004       __TI2?AVbad_alloc@std@@    00495004     client.obj
 0002:00018014       __CTA2?AVbad_alloc@std@@   00495014     client.obj
 0002:00018020       __CT??_R0?AVbad_alloc@std@@@8??0bad_alloc@std@@QAE@ABV01@@Z12 00495020     client.obj
 0002:00018094       __TI2?AVruntime_error@std@@ 00495094     client.obj
 0002:000180f0       __CTA2?AVruntime_error@std@@ 004950f0     client.obj
 0002:00018258       __TI2?AVbad_cast@std@@     00495258     client.obj
 0002:00018268       __CTA2?AVbad_cast@std@@    00495268     client.obj
 0002:00018274       __CT??_R0?AVbad_cast@std@@@8??0bad_cast@std@@QAE@ABV01@@Z12 00495274     client.obj
 0002:0001925c       __CT??_R0?AVlogic_error@std@@@8??0logic_error@std@@QAE@ABV01@@Z12 0049625c     libcpmt:xthrow.obj
 0002:00019278       __TI3?AVlength_error@std@@ 00496278     libcpmt:xthrow.obj
 0002:00019288       __CTA3?AVlength_error@std@@ 00496288     libcpmt:xthrow.obj
 0002:00019298       __CT??_R0?AVlength_error@std@@@8??0length_error@std@@QAE@ABV01@@Z12 00496298     libcpmt:xthrow.obj
 0002:000192b4       __TI3?AVout_of_range@std@@ 004962b4     libcpmt:xthrow.obj
 0002:000192c4       __CTA3?AVout_of_range@std@@ 004962c4     libcpmt:xthrow.obj
 0002:000192d4       __CT??_R0?AVout_of_range@std@@@8??0out_of_range@std@@QAE@ABV01@@Z12 004962d4     libcpmt:xthrow.obj
 0002:00019a04       __TI2?AVbad_exception@std@@ 00496a04     LIBCMT:frame.obj
 0002:00019a14       __CTA2?AVbad_exception@std@@ 00496a14     LIBCMT:frame.obj
 0002:00019a20       __CT??_R0?AVbad_exception@std@@@8??0bad_exception@std@@QAE@ABV01@@Z12 00496a20     LIBCMT:frame.obj
 0002:00019dcc       __IMPORT_DESCRIPTOR_WSOCK32 00496dcc     wsock32:WSOCK32.dll
 0002:00019de0       __IMPORT_DESCRIPTOR_LIBEAY32 00496de0     libeay32:LIBEAY32.dll
 0002:00019df4       __IMPORT_DESCRIPTOR_KERNEL32 00496df4     kernel32:KERNEL32.dll
 0002:00019e08       __IMPORT_DESCRIPTOR_ADVAPI32 00496e08     advapi32:ADVAPI32.dll
 0002:00019e1c       __IMPORT_DESCRIPTOR_WS2_32 00496e1c     ws2_32:WS2_32.dll
 0002:00019e30       __NULL_IMPORT_DESCRIPTOR   00496e30     wsock32:WSOCK32.dll
 0003:00000000       ??_R0?AVruntime_error@std@@@8 00498000     client.obj
 0003:00000020       ??_R0?AVexception@std@@@8  00498020     client.obj
 0003:0000003c       ??_R0?AVfacet@locale@std@@@8 0049803c     client.obj
 0003:0000005c       ??_R0?AVsystem_error@std@@@8 0049805c     client.obj
 0003:0000007c       ??_R0?AVfailure@ios_base@std@@@8 0049807c     client.obj
 0003:000000a0       ??_R0?AV?$num_put@DV?$ostreambuf_iterator@DU?$char_traits@D@std@@@std@@@std@@@8 004980a0     client.obj
 0003:000000f4       ??_R0?AVbad_alloc@std@@@8  004980f4     client.obj
 0003:00000110       ??_R0?AV?$numpunct@D@std@@@8 00498110     client.obj
 0003:00000130       ??_R0?AVbad_cast@std@@@8   00498130     client.obj
 0003:0000014c       ?verant_key@EQCrypto@@0PAEA 0049814c     EQCrypto.obj
 0003:00000154       ?RunLoops@@3_NC            00498154     net.obj
 0003:00000158       ?CRC32Table@@3PAIA         00498158     crc32.obj
 0003:00000558       ?ZONE_NAME@@3PBDB          00498558     database.obj
 0003:0000057c       ?adlf@@3V?$AutoDelete@VEQEMuLog@@@@A 0049857c     debug.obj
 0003:00000580       ??_R0?AVEQNetworkPacket@@@8 00498580     EQNetwork.obj
 0003:000005a0       ??_R0?AVEQNetworkFragmentGroup@@@8 004985a0     EQNetwork.obj
 0003:000005c8       ??_R0?AVEQNetworkServer@@@8 004985c8     EQNetwork.obj
 0003:000005e8       ??_R0?AVEQNetworkFragmentGroupList@@@8 004985e8     EQNetwork.obj
 0003:00000614       ??_R0?AVEQNetworkConnection@@@8 00498614     EQNetwork.obj
 0003:00000638       ?check_table@@3PAKA        00498638     packet_functions.obj
 0003:00000a38       ??_R0?AVTCPConnection@@@8  00498a38     TCPConnection.obj
 0003:00000a54       ??_R0?AVTCPServer@@@8      00498a54     TCPConnection.obj
 0003:00000a70       _unknown_sqlstate          00498a70     mysqlclient:client.obj
 0003:00000a74       _not_error_sqlstate        00498a74     mysqlclient:client.obj
 0003:00000a78       _cant_connect_sqlstate     00498a78     mysqlclient:client.obj
 0003:00000a7c       _def_shared_memory_base_name 00498a7c     mysqlclient:client.obj
 0003:00000a80       _default_client_charset_info 00498a80     mysqlclient:client.obj
 0003:00000a8c       _sql_protocol_names_lib    00498a8c     mysqlclient:client.obj
 0003:00000b3c       _sql_protocol_typelib      00498b3c     mysqlclient:client.obj
 0003:00000b90       _net_buffer_length         00498b90     mysqlclient:libmysql.obj
 0003:00000b94       _max_allowed_packet        00498b94     mysqlclient:libmysql.obj
 0003:00000fc8       _cs_to_uni                 00498fc8     mysqlclient:ctype-latin1.obj
 0003:000011c8       _pl00                      004991c8     mysqlclient:ctype-latin1.obj
 0003:000012c8       _pl01                      004992c8     mysqlclient:ctype-latin1.obj
 0003:000013c8       _pl02                      004993c8     mysqlclient:ctype-latin1.obj
 0003:000014c8       _pl20                      004994c8     mysqlclient:ctype-latin1.obj
 0003:000015c8       _pl21                      004995c8     mysqlclient:ctype-latin1.obj
 0003:000016c8       _uni_to_cs                 004996c8     mysqlclient:ctype-latin1.obj
 0003:00001b38       _my_charset_latin1         00499b38     mysqlclient:ctype-latin1.obj
 0003:00001ca8       _combo1map                 00499ca8     mysqlclient:ctype-latin1.obj
 0003:00001da8       _combo2map                 00499da8     mysqlclient:ctype-latin1.obj
 0003:00001ed8       _my_charset_latin1_german2_ci 00499ed8     mysqlclient:ctype-latin1.obj
 0003:00001f48       _my_charset_latin1_bin     00499f48     mysqlclient:ctype-latin1.obj
 0003:00001fb8       _client_errors             00499fb8     mysqlclient:errmsg.obj
 0003:000020a4       __dig_vec_upper            0049a0a4     mysqlclient:int2str.obj
 0003:000020cc       __dig_vec_lower            0049a0cc     mysqlclient:int2str.obj
 0003:00002308       ??_R0?AUMessage@yaSSL@@@8  0049a308     mysqlclient:ssl.obj
 0003:00002324       ??_R0?AVvirtual_base@yaSSL@@@8 0049a324     mysqlclient:ssl.obj
 0003:00002348       ??_R0?AVHandShakeBase@yaSSL@@@8 0049a348     mysqlclient:ssl.obj
 0003:0000236c       ??_R0?AVHASH@TaoCrypt@@@8  0049a36c     mysqlclient:ssl.obj
 0003:00002388       ??_R0?AVvirtual_base@TaoCrypt@@@8 0049a388     mysqlclient:ssl.obj
 0003:000023ac       ??_R0?AVMD5@TaoCrypt@@@8   0049a3ac     mysqlclient:ssl.obj
 0003:000023c8       ??_R0?AVHASHwithTransform@TaoCrypt@@@8 0049a3c8     mysqlclient:ssl.obj
 0003:000023f4       _default_charset_info      0049a3f4     mysqlclient:charset.obj
 0003:00002470       _my_thread_stack_size      0049a470     mysqlclient:my_init.obj
 0003:00002474       _my_thread_end_wait_time   0049a474     mysqlclient:my_thr_init.obj
 0003:00002478       _globerrs                  0049a478     mysqlclient:errors.obj
 0003:00002500       _log_10_int                0049a500     mysqlclient:my_time.obj
 0003:000025ac       _days_in_month             0049a5ac     mysqlclient:my_time.obj
 0003:00002828       _my_collation_8bit_bin_handler 0049a828     mysqlclient:ctype-bin.obj
 0003:000028f0       _my_charset_bin            0049a8f0     mysqlclient:ctype-bin.obj
 0003:00002a00       _my_charset_8bit_handler   0049aa00     mysqlclient:ctype-simple.obj
 0003:00002a6c       _my_collation_8bit_simple_ci_handler 0049aa6c     mysqlclient:ctype-simple.obj
 0003:00006698       _my_uni_ctype              0049e698     mysqlclient:ctype-utf8.obj
 0003:0000b698       _my_unicase_default        004a3698     mysqlclient:ctype-utf8.obj
 0003:0000ba98       _my_unicase_mysql500       004a3a98     mysqlclient:ctype-utf8.obj
 0003:0000c498       _my_unicase_turkish        004a4498     mysqlclient:ctype-utf8.obj
 0003:0000cbd0       _my_charset_utf8_handler   004a4bd0     mysqlclient:ctype-utf8.obj
 0003:0000cc40       _my_charset_utf8_general_ci 004a4c40     mysqlclient:ctype-utf8.obj
 0003:0000ccb0       _my_charset_utf8_general_mysql500_ci 004a4cb0     mysqlclient:ctype-utf8.obj
 0003:0000cd20       _my_charset_utf8_bin       004a4d20     mysqlclient:ctype-utf8.obj
 0003:00010e48       _my_charset_filename       004a8e48     mysqlclient:ctype-utf8.obj
 0003:000110c0       _my_umask                  004a90c0     mysqlclient:my_static.obj
 0003:000110c4       _my_umask_dir              004a90c4     mysqlclient:my_static.obj
 0003:000110c8       _my_file_limit             004a90c8     mysqlclient:my_static.obj
 0003:000110cc       _my_file_info              004a90cc     mysqlclient:my_static.obj
 0003:000110d0       _my_default_record_cache_size 004a90d0     mysqlclient:my_static.obj
 0003:000110d4       _soundex_map               004a90d4     mysqlclient:my_static.obj
 0003:000110d8       _my_once_extra             004a90d8     mysqlclient:my_static.obj
 0003:000110dc       _sf_min_adress             004a90dc     mysqlclient:my_static.obj
 0003:000110e0       _my_time_to_wait_for_lock  004a90e0     mysqlclient:my_static.obj
 0003:000110e4       _my_abort_hook             004a90e4     mysqlclient:my_static.obj
 0003:000110e8       _error_handler_hook        004a90e8     mysqlclient:my_static.obj
 0003:000110ec       _fatal_error_handler_hook  004a90ec     mysqlclient:my_static.obj
 0003:000112f8       ??_R0?AUDigest@yaSSL@@@8   004a92f8     mysqlclient:crypto_wrapper.obj
 0003:00011314       ??_R0?AUBulkCipher@yaSSL@@@8 004a9314     mysqlclient:crypto_wrapper.obj
 0003:00011334       ??_R0?AUAuth@yaSSL@@@8     004a9334     mysqlclient:crypto_wrapper.obj
 0003:00011350       ??_R0?AVSHA@TaoCrypt@@@8   004a9350     mysqlclient:crypto_wrapper.obj
 0003:0001136c       ??_R0?AVRIPEMD160@TaoCrypt@@@8 004a936c     mysqlclient:crypto_wrapper.obj
 0003:00011390       ??_R0?AVMode_BASE@TaoCrypt@@@8 004a9390     mysqlclient:crypto_wrapper.obj
 0003:000113b4       ??_R0?AVDES@TaoCrypt@@@8   004a93b4     mysqlclient:crypto_wrapper.obj
 0003:000113d0       ??_R0?AVBasicDES@TaoCrypt@@@8 004a93d0     mysqlclient:crypto_wrapper.obj
 0003:000113f0       ??_R0?AVDES_EDE3@TaoCrypt@@@8 004a93f0     mysqlclient:crypto_wrapper.obj
 0003:00011410       ??_R0?AVAES@TaoCrypt@@@8   004a9410     mysqlclient:crypto_wrapper.obj
 0003:0001142c       ??_R0?AVMD5@yaSSL@@@8      004a942c     mysqlclient:crypto_wrapper.obj
 0003:00011444       ??_R0?AVSHA@yaSSL@@@8      004a9444     mysqlclient:crypto_wrapper.obj
 0003:0001145c       ??_R0?AVRMD@yaSSL@@@8      004a945c     mysqlclient:crypto_wrapper.obj
 0003:00011474       ??_R0?AVRC4@yaSSL@@@8      004a9474     mysqlclient:crypto_wrapper.obj
 0003:0001148c       ??_R0?AVAES@yaSSL@@@8      004a948c     mysqlclient:crypto_wrapper.obj
 0003:000114a4       ??_R0?AVHMAC_MD5@yaSSL@@@8 004a94a4     mysqlclient:crypto_wrapper.obj
 0003:000114c4       ??_R0?AVHMAC_SHA@yaSSL@@@8 004a94c4     mysqlclient:crypto_wrapper.obj
 0003:000114e4       ??_R0?AVHMAC_RMD@yaSSL@@@8 004a94e4     mysqlclient:crypto_wrapper.obj
 0003:00011504       ??_R0?AVDES@yaSSL@@@8      004a9504     mysqlclient:crypto_wrapper.obj
 0003:0001151c       ??_R0?AVDES_EDE@yaSSL@@@8  004a951c     mysqlclient:crypto_wrapper.obj
 0003:00011538       ??_R0?AVDSS@yaSSL@@@8      004a9538     mysqlclient:crypto_wrapper.obj
 0003:00011550       ??_R0?AVRSA@yaSSL@@@8      004a9550     mysqlclient:crypto_wrapper.obj
 0003:00011770       ??_R0?AVHandShakeHeader@yaSSL@@@8 004a9770     mysqlclient:yassl_imp.obj
 0003:00011794       ??_R0?AUServerKeyBase@yaSSL@@@8 004a9794     mysqlclient:yassl_imp.obj
 0003:000117b8       ??_R0?AUClientKeyBase@yaSSL@@@8 004a97b8     mysqlclient:yassl_imp.obj
 0003:000117dc       ??_R0?AVClientDiffieHellmanPublic@yaSSL@@@8 004a97dc     mysqlclient:yassl_imp.obj
 0003:0001180c       ??_R0?AVChangeCipherSpec@yaSSL@@@8 004a980c     mysqlclient:yassl_imp.obj
 0003:00011834       ??_R0?AVAlert@yaSSL@@@8    004a9834     mysqlclient:yassl_imp.obj
 0003:00011850       ??_R0?AVData@yaSSL@@@8     004a9850     mysqlclient:yassl_imp.obj
 0003:0001186c       ??_R0?AVCertificate@yaSSL@@@8 004a986c     mysqlclient:yassl_imp.obj
 0003:0001188c       ??_R0?AVServerHello@yaSSL@@@8 004a988c     mysqlclient:yassl_imp.obj
 0003:000118ac       ??_R0?AUServerHelloDone@yaSSL@@@8 004a98ac     mysqlclient:yassl_imp.obj
 0003:000118d0       ??_R0?AVClientHello@yaSSL@@@8 004a98d0     mysqlclient:yassl_imp.obj
 0003:000118f0       ??_R0?AVServerKeyExchange@yaSSL@@@8 004a98f0     mysqlclient:yassl_imp.obj
 0003:00011918       ??_R0?AVCertificateVerify@yaSSL@@@8 004a9918     mysqlclient:yassl_imp.obj
 0003:00011940       ??_R0?AVClientKeyExchange@yaSSL@@@8 004a9940     mysqlclient:yassl_imp.obj
 0003:00011968       ??_R0?AVFinished@yaSSL@@@8 004a9968     mysqlclient:yassl_imp.obj
 0003:00011988       ??_R0?AUHelloRequest@yaSSL@@@8 004a9988     mysqlclient:yassl_imp.obj
 0003:000119ac       ??_R0?AURSA_Server@yaSSL@@@8 004a99ac     mysqlclient:yassl_imp.obj
 0003:000119cc       ??_R0?AUFortezza_Server@yaSSL@@@8 004a99cc     mysqlclient:yassl_imp.obj
 0003:000119f0       ??_R0?AUFortezzaKeys@yaSSL@@@8 004a99f0     mysqlclient:yassl_imp.obj
 0003:00011a14       ??_R0?AVEncryptedPreMasterSecret@yaSSL@@@8 004a9a14     mysqlclient:yassl_imp.obj
 0003:00011a44       ??_R0?AVDH_Server@yaSSL@@@8 004a9a44     mysqlclient:yassl_imp.obj
 0003:00011a64       ??_R0?AVCertificateRequest@yaSSL@@@8 004a9a64     mysqlclient:yassl_imp.obj
 0003:00011f98       _page000data               004a9f98     mysqlclient:ctype-uca.obj
 0003:00012798       _page001data               004aa798     mysqlclient:ctype-uca.obj
 0003:00012d98       _page002data               004aad98     mysqlclient:ctype-uca.obj
 0003:00013398       _page003data               004ab398     mysqlclient:ctype-uca.obj
 0003:00013b98       _page004data               004abb98     mysqlclient:ctype-uca.obj
 0003:00014198       _page005data               004ac198     mysqlclient:ctype-uca.obj
 0003:00014798       _page006data               004ac798     mysqlclient:ctype-uca.obj
 0003:00014d98       _page007data               004acd98     mysqlclient:ctype-uca.obj
 0003:00015398       _page009data               004ad398     mysqlclient:ctype-uca.obj
 0003:00015998       _page00Adata               004ad998     mysqlclient:ctype-uca.obj
 0003:00015f98       _page00Bdata               004adf98     mysqlclient:ctype-uca.obj
 0003:00016598       _page00Cdata               004ae598     mysqlclient:ctype-uca.obj
 0003:00016b98       _page00Ddata               004aeb98     mysqlclient:ctype-uca.obj
 0003:00017198       _page00Edata               004af198     mysqlclient:ctype-uca.obj
 0003:00017798       _page00Fdata               004af798     mysqlclient:ctype-uca.obj
 0003:00017d98       _page010data               004afd98     mysqlclient:ctype-uca.obj
 0003:00018398       _page011data               004b0398     mysqlclient:ctype-uca.obj
 0003:00018998       _page012data               004b0998     mysqlclient:ctype-uca.obj
 0003:00018f98       _page013data               004b0f98     mysqlclient:ctype-uca.obj
 0003:00019598       _page014data               004b1598     mysqlclient:ctype-uca.obj
 0003:00019b98       _page015data               004b1b98     mysqlclient:ctype-uca.obj
 0003:00019f98       _page016data               004b1f98     mysqlclient:ctype-uca.obj
 0003:0001a598       _page017data               004b2598     mysqlclient:ctype-uca.obj
 0003:0001ab98       _page018data               004b2b98     mysqlclient:ctype-uca.obj
 0003:0001b198       _page019data               004b3198     mysqlclient:ctype-uca.obj
 0003:0001b798       _page01Ddata               004b3798     mysqlclient:ctype-uca.obj
 0003:0001bd98       _page01Edata               004b3d98     mysqlclient:ctype-uca.obj
 0003:0001c398       _page01Fdata               004b4398     mysqlclient:ctype-uca.obj
 0003:0001c998       _page020data               004b4998     mysqlclient:ctype-uca.obj
 0003:0001d398       _page021data               004b5398     mysqlclient:ctype-uca.obj
 0003:0001dd98       _page022data               004b5d98     mysqlclient:ctype-uca.obj
 0003:0001e598       _page023data               004b6598     mysqlclient:ctype-uca.obj
 0003:0001eb98       _page024data               004b6b98     mysqlclient:ctype-uca.obj
 0003:0001f598       _page025data               004b7598     mysqlclient:ctype-uca.obj
 0003:0001f998       _page026data               004b7998     mysqlclient:ctype-uca.obj
 0003:0001ff98       _page027data               004b7f98     mysqlclient:ctype-uca.obj
 0003:00020598       _page028data               004b8598     mysqlclient:ctype-uca.obj
 0003:00020998       _page029data               004b8998     mysqlclient:ctype-uca.obj
 0003:00020d98       _page02Adata               004b8d98     mysqlclient:ctype-uca.obj
 0003:00021798       _page02Bdata               004b9798     mysqlclient:ctype-uca.obj
 0003:00021d98       _page02Edata               004b9d98     mysqlclient:ctype-uca.obj
 0003:00022398       _page02Fdata               004ba398     mysqlclient:ctype-uca.obj
 0003:00022998       _page030data               004ba998     mysqlclient:ctype-uca.obj
 0003:00022f98       _page031data               004baf98     mysqlclient:ctype-uca.obj
 0003:00023598       _page032data               004bb598     mysqlclient:ctype-uca.obj
 0003:00024598       _page033data               004bc598     mysqlclient:ctype-uca.obj
 0003:00025798       _page04Ddata               004bd798     mysqlclient:ctype-uca.obj
 0003:00025d98       _page0A0data               004bdd98     mysqlclient:ctype-uca.obj
 0003:00026198       _page0A1data               004be198     mysqlclient:ctype-uca.obj
 0003:00026598       _page0A2data               004be598     mysqlclient:ctype-uca.obj
 0003:00026998       _page0A3data               004be998     mysqlclient:ctype-uca.obj
 0003:00026d98       _page0A4data               004bed98     mysqlclient:ctype-uca.obj
 0003:00027398       _page0F9data               004bf398     mysqlclient:ctype-uca.obj
 0003:00027998       _page0FAdata               004bf998     mysqlclient:ctype-uca.obj
 0003:00027f98       _page0FBdata               004bff98     mysqlclient:ctype-uca.obj
 0003:00028798       _page0FCdata               004c0798     mysqlclient:ctype-uca.obj
 0003:00028d98       _page0FDdata               004c0d98     mysqlclient:ctype-uca.obj
 0003:00029f98       _page0FEdata               004c1f98     mysqlclient:ctype-uca.obj
 0003:0002a598       _page0FFdata               004c2598     mysqlclient:ctype-uca.obj
 0003:0002ab98       _uca_length                004c2b98     mysqlclient:ctype-uca.obj
 0003:0002ac98       _uca_weight                004c2c98     mysqlclient:ctype-uca.obj
 0003:0002b0a8       _my_collation_ucs2_uca_handler 004c30a8     mysqlclient:ctype-uca.obj
 0003:0002b0d4       _my_collation_any_uca_handler 004c30d4     mysqlclient:ctype-uca.obj
 0003:0002b100       _my_charset_ucs2_unicode_ci 004c3100     mysqlclient:ctype-uca.obj
 0003:0002b170       _my_charset_ucs2_icelandic_uca_ci 004c3170     mysqlclient:ctype-uca.obj
 0003:0002b1e0       _my_charset_ucs2_latvian_uca_ci 004c31e0     mysqlclient:ctype-uca.obj
 0003:0002b250       _my_charset_ucs2_romanian_uca_ci 004c3250     mysqlclient:ctype-uca.obj
 0003:0002b2c0       _my_charset_ucs2_slovenian_uca_ci 004c32c0     mysqlclient:ctype-uca.obj
 0003:0002b330       _my_charset_ucs2_polish_uca_ci 004c3330     mysqlclient:ctype-uca.obj
 0003:0002b3a0       _my_charset_ucs2_estonian_uca_ci 004c33a0     mysqlclient:ctype-uca.obj
 0003:0002b410       _my_charset_ucs2_spanish_uca_ci 004c3410     mysqlclient:ctype-uca.obj
 0003:0002b480       _my_charset_ucs2_swedish_uca_ci 004c3480     mysqlclient:ctype-uca.obj
 0003:0002b4f0       _my_charset_ucs2_turkish_uca_ci 004c34f0     mysqlclient:ctype-uca.obj
 0003:0002b560       _my_charset_ucs2_czech_uca_ci 004c3560     mysqlclient:ctype-uca.obj
 0003:0002b5d0       _my_charset_ucs2_danish_uca_ci 004c35d0     mysqlclient:ctype-uca.obj
 0003:0002b640       _my_charset_ucs2_lithuanian_uca_ci 004c3640     mysqlclient:ctype-uca.obj
 0003:0002b6b0       _my_charset_ucs2_slovak_uca_ci 004c36b0     mysqlclient:ctype-uca.obj
 0003:0002b720       _my_charset_ucs2_spanish2_uca_ci 004c3720     mysqlclient:ctype-uca.obj
 0003:0002b790       _my_charset_ucs2_roman_uca_ci 004c3790     mysqlclient:ctype-uca.obj
 0003:0002b800       _my_charset_ucs2_persian_uca_ci 004c3800     mysqlclient:ctype-uca.obj
 0003:0002b870       _my_charset_ucs2_esperanto_uca_ci 004c3870     mysqlclient:ctype-uca.obj
 0003:0002b8e0       _my_charset_ucs2_hungarian_uca_ci 004c38e0     mysqlclient:ctype-uca.obj
 0003:0002ba58       _my_charset_utf8_unicode_ci 004c3a58     mysqlclient:ctype-uca.obj
 0003:0002bac8       _my_charset_utf8_icelandic_uca_ci 004c3ac8     mysqlclient:ctype-uca.obj
 0003:0002bb38       _my_charset_utf8_latvian_uca_ci 004c3b38     mysqlclient:ctype-uca.obj
 0003:0002bba8       _my_charset_utf8_romanian_uca_ci 004c3ba8     mysqlclient:ctype-uca.obj
 0003:0002bc18       _my_charset_utf8_slovenian_uca_ci 004c3c18     mysqlclient:ctype-uca.obj
 0003:0002bc88       _my_charset_utf8_polish_uca_ci 004c3c88     mysqlclient:ctype-uca.obj
 0003:0002bcf8       _my_charset_utf8_estonian_uca_ci 004c3cf8     mysqlclient:ctype-uca.obj
 0003:0002bd68       _my_charset_utf8_spanish_uca_ci 004c3d68     mysqlclient:ctype-uca.obj
 0003:0002bdd8       _my_charset_utf8_swedish_uca_ci 004c3dd8     mysqlclient:ctype-uca.obj
 0003:0002be48       _my_charset_utf8_turkish_uca_ci 004c3e48     mysqlclient:ctype-uca.obj
 0003:0002beb8       _my_charset_utf8_czech_uca_ci 004c3eb8     mysqlclient:ctype-uca.obj
 0003:0002bf28       _my_charset_utf8_danish_uca_ci 004c3f28     mysqlclient:ctype-uca.obj
 0003:0002bf98       _my_charset_utf8_lithuanian_uca_ci 004c3f98     mysqlclient:ctype-uca.obj
 0003:0002c008       _my_charset_utf8_slovak_uca_ci 004c4008     mysqlclient:ctype-uca.obj
 0003:0002c078       _my_charset_utf8_spanish2_uca_ci 004c4078     mysqlclient:ctype-uca.obj
 0003:0002c0e8       _my_charset_utf8_roman_uca_ci 004c40e8     mysqlclient:ctype-uca.obj
 0003:0002c158       _my_charset_utf8_persian_uca_ci 004c4158     mysqlclient:ctype-uca.obj
 0003:0002c1c8       _my_charset_utf8_esperanto_uca_ci 004c41c8     mysqlclient:ctype-uca.obj
 0003:0002c238       _my_charset_utf8_hungarian_uca_ci 004c4238     mysqlclient:ctype-uca.obj
 0003:0003f5d8       _my_charset_cp932_japanese_ci 004d75d8     mysqlclient:ctype-cp932.obj
 0003:0003f648       _my_charset_cp932_bin      004d7648     mysqlclient:ctype-cp932.obj
 0003:0003f6b4       _my_pthread_create_detached 004d76b4     mysqlclient:my_pthread.obj
 0003:00040e18       _my_collation_mb_bin_handler 004d8e18     mysqlclient:ctype-mb.obj
 0003:0004104c       ??_R0?AVMultiplicativeGroupT@AbstractRing@TaoCrypt@@@8 004d904c     mysqlclient:integer.obj
 0003:00041088       ??_R0?AVAbstractGroup@TaoCrypt@@@8 004d9088     mysqlclient:integer.obj
 0003:000410b0       ??_R0?AVModularArithmetic@TaoCrypt@@@8 004d90b0     mysqlclient:integer.obj
 0003:000410dc       ??_R0?AVAbstractRing@TaoCrypt@@@8 004d90dc     mysqlclient:integer.obj
 0003:00041100       ??_R0?AVMontgomeryRepresentation@TaoCrypt@@@8 004d9100     mysqlclient:integer.obj
 0003:00041130       ??_R0?AVEuclideanDomainOf@TaoCrypt@@@8 004d9130     mysqlclient:integer.obj
 0003:0004115c       ??_R0?AVAbstractEuclideanDomain@TaoCrypt@@@8 004d915c     mysqlclient:integer.obj
 0003:0004118c       ?Te0@AES@TaoCrypt@@0PBIB   004d918c     mysqlclient:aes.obj
 0003:00041190       ?Te1@AES@TaoCrypt@@0PBIB   004d9190     mysqlclient:aes.obj
 0003:00041194       ?Te2@AES@TaoCrypt@@0PBIB   004d9194     mysqlclient:aes.obj
 0003:00041198       ?Te3@AES@TaoCrypt@@0PBIB   004d9198     mysqlclient:aes.obj
 0003:0004119c       ?Te4@AES@TaoCrypt@@0PBIB   004d919c     mysqlclient:aes.obj
 0003:000411a0       ?Td0@AES@TaoCrypt@@0PBIB   004d91a0     mysqlclient:aes.obj
 0003:000411a4       ?Td1@AES@TaoCrypt@@0PBIB   004d91a4     mysqlclient:aes.obj
 0003:000411a8       ?Td2@AES@TaoCrypt@@0PBIB   004d91a8     mysqlclient:aes.obj
 0003:000411ac       ?Td3@AES@TaoCrypt@@0PBIB   004d91ac     mysqlclient:aes.obj
 0003:000411b0       ?Td4@AES@TaoCrypt@@0PBIB   004d91b0     mysqlclient:aes.obj
 0003:000411b8       ??_R0?AVBER_Decoder@TaoCrypt@@@8 004d91b8     mysqlclient:dsa.obj
 0003:000411dc       ??_R0?AVDSA_Private_Decoder@TaoCrypt@@@8 004d91dc     mysqlclient:dsa.obj
 0003:00041208       ??_R0?AVDSA_Public_Decoder@TaoCrypt@@@8 004d9208     mysqlclient:dsa.obj
 0003:0004123c       ??_R0?AVRSA_Private_Decoder@TaoCrypt@@@8 004d923c     mysqlclient:rsa.obj
 0003:00041268       ??_R0?AVRSA_Public_Decoder@TaoCrypt@@@8 004d9268     mysqlclient:rsa.obj
 0003:00041298       ??_R0?AVDER_Encoder@TaoCrypt@@@8 004d9298     mysqlclient:asn.obj
 0003:000412bc       ??_R0?AVCertDecoder@TaoCrypt@@@8 004d92bc     mysqlclient:asn.obj
 0003:000412e0       ??_R0?AVSignature_Encoder@TaoCrypt@@@8 004d92e0     mysqlclient:asn.obj
 0003:00041798       _my_charset_ucs2_handler   004d9798     mysqlclient:ctype-ucs2.obj
 0003:00041808       _my_charset_ucs2_general_ci 004d9808     mysqlclient:ctype-ucs2.obj
 0003:00041878       _my_charset_ucs2_general_mysql500_ci 004d9878     mysqlclient:ctype-ucs2.obj
 0003:000418e8       _my_charset_ucs2_bin       004d98e8     mysqlclient:ctype-ucs2.obj
 0003:00041958       _ctype_dec8_swedish_ci     004d9958     mysqlclient:ctype-extra.obj
 0003:00041a60       _to_lower_dec8_swedish_ci  004d9a60     mysqlclient:ctype-extra.obj
 0003:00041b60       _to_upper_dec8_swedish_ci  004d9b60     mysqlclient:ctype-extra.obj
 0003:00041c60       _sort_order_dec8_swedish_ci 004d9c60     mysqlclient:ctype-extra.obj
 0003:00041d60       _to_uni_dec8_swedish_ci    004d9d60     mysqlclient:ctype-extra.obj
 0003:00041f60       _ctype_cp850_general_ci    004d9f60     mysqlclient:ctype-extra.obj
 0003:00042068       _to_lower_cp850_general_ci 004da068     mysqlclient:ctype-extra.obj
 0003:00042168       _to_upper_cp850_general_ci 004da168     mysqlclient:ctype-extra.obj
 0003:00042268       _sort_order_cp850_general_ci 004da268     mysqlclient:ctype-extra.obj
 0003:00042368       _to_uni_cp850_general_ci   004da368     mysqlclient:ctype-extra.obj
 0003:00042568       _ctype_latin1_german1_ci   004da568     mysqlclient:ctype-extra.obj
 0003:00042670       _to_lower_latin1_german1_ci 004da670     mysqlclient:ctype-extra.obj
 0003:00042770       _to_upper_latin1_german1_ci 004da770     mysqlclient:ctype-extra.obj
 0003:00042870       _sort_order_latin1_german1_ci 004da870     mysqlclient:ctype-extra.obj
 0003:00042970       _to_uni_latin1_german1_ci  004da970     mysqlclient:ctype-extra.obj
 0003:00042b70       _ctype_hp8_english_ci      004dab70     mysqlclient:ctype-extra.obj
 0003:00042c78       _to_lower_hp8_english_ci   004dac78     mysqlclient:ctype-extra.obj
 0003:00042d78       _to_upper_hp8_english_ci   004dad78     mysqlclient:ctype-extra.obj
 0003:00042e78       _sort_order_hp8_english_ci 004dae78     mysqlclient:ctype-extra.obj
 0003:00042f78       _to_uni_hp8_english_ci     004daf78     mysqlclient:ctype-extra.obj
 0003:00043178       _ctype_koi8r_general_ci    004db178     mysqlclient:ctype-extra.obj
 0003:00043280       _to_lower_koi8r_general_ci 004db280     mysqlclient:ctype-extra.obj
 0003:00043380       _to_upper_koi8r_general_ci 004db380     mysqlclient:ctype-extra.obj
 0003:00043480       _sort_order_koi8r_general_ci 004db480     mysqlclient:ctype-extra.obj
 0003:00043580       _to_uni_koi8r_general_ci   004db580     mysqlclient:ctype-extra.obj
 0003:00043780       _ctype_latin2_general_ci   004db780     mysqlclient:ctype-extra.obj
 0003:00043888       _to_lower_latin2_general_ci 004db888     mysqlclient:ctype-extra.obj
 0003:00043988       _to_upper_latin2_general_ci 004db988     mysqlclient:ctype-extra.obj
 0003:00043a88       _sort_order_latin2_general_ci 004dba88     mysqlclient:ctype-extra.obj
 0003:00043b88       _to_uni_latin2_general_ci  004dbb88     mysqlclient:ctype-extra.obj
 0003:00043d88       _ctype_swe7_swedish_ci     004dbd88     mysqlclient:ctype-extra.obj
 0003:00043e90       _to_lower_swe7_swedish_ci  004dbe90     mysqlclient:ctype-extra.obj
 0003:00043f90       _to_upper_swe7_swedish_ci  004dbf90     mysqlclient:ctype-extra.obj
 0003:00044090       _sort_order_swe7_swedish_ci 004dc090     mysqlclient:ctype-extra.obj
 0003:00044190       _to_uni_swe7_swedish_ci    004dc190     mysqlclient:ctype-extra.obj
 0003:00044390       _ctype_ascii_general_ci    004dc390     mysqlclient:ctype-extra.obj
 0003:00044498       _to_lower_ascii_general_ci 004dc498     mysqlclient:ctype-extra.obj
 0003:00044598       _to_upper_ascii_general_ci 004dc598     mysqlclient:ctype-extra.obj
 0003:00044698       _sort_order_ascii_general_ci 004dc698     mysqlclient:ctype-extra.obj
 0003:00044798       _to_uni_ascii_general_ci   004dc798     mysqlclient:ctype-extra.obj
 0003:00044998       _ctype_cp1251_bulgarian_ci 004dc998     mysqlclient:ctype-extra.obj
 0003:00044aa0       _to_lower_cp1251_bulgarian_ci 004dcaa0     mysqlclient:ctype-extra.obj
 0003:00044ba0       _to_upper_cp1251_bulgarian_ci 004dcba0     mysqlclient:ctype-extra.obj
 0003:00044ca0       _sort_order_cp1251_bulgarian_ci 004dcca0     mysqlclient:ctype-extra.obj
 0003:00044da0       _to_uni_cp1251_bulgarian_ci 004dcda0     mysqlclient:ctype-extra.obj
 0003:00044fa0       _ctype_latin1_danish_ci    004dcfa0     mysqlclient:ctype-extra.obj
 0003:000450a8       _to_lower_latin1_danish_ci 004dd0a8     mysqlclient:ctype-extra.obj
 0003:000451a8       _to_upper_latin1_danish_ci 004dd1a8     mysqlclient:ctype-extra.obj
 0003:000452a8       _sort_order_latin1_danish_ci 004dd2a8     mysqlclient:ctype-extra.obj
 0003:000453a8       _to_uni_latin1_danish_ci   004dd3a8     mysqlclient:ctype-extra.obj
 0003:000455a8       _ctype_hebrew_general_ci   004dd5a8     mysqlclient:ctype-extra.obj
 0003:000456b0       _to_lower_hebrew_general_ci 004dd6b0     mysqlclient:ctype-extra.obj
 0003:000457b0       _to_upper_hebrew_general_ci 004dd7b0     mysqlclient:ctype-extra.obj
 0003:000458b0       _sort_order_hebrew_general_ci 004dd8b0     mysqlclient:ctype-extra.obj
 0003:000459b0       _to_uni_hebrew_general_ci  004dd9b0     mysqlclient:ctype-extra.obj
 0003:00045bb0       _ctype_latin7_estonian_cs  004ddbb0     mysqlclient:ctype-extra.obj
 0003:00045cb8       _to_lower_latin7_estonian_cs 004ddcb8     mysqlclient:ctype-extra.obj
 0003:00045db8       _to_upper_latin7_estonian_cs 004dddb8     mysqlclient:ctype-extra.obj
 0003:00045eb8       _sort_order_latin7_estonian_cs 004ddeb8     mysqlclient:ctype-extra.obj
 0003:00045fb8       _to_uni_latin7_estonian_cs 004ddfb8     mysqlclient:ctype-extra.obj
 0003:000461b8       _ctype_latin2_hungarian_ci 004de1b8     mysqlclient:ctype-extra.obj
 0003:000462c0       _to_lower_latin2_hungarian_ci 004de2c0     mysqlclient:ctype-extra.obj
 0003:000463c0       _to_upper_latin2_hungarian_ci 004de3c0     mysqlclient:ctype-extra.obj
 0003:000464c0       _sort_order_latin2_hungarian_ci 004de4c0     mysqlclient:ctype-extra.obj
 0003:000465c0       _to_uni_latin2_hungarian_ci 004de5c0     mysqlclient:ctype-extra.obj
 0003:000467c0       _ctype_koi8u_general_ci    004de7c0     mysqlclient:ctype-extra.obj
 0003:000468c8       _to_lower_koi8u_general_ci 004de8c8     mysqlclient:ctype-extra.obj
 0003:000469c8       _to_upper_koi8u_general_ci 004de9c8     mysqlclient:ctype-extra.obj
 0003:00046ac8       _sort_order_koi8u_general_ci 004deac8     mysqlclient:ctype-extra.obj
 0003:00046bc8       _to_uni_koi8u_general_ci   004debc8     mysqlclient:ctype-extra.obj
 0003:00046dc8       _ctype_cp1251_ukrainian_ci 004dedc8     mysqlclient:ctype-extra.obj
 0003:00046ed0       _to_lower_cp1251_ukrainian_ci 004deed0     mysqlclient:ctype-extra.obj
 0003:00046fd0       _to_upper_cp1251_ukrainian_ci 004defd0     mysqlclient:ctype-extra.obj
 0003:000470d0       _sort_order_cp1251_ukrainian_ci 004df0d0     mysqlclient:ctype-extra.obj
 0003:000471d0       _to_uni_cp1251_ukrainian_ci 004df1d0     mysqlclient:ctype-extra.obj
 0003:000473d0       _ctype_greek_general_ci    004df3d0     mysqlclient:ctype-extra.obj
 0003:000474d8       _to_lower_greek_general_ci 004df4d8     mysqlclient:ctype-extra.obj
 0003:000475d8       _to_upper_greek_general_ci 004df5d8     mysqlclient:ctype-extra.obj
 0003:000476d8       _sort_order_greek_general_ci 004df6d8     mysqlclient:ctype-extra.obj
 0003:000477d8       _to_uni_greek_general_ci   004df7d8     mysqlclient:ctype-extra.obj
 0003:000479d8       _ctype_cp1250_general_ci   004df9d8     mysqlclient:ctype-extra.obj
 0003:00047ae0       _to_lower_cp1250_general_ci 004dfae0     mysqlclient:ctype-extra.obj
 0003:00047be0       _to_upper_cp1250_general_ci 004dfbe0     mysqlclient:ctype-extra.obj
 0003:00047ce0       _sort_order_cp1250_general_ci 004dfce0     mysqlclient:ctype-extra.obj
 0003:00047de0       _to_uni_cp1250_general_ci  004dfde0     mysqlclient:ctype-extra.obj
 0003:00047fe0       _ctype_latin2_croatian_ci  004dffe0     mysqlclient:ctype-extra.obj
 0003:000480e8       _to_lower_latin2_croatian_ci 004e00e8     mysqlclient:ctype-extra.obj
 0003:000481e8       _to_upper_latin2_croatian_ci 004e01e8     mysqlclient:ctype-extra.obj
 0003:000482e8       _sort_order_latin2_croatian_ci 004e02e8     mysqlclient:ctype-extra.obj
 0003:000483e8       _to_uni_latin2_croatian_ci 004e03e8     mysqlclient:ctype-extra.obj
 0003:000485e8       _ctype_cp1257_lithuanian_ci 004e05e8     mysqlclient:ctype-extra.obj
 0003:000486f0       _to_lower_cp1257_lithuanian_ci 004e06f0     mysqlclient:ctype-extra.obj
 0003:000487f0       _to_upper_cp1257_lithuanian_ci 004e07f0     mysqlclient:ctype-extra.obj
 0003:000488f0       _sort_order_cp1257_lithuanian_ci 004e08f0     mysqlclient:ctype-extra.obj
 0003:000489f0       _to_uni_cp1257_lithuanian_ci 004e09f0     mysqlclient:ctype-extra.obj
 0003:00048bf0       _ctype_latin5_turkish_ci   004e0bf0     mysqlclient:ctype-extra.obj
 0003:00048cf8       _to_lower_latin5_turkish_ci 004e0cf8     mysqlclient:ctype-extra.obj
 0003:00048df8       _to_upper_latin5_turkish_ci 004e0df8     mysqlclient:ctype-extra.obj
 0003:00048ef8       _sort_order_latin5_turkish_ci 004e0ef8     mysqlclient:ctype-extra.obj
 0003:00048ff8       _to_uni_latin5_turkish_ci  004e0ff8     mysqlclient:ctype-extra.obj
 0003:000491f8       _ctype_armscii8_general_ci 004e11f8     mysqlclient:ctype-extra.obj
 0003:00049300       _to_lower_armscii8_general_ci 004e1300     mysqlclient:ctype-extra.obj
 0003:00049400       _to_upper_armscii8_general_ci 004e1400     mysqlclient:ctype-extra.obj
 0003:00049500       _sort_order_armscii8_general_ci 004e1500     mysqlclient:ctype-extra.obj
 0003:00049600       _to_uni_armscii8_general_ci 004e1600     mysqlclient:ctype-extra.obj
 0003:00049800       _ctype_cp866_general_ci    004e1800     mysqlclient:ctype-extra.obj
 0003:00049908       _to_lower_cp866_general_ci 004e1908     mysqlclient:ctype-extra.obj
 0003:00049a08       _to_upper_cp866_general_ci 004e1a08     mysqlclient:ctype-extra.obj
 0003:00049b08       _sort_order_cp866_general_ci 004e1b08     mysqlclient:ctype-extra.obj
 0003:00049c08       _to_uni_cp866_general_ci   004e1c08     mysqlclient:ctype-extra.obj
 0003:00049e08       _ctype_keybcs2_general_ci  004e1e08     mysqlclient:ctype-extra.obj
 0003:00049f10       _to_lower_keybcs2_general_ci 004e1f10     mysqlclient:ctype-extra.obj
 0003:0004a010       _to_upper_keybcs2_general_ci 004e2010     mysqlclient:ctype-extra.obj
 0003:0004a110       _sort_order_keybcs2_general_ci 004e2110     mysqlclient:ctype-extra.obj
 0003:0004a210       _to_uni_keybcs2_general_ci 004e2210     mysqlclient:ctype-extra.obj
 0003:0004a410       _ctype_macce_general_ci    004e2410     mysqlclient:ctype-extra.obj
 0003:0004a518       _to_lower_macce_general_ci 004e2518     mysqlclient:ctype-extra.obj
 0003:0004a618       _to_upper_macce_general_ci 004e2618     mysqlclient:ctype-extra.obj
 0003:0004a718       _sort_order_macce_general_ci 004e2718     mysqlclient:ctype-extra.obj
 0003:0004a818       _to_uni_macce_general_ci   004e2818     mysqlclient:ctype-extra.obj
 0003:0004aa18       _ctype_macroman_general_ci 004e2a18     mysqlclient:ctype-extra.obj
 0003:0004ab20       _to_lower_macroman_general_ci 004e2b20     mysqlclient:ctype-extra.obj
 0003:0004ac20       _to_upper_macroman_general_ci 004e2c20     mysqlclient:ctype-extra.obj
 0003:0004ad20       _sort_order_macroman_general_ci 004e2d20     mysqlclient:ctype-extra.obj
 0003:0004ae20       _to_uni_macroman_general_ci 004e2e20     mysqlclient:ctype-extra.obj
 0003:0004b020       _ctype_cp852_general_ci    004e3020     mysqlclient:ctype-extra.obj
 0003:0004b128       _to_lower_cp852_general_ci 004e3128     mysqlclient:ctype-extra.obj
 0003:0004b228       _to_upper_cp852_general_ci 004e3228     mysqlclient:ctype-extra.obj
 0003:0004b328       _sort_order_cp852_general_ci 004e3328     mysqlclient:ctype-extra.obj
 0003:0004b428       _to_uni_cp852_general_ci   004e3428     mysqlclient:ctype-extra.obj
 0003:0004b628       _ctype_latin7_general_ci   004e3628     mysqlclient:ctype-extra.obj
 0003:0004b730       _to_lower_latin7_general_ci 004e3730     mysqlclient:ctype-extra.obj
 0003:0004b830       _to_upper_latin7_general_ci 004e3830     mysqlclient:ctype-extra.obj
 0003:0004b930       _sort_order_latin7_general_ci 004e3930     mysqlclient:ctype-extra.obj
 0003:0004ba30       _to_uni_latin7_general_ci  004e3a30     mysqlclient:ctype-extra.obj
 0003:0004bc30       _ctype_latin7_general_cs   004e3c30     mysqlclient:ctype-extra.obj
 0003:0004bd38       _to_lower_latin7_general_cs 004e3d38     mysqlclient:ctype-extra.obj
 0003:0004be38       _to_upper_latin7_general_cs 004e3e38     mysqlclient:ctype-extra.obj
 0003:0004bf38       _sort_order_latin7_general_cs 004e3f38     mysqlclient:ctype-extra.obj
 0003:0004c038       _to_uni_latin7_general_cs  004e4038     mysqlclient:ctype-extra.obj
 0003:0004c238       _ctype_macce_bin           004e4238     mysqlclient:ctype-extra.obj
 0003:0004c340       _to_lower_macce_bin        004e4340     mysqlclient:ctype-extra.obj
 0003:0004c440       _to_upper_macce_bin        004e4440     mysqlclient:ctype-extra.obj
 0003:0004c540       _to_uni_macce_bin          004e4540     mysqlclient:ctype-extra.obj
 0003:0004c740       _ctype_cp1250_croatian_ci  004e4740     mysqlclient:ctype-extra.obj
 0003:0004c848       _to_lower_cp1250_croatian_ci 004e4848     mysqlclient:ctype-extra.obj
 0003:0004c948       _to_upper_cp1250_croatian_ci 004e4948     mysqlclient:ctype-extra.obj
 0003:0004ca48       _sort_order_cp1250_croatian_ci 004e4a48     mysqlclient:ctype-extra.obj
 0003:0004cb48       _to_uni_cp1250_croatian_ci 004e4b48     mysqlclient:ctype-extra.obj
 0003:0004cd48       _ctype_latin1_general_ci   004e4d48     mysqlclient:ctype-extra.obj
 0003:0004ce50       _to_lower_latin1_general_ci 004e4e50     mysqlclient:ctype-extra.obj
 0003:0004cf50       _to_upper_latin1_general_ci 004e4f50     mysqlclient:ctype-extra.obj
 0003:0004d050       _sort_order_latin1_general_ci 004e5050     mysqlclient:ctype-extra.obj
 0003:0004d150       _to_uni_latin1_general_ci  004e5150     mysqlclient:ctype-extra.obj
 0003:0004d350       _ctype_latin1_general_cs   004e5350     mysqlclient:ctype-extra.obj
 0003:0004d458       _to_lower_latin1_general_cs 004e5458     mysqlclient:ctype-extra.obj
 0003:0004d558       _to_upper_latin1_general_cs 004e5558     mysqlclient:ctype-extra.obj
 0003:0004d658       _sort_order_latin1_general_cs 004e5658     mysqlclient:ctype-extra.obj
 0003:0004d758       _to_uni_latin1_general_cs  004e5758     mysqlclient:ctype-extra.obj
 0003:0004d958       _ctype_cp1251_bin          004e5958     mysqlclient:ctype-extra.obj
 0003:0004da60       _to_lower_cp1251_bin       004e5a60     mysqlclient:ctype-extra.obj
 0003:0004db60       _to_upper_cp1251_bin       004e5b60     mysqlclient:ctype-extra.obj
 0003:0004dc60       _to_uni_cp1251_bin         004e5c60     mysqlclient:ctype-extra.obj
 0003:0004de60       _ctype_cp1251_general_ci   004e5e60     mysqlclient:ctype-extra.obj
 0003:0004df68       _to_lower_cp1251_general_ci 004e5f68     mysqlclient:ctype-extra.obj
 0003:0004e068       _to_upper_cp1251_general_ci 004e6068     mysqlclient:ctype-extra.obj
 0003:0004e168       _sort_order_cp1251_general_ci 004e6168     mysqlclient:ctype-extra.obj
 0003:0004e268       _to_uni_cp1251_general_ci  004e6268     mysqlclient:ctype-extra.obj
 0003:0004e468       _ctype_cp1251_general_cs   004e6468     mysqlclient:ctype-extra.obj
 0003:0004e570       _to_lower_cp1251_general_cs 004e6570     mysqlclient:ctype-extra.obj
 0003:0004e670       _to_upper_cp1251_general_cs 004e6670     mysqlclient:ctype-extra.obj
 0003:0004e770       _sort_order_cp1251_general_cs 004e6770     mysqlclient:ctype-extra.obj
 0003:0004e870       _to_uni_cp1251_general_cs  004e6870     mysqlclient:ctype-extra.obj
 0003:0004ea70       _ctype_macroman_bin        004e6a70     mysqlclient:ctype-extra.obj
 0003:0004eb78       _to_lower_macroman_bin     004e6b78     mysqlclient:ctype-extra.obj
 0003:0004ec78       _to_upper_macroman_bin     004e6c78     mysqlclient:ctype-extra.obj
 0003:0004ed78       _to_uni_macroman_bin       004e6d78     mysqlclient:ctype-extra.obj
 0003:0004ef78       _ctype_cp1256_general_ci   004e6f78     mysqlclient:ctype-extra.obj
 0003:0004f080       _to_lower_cp1256_general_ci 004e7080     mysqlclient:ctype-extra.obj
 0003:0004f180       _to_upper_cp1256_general_ci 004e7180     mysqlclient:ctype-extra.obj
 0003:0004f280       _sort_order_cp1256_general_ci 004e7280     mysqlclient:ctype-extra.obj
 0003:0004f380       _to_uni_cp1256_general_ci  004e7380     mysqlclient:ctype-extra.obj
 0003:0004f580       _ctype_cp1257_bin          004e7580     mysqlclient:ctype-extra.obj
 0003:0004f688       _to_lower_cp1257_bin       004e7688     mysqlclient:ctype-extra.obj
 0003:0004f788       _to_upper_cp1257_bin       004e7788     mysqlclient:ctype-extra.obj
 0003:0004f888       _to_uni_cp1257_bin         004e7888     mysqlclient:ctype-extra.obj
 0003:0004fa88       _ctype_cp1257_general_ci   004e7a88     mysqlclient:ctype-extra.obj
 0003:0004fb90       _to_lower_cp1257_general_ci 004e7b90     mysqlclient:ctype-extra.obj
 0003:0004fc90       _to_upper_cp1257_general_ci 004e7c90     mysqlclient:ctype-extra.obj
 0003:0004fd90       _sort_order_cp1257_general_ci 004e7d90     mysqlclient:ctype-extra.obj
 0003:0004fe90       _to_uni_cp1257_general_ci  004e7e90     mysqlclient:ctype-extra.obj
 0003:00050090       _ctype_armscii8_bin        004e8090     mysqlclient:ctype-extra.obj
 0003:00050198       _to_lower_armscii8_bin     004e8198     mysqlclient:ctype-extra.obj
 0003:00050298       _to_upper_armscii8_bin     004e8298     mysqlclient:ctype-extra.obj
 0003:00050398       _to_uni_armscii8_bin       004e8398     mysqlclient:ctype-extra.obj
 0003:00050598       _ctype_ascii_bin           004e8598     mysqlclient:ctype-extra.obj
 0003:000506a0       _to_lower_ascii_bin        004e86a0     mysqlclient:ctype-extra.obj
 0003:000507a0       _to_upper_ascii_bin        004e87a0     mysqlclient:ctype-extra.obj
 0003:000508a0       _to_uni_ascii_bin          004e88a0     mysqlclient:ctype-extra.obj
 0003:00050aa0       _ctype_cp1250_bin          004e8aa0     mysqlclient:ctype-extra.obj
 0003:00050ba8       _to_lower_cp1250_bin       004e8ba8     mysqlclient:ctype-extra.obj
 0003:00050ca8       _to_upper_cp1250_bin       004e8ca8     mysqlclient:ctype-extra.obj
 0003:00050da8       _to_uni_cp1250_bin         004e8da8     mysqlclient:ctype-extra.obj
 0003:00050fa8       _ctype_cp1256_bin          004e8fa8     mysqlclient:ctype-extra.obj
 0003:000510b0       _to_lower_cp1256_bin       004e90b0     mysqlclient:ctype-extra.obj
 0003:000511b0       _to_upper_cp1256_bin       004e91b0     mysqlclient:ctype-extra.obj
 0003:000512b0       _to_uni_cp1256_bin         004e92b0     mysqlclient:ctype-extra.obj
 0003:000514b0       _ctype_cp866_bin           004e94b0     mysqlclient:ctype-extra.obj
 0003:000515b8       _to_lower_cp866_bin        004e95b8     mysqlclient:ctype-extra.obj
 0003:000516b8       _to_upper_cp866_bin        004e96b8     mysqlclient:ctype-extra.obj
 0003:000517b8       _to_uni_cp866_bin          004e97b8     mysqlclient:ctype-extra.obj
 0003:000519b8       _ctype_dec8_bin            004e99b8     mysqlclient:ctype-extra.obj
 0003:00051ac0       _to_lower_dec8_bin         004e9ac0     mysqlclient:ctype-extra.obj
 0003:00051bc0       _to_upper_dec8_bin         004e9bc0     mysqlclient:ctype-extra.obj
 0003:00051cc0       _to_uni_dec8_bin           004e9cc0     mysqlclient:ctype-extra.obj
 0003:00051ec0       _ctype_greek_bin           004e9ec0     mysqlclient:ctype-extra.obj
 0003:00051fc8       _to_lower_greek_bin        004e9fc8     mysqlclient:ctype-extra.obj
 0003:000520c8       _to_upper_greek_bin        004ea0c8     mysqlclient:ctype-extra.obj
 0003:000521c8       _to_uni_greek_bin          004ea1c8     mysqlclient:ctype-extra.obj
 0003:000523c8       _ctype_hebrew_bin          004ea3c8     mysqlclient:ctype-extra.obj
 0003:000524d0       _to_lower_hebrew_bin       004ea4d0     mysqlclient:ctype-extra.obj
 0003:000525d0       _to_upper_hebrew_bin       004ea5d0     mysqlclient:ctype-extra.obj
 0003:000526d0       _to_uni_hebrew_bin         004ea6d0     mysqlclient:ctype-extra.obj
 0003:000528d0       _ctype_hp8_bin             004ea8d0     mysqlclient:ctype-extra.obj
 0003:000529d8       _to_lower_hp8_bin          004ea9d8     mysqlclient:ctype-extra.obj
 0003:00052ad8       _to_upper_hp8_bin          004eaad8     mysqlclient:ctype-extra.obj
 0003:00052bd8       _to_uni_hp8_bin            004eabd8     mysqlclient:ctype-extra.obj
 0003:00052dd8       _ctype_keybcs2_bin         004eadd8     mysqlclient:ctype-extra.obj
 0003:00052ee0       _to_lower_keybcs2_bin      004eaee0     mysqlclient:ctype-extra.obj
 0003:00052fe0       _to_upper_keybcs2_bin      004eafe0     mysqlclient:ctype-extra.obj
 0003:000530e0       _to_uni_keybcs2_bin        004eb0e0     mysqlclient:ctype-extra.obj
 0003:000532e0       _ctype_koi8r_bin           004eb2e0     mysqlclient:ctype-extra.obj
 0003:000533e8       _to_lower_koi8r_bin        004eb3e8     mysqlclient:ctype-extra.obj
 0003:000534e8       _to_upper_koi8r_bin        004eb4e8     mysqlclient:ctype-extra.obj
 0003:000535e8       _to_uni_koi8r_bin          004eb5e8     mysqlclient:ctype-extra.obj
 0003:000537e8       _ctype_koi8u_bin           004eb7e8     mysqlclient:ctype-extra.obj
 0003:000538f0       _to_lower_koi8u_bin        004eb8f0     mysqlclient:ctype-extra.obj
 0003:000539f0       _to_upper_koi8u_bin        004eb9f0     mysqlclient:ctype-extra.obj
 0003:00053af0       _to_uni_koi8u_bin          004ebaf0     mysqlclient:ctype-extra.obj
 0003:00053cf0       _ctype_latin2_bin          004ebcf0     mysqlclient:ctype-extra.obj
 0003:00053df8       _to_lower_latin2_bin       004ebdf8     mysqlclient:ctype-extra.obj
 0003:00053ef8       _to_upper_latin2_bin       004ebef8     mysqlclient:ctype-extra.obj
 0003:00053ff8       _to_uni_latin2_bin         004ebff8     mysqlclient:ctype-extra.obj
 0003:000541f8       _ctype_latin5_bin          004ec1f8     mysqlclient:ctype-extra.obj
 0003:00054300       _to_lower_latin5_bin       004ec300     mysqlclient:ctype-extra.obj
 0003:00054400       _to_upper_latin5_bin       004ec400     mysqlclient:ctype-extra.obj
 0003:00054500       _to_uni_latin5_bin         004ec500     mysqlclient:ctype-extra.obj
 0003:00054700       _ctype_latin7_bin          004ec700     mysqlclient:ctype-extra.obj
 0003:00054808       _to_lower_latin7_bin       004ec808     mysqlclient:ctype-extra.obj
 0003:00054908       _to_upper_latin7_bin       004ec908     mysqlclient:ctype-extra.obj
 0003:00054a08       _to_uni_latin7_bin         004eca08     mysqlclient:ctype-extra.obj
 0003:00054c08       _ctype_cp850_bin           004ecc08     mysqlclient:ctype-extra.obj
 0003:00054d10       _to_lower_cp850_bin        004ecd10     mysqlclient:ctype-extra.obj
 0003:00054e10       _to_upper_cp850_bin        004ece10     mysqlclient:ctype-extra.obj
 0003:00054f10       _to_uni_cp850_bin          004ecf10     mysqlclient:ctype-extra.obj
 0003:00055110       _ctype_cp852_bin           004ed110     mysqlclient:ctype-extra.obj
 0003:00055218       _to_lower_cp852_bin        004ed218     mysqlclient:ctype-extra.obj
 0003:00055318       _to_upper_cp852_bin        004ed318     mysqlclient:ctype-extra.obj
 0003:00055418       _to_uni_cp852_bin          004ed418     mysqlclient:ctype-extra.obj
 0003:00055618       _ctype_swe7_bin            004ed618     mysqlclient:ctype-extra.obj
 0003:00055720       _to_lower_swe7_bin         004ed720     mysqlclient:ctype-extra.obj
 0003:00055820       _to_upper_swe7_bin         004ed820     mysqlclient:ctype-extra.obj
 0003:00055920       _to_uni_swe7_bin           004ed920     mysqlclient:ctype-extra.obj
 0003:00055b20       _ctype_geostd8_general_ci  004edb20     mysqlclient:ctype-extra.obj
 0003:00055c28       _to_lower_geostd8_general_ci 004edc28     mysqlclient:ctype-extra.obj
 0003:00055d28       _to_upper_geostd8_general_ci 004edd28     mysqlclient:ctype-extra.obj
 0003:00055e28       _sort_order_geostd8_general_ci 004ede28     mysqlclient:ctype-extra.obj
 0003:00055f28       _to_uni_geostd8_general_ci 004edf28     mysqlclient:ctype-extra.obj
 0003:00056128       _ctype_geostd8_bin         004ee128     mysqlclient:ctype-extra.obj
 0003:00056230       _to_lower_geostd8_bin      004ee230     mysqlclient:ctype-extra.obj
 0003:00056330       _to_upper_geostd8_bin      004ee330     mysqlclient:ctype-extra.obj
 0003:00056430       _to_uni_geostd8_bin        004ee430     mysqlclient:ctype-extra.obj
 0003:00056630       _ctype_latin1_spanish_ci   004ee630     mysqlclient:ctype-extra.obj
 0003:00056738       _to_lower_latin1_spanish_ci 004ee738     mysqlclient:ctype-extra.obj
 0003:00056838       _to_upper_latin1_spanish_ci 004ee838     mysqlclient:ctype-extra.obj
 0003:00056938       _sort_order_latin1_spanish_ci 004ee938     mysqlclient:ctype-extra.obj
 0003:00056a38       _to_uni_latin1_spanish_ci  004eea38     mysqlclient:ctype-extra.obj
 0003:00056c38       _ctype_cp1250_polish_ci    004eec38     mysqlclient:ctype-extra.obj
 0003:00056d40       _to_lower_cp1250_polish_ci 004eed40     mysqlclient:ctype-extra.obj
 0003:00056e40       _to_upper_cp1250_polish_ci 004eee40     mysqlclient:ctype-extra.obj
 0003:00056f40       _sort_order_cp1250_polish_ci 004eef40     mysqlclient:ctype-extra.obj
 0003:00057040       _to_uni_cp1250_polish_ci   004ef040     mysqlclient:ctype-extra.obj
 0003:00057240       _compiled_charsets         004ef240     mysqlclient:ctype-extra.obj
 0003:00073310       _my_charset_ujis_japanese_ci 0050b310     mysqlclient:ctype-ujis.obj
 0003:00073380       _my_charset_ujis_bin       0050b380     mysqlclient:ctype-ujis.obj
 0003:00075598       _my_charset_tis620_thai_ci 0050d598     mysqlclient:ctype-tis620.obj
 0003:00075608       _my_charset_tis620_bin     0050d608     mysqlclient:ctype-tis620.obj
 0003:00085700       _my_charset_sjis_japanese_ci 0051d700     mysqlclient:ctype-sjis.obj
 0003:00085770       _my_charset_sjis_bin       0051d770     mysqlclient:ctype-sjis.obj
 0003:000acf88       _my_charset_gbk_chinese_ci 00544f88     mysqlclient:ctype-gbk.obj
 0003:000acff8       _my_charset_gbk_bin        00544ff8     mysqlclient:ctype-gbk.obj
 0003:000c24f0       _my_charset_gb2312_chinese_ci 0055a4f0     mysqlclient:ctype-gb2312.obj
 0003:000c2560       _my_charset_gb2312_bin     0055a560     mysqlclient:ctype-gb2312.obj
 0003:000e31b8       _my_charset_euckr_korean_ci 0057b1b8     mysqlclient:ctype-euc_kr.obj
 0003:000e3228       _my_charset_euckr_bin      0057b228     mysqlclient:ctype-euc_kr.obj
 0003:000fdd10       _my_charset_eucjpms_japanese_ci 00595d10     mysqlclient:ctype-eucjpms.obj
 0003:000fdd80       _my_charset_eucjpms_bin    00595d80     mysqlclient:ctype-eucjpms.obj
 0003:000fe618       _my_charset_latin2_czech_ci 00596618     mysqlclient:ctype-czech.obj
 0003:000ff350       _my_charset_cp1250_czech_ci 00597350     mysqlclient:ctype-win1250ch.obj
 0003:00115c00       _my_charset_big5_chinese_ci 005adc00     mysqlclient:ctype-big5.obj
 0003:00115c70       _my_charset_big5_bin       005adc70     mysqlclient:ctype-big5.obj
 0003:00115ce0       ??_R0?AVMD2@TaoCrypt@@@8   005adce0     mysqlclient:md2.obj
 0003:00115cfc       _my_str_malloc             005adcfc     mysqlclient:str_alloc.obj
 0003:00115d00       _my_str_free               005add00     mysqlclient:str_alloc.obj
 0003:00115d08       ??_R0?AV_Locimp@locale@std@@@8 005add08     libcpmt:locale0.obj
 0003:00115d2c       ??_R0?AVerror_category@std@@@8 005add2c     libcpmt:syserror.obj
 0003:00115d50       ??_R0?AV_Generic_error_category@std@@@8 005add50     libcpmt:syserror.obj
 0003:00115d7c       ??_R0?AV_Iostream_error_category@std@@@8 005add7c     libcpmt:syserror.obj
 0003:00115da8       ??_R0?AV_System_error_category@std@@@8 005adda8     libcpmt:syserror.obj
 0003:00115df0       ??_R0?AVlogic_error@std@@@8 005addf0     libcpmt:xthrow.obj
 0003:00115e10       ??_R0?AVlength_error@std@@@8 005ade10     libcpmt:xthrow.obj
 0003:00115e30       ??_R0?AVout_of_range@std@@@8 005ade30     libcpmt:xthrow.obj
 0003:00115e50       ??_R0?AUctype_base@std@@@8 005ade50     libcpmt:cout.obj
 0003:00115e70       ??_R0?AVios_base@std@@@8   005ade70     libcpmt:cout.obj
 0003:00115e8c       ??_R0?AV?$_Iosb@H@std@@@8  005ade8c     libcpmt:cout.obj
 0003:00115ea8       ??_R0?AV?$basic_ostream@DU?$char_traits@D@std@@@std@@@8 005adea8     libcpmt:cout.obj
 0003:00115ee4       ??_R0?AV?$basic_ios@DU?$char_traits@D@std@@@std@@@8 005adee4     libcpmt:cout.obj
 0003:00115f1c       ??_R0?AV?$ctype@D@std@@@8  005adf1c     libcpmt:cout.obj
 0003:00115f38       ??_R0?AV?$basic_streambuf@DU?$char_traits@D@std@@@std@@@8 005adf38     libcpmt:cout.obj
 0003:00115f74       ??_R0?AV?$basic_filebuf@DU?$char_traits@D@std@@@std@@@8 005adf74     libcpmt:cout.obj
 0003:00115fb0       ??_R0?AVcodecvt_base@std@@@8 005adfb0     libcpmt:cout.obj
 0003:00115fd0       ??_R0?AV?$codecvt@DDH@std@@@8 005adfd0     libcpmt:cout.obj
 0003:00115ff8       ?_PJP_CPP_Copyright@@3PADA 005adff8     libcpmt:iosptrs.obj
 0003:00116053       ?_Sync@ios_base@std@@0_NA  005ae053     libcpmt:ios.obj
 0003:00116054       ??_R0?AVtype_info@@@8      005ae054     LIBCMT:typinfo.obj
 0003:00116070       ___security_cookie         005ae070     LIBCMT:gs_cookie.obj
 0003:00116074       ___security_cookie_complement 005ae074     LIBCMT:gs_cookie.obj
 0003:00116080       ___lconv_static_decimal    005ae080     LIBCMT:lconv.obj
 0003:00116084       ___lconv_static_W_decimal  005ae084     LIBCMT:lconv.obj
 0003:00116088       ___lconv_c                 005ae088     LIBCMT:lconv.obj
 0003:001160d8       ___lconv                   005ae0d8     LIBCMT:lconv.obj
 0003:001160e0       __fltused                  005ae0e0     LIBCMT:_fpinit_.obj
 0003:001160e4       __ldused                   005ae0e4     LIBCMT:_fpinit_.obj
 0003:001160f0       __iob                      005ae0f0     LIBCMT:_file.obj
 0003:00116374       ___app_type                005ae374     LIBCMT:crt0.obj
 0003:00116510       __half                     005ae510     LIBCMT:_pow_.obj
 0003:00116530       ??_R0?AVbad_exception@std@@@8 005ae530     LIBCMT:frame.obj
 0003:00116550       __pctype                   005ae550     LIBCMT:ctype.obj
 0003:00116554       __pwctype                  005ae554     LIBCMT:ctype.obj
 0003:00116558       ___abort_behavior          005ae558     LIBCMT:abort.obj
 0003:00116560       ___flsindex                005ae560     LIBCMT:tidtable.obj
 0003:00116564       ___getvalueindex           005ae564     LIBCMT:tidtable.obj
 0003:00116570       ___globallocalestatus      005ae570     LIBCMT:glstatus.obj
 0003:00116574       ___clocalestr              005ae574     LIBCMT:nlsdata2.obj
 0003:00116578       ___lc_time_c               005ae578     LIBCMT:nlsdata2.obj
 0003:001166e0       ___initiallocinfo          005ae6e0     LIBCMT:nlsdata2.obj
 0003:001167b8       ___ptlocinfo               005ae7b8     LIBCMT:nlsdata2.obj
 0003:001167bc       ___initiallocalestructinfo 005ae7bc     LIBCMT:nlsdata2.obj
 0003:001167c4       ___nullstring              005ae7c4     LIBCMT:output.obj
 0003:001167c8       ___wnullstring             005ae7c8     LIBCMT:output.obj
 0003:001167cc       __cfltcvt_tab              005ae7cc     LIBCMT:cmiscdat.obj
 0003:00116800       ___initialmbcinfo          005ae800     LIBCMT:mbctype.obj
 0003:00116a20       __mbctype                  005aea20     LIBCMT:mbctype.obj
 0003:00116b28       __mbcasemap                005aeb28     LIBCMT:mbctype.obj
 0003:00116c28       ___ptmbcinfo               005aec28     LIBCMT:mbctype.obj
 0003:00116d20       ___badioinfo               005aed20     LIBCMT:ioinit.obj
 0003:00116e80       __timezone                 005aee80     LIBCMT:timeset.obj
 0003:00116e84       __daylight                 005aee84     LIBCMT:timeset.obj
 0003:00116e88       __dstbias                  005aee88     LIBCMT:timeset.obj
 0003:00116f10       __tzname                   005aef10     LIBCMT:timeset.obj
 0003:00116f20       __lpdays                   005aef20     LIBCMT:days.obj
 0003:00116f54       __days                     005aef54     LIBCMT:days.obj
 0003:00116f90       __lookuptrailbytes         005aef90     LIBCMT:read.obj
 0003:00117090       __d_inf                    005af090     LIBCMT:_util_.obj
 0003:00117098       __d_ind                    005af098     LIBCMT:_util_.obj
 0003:001170a0       __d_max                    005af0a0     LIBCMT:_util_.obj
 0003:001170a8       __d_min                    005af0a8     LIBCMT:_util_.obj
 0003:001170b0       __d_mzero                  005af0b0     LIBCMT:_util_.obj
 0003:001171c0       ___mb_cur_max              005af1c0     LIBCMT:nlsdata1.obj
 0003:001171c4       ___decimal_point           005af1c4     LIBCMT:nlsdata1.obj
 0003:001171c8       ___decimal_point_length    005af1c8     LIBCMT:nlsdata1.obj
 0003:001171d0       __sys_errlist              005af1d0     LIBCMT:syserr.obj
 0003:00117280       __sys_nerr                 005af280     LIBCMT:syserr.obj
 0003:00117290       __NLG_Destination          005af290     LIBCMT:exsup.obj
 0003:001172d0       __pow10pos                 005af2d0     LIBCMT:_constpow_.obj
 0003:00117430       __pow10neg                 005af430     LIBCMT:_constpow_.obj
 0003:0011758c       __matherr_flag             005af58c     LIBCMT:_matherr_.obj
 0003:00117590       __confh                    005af590     LIBCMT:initcon.obj
 0003:00117598       __coninpfh                 005af598     LIBCMT:initconin.obj
 0003:001175a0       ?_Psave@?$_Facetptr@V?$num_put@DV?$ostreambuf_iterator@DU?$char_traits@D@std@@@std@@@std@@@std@@2PBVfacet@locale@2@B 005af5a0     client.obj
 0003:001175a4       ?_Psave@?$_Facetptr@V?$numpunct@D@std@@@std@@2PBVfacet@locale@2@B 005af5a4     client.obj
 0003:001175a8       ?eq_crypto@@3VEQCrypto@@A  005af5a8     client.obj
 0003:00117628       ?id@?$num_put@DV?$ostreambuf_iterator@DU?$char_traits@D@std@@@std@@@std@@2V0locale@2@A 005af628     client.obj
 0003:0011762c       ?id@?$numpunct@D@std@@2V0locale@2@A 005af62c     client.obj
 0003:00117630       ?WriteXML_enabled@@3_NA    005af630     net.obj
 0003:00117638       ?database@@3VDatabase@@A   005af638     net.obj
 0003:00131980       ?client_list@@3VClientList@@A 005c9980     net.obj
 0003:00131988       ?eqns@@3VEQNetworkServer@@A 005c9988     net.obj
 0003:001319f0       ?net@@3VNetConnection@@A   005c99f0     net.obj
 0003:00132184       ?world_list@@3VLWorldList@@A 005ca184     net.obj
 0003:001321a4       ?LogFile@@3PAVEQEMuLog@@A  005ca1a4     debug.obj
 0003:001321ac       ?TrylockSupported@@3_NA    005ca1ac     Mutex.obj
 0003:001321ad       ?winsock@@3VInitWinsock@@A 005ca1ad     TCPConnection.obj
 0003:001321b0       ?current_time@@3IA         005ca1b0     timer.obj
 0003:001321b4       ?last_time@@3IA            005ca1b4     timer.obj
 0003:001321b8       _mysql_port                005ca1b8     mysqlclient:client.obj
 0003:001321bc       _mysql_unix_port           005ca1bc     mysqlclient:client.obj
 0003:001321c0       _shared_memory_base_name   005ca1c0     mysqlclient:client.obj
 0003:001321c8       _my_defaults_file          005ca1c8     mysqlclient:default.obj
 0003:001321cc       _my_defaults_group_suffix  005ca1cc     mysqlclient:default.obj
 0003:001321d0       _my_defaults_extra_file    005ca1d0     mysqlclient:default.obj
 0003:001321d8       _charsets_dir              005ca1d8     mysqlclient:charset.obj
 0003:001321e0       _all_charsets              005ca1e0     mysqlclient:charset.obj
 0003:001325f0       _have_tcpip                005ca5f0     mysqlclient:my_init.obj
 0003:001325f1       _my_init_done              005ca5f1     mysqlclient:my_init.obj
 0003:001325f4       _mysys_usage_id            005ca5f4     mysqlclient:my_init.obj
 0003:001325f8       _THR_thread_count          005ca5f8     mysqlclient:my_thr_init.obj
 0003:00132610       _timed_mutexes             005ca610     mysqlclient:my_static.obj
 0003:00132611       _my_disable_locking        005ca611     mysqlclient:my_static.obj
 0003:00132612       _my_disable_async_io       005ca612     mysqlclient:my_static.obj
 0003:00132613       _my_disable_flush_key_blocks 005ca613     mysqlclient:my_static.obj
 0003:00132614       _home_dir                  005ca614     mysqlclient:my_static.obj
 0003:00132618       _my_progname               005ca618     mysqlclient:my_static.obj
 0003:0013261c       _my_stream_opened          005ca61c     mysqlclient:my_static.obj
 0003:00132620       _curr_dir                  005ca620     mysqlclient:my_static.obj
 0003:00132820       _home_dir_buff             005ca820     mysqlclient:my_static.obj
 0003:00132a20       _my_file_opened            005caa20     mysqlclient:my_static.obj
 0003:00132a24       _my_tmp_file_created       005caa24     mysqlclient:my_static.obj
 0003:00132a28       _my_file_total_opened      005caa28     mysqlclient:my_static.obj
 0003:00132a2c       _my_dont_interrupt         005caa2c     mysqlclient:my_static.obj
 0003:00132a30       _my_file_info_default      005caa30     mysqlclient:my_static.obj
 0003:00133230       __my_signals               005cb230     mysqlclient:my_static.obj
 0003:00133234       _my_once_root_block        005cb234     mysqlclient:my_static.obj
 0003:00133238       __my_sig_remember          005cb238     mysqlclient:my_static.obj
 0003:00133288       _sf_malloc_prehunc         005cb288     mysqlclient:my_static.obj
 0003:0013328c       _sf_malloc_endhunc         005cb28c     mysqlclient:my_static.obj
 0003:00133290       _sf_malloc_quick           005cb290     mysqlclient:my_static.obj
 0003:00133294       _sf_malloc_cur_memory      005cb294     mysqlclient:my_static.obj
 0003:00133298       _sf_malloc_max_memory      005cb298     mysqlclient:my_static.obj
 0003:0013329c       _sf_malloc_count           005cb29c     mysqlclient:my_static.obj
 0003:001332a0       _sf_max_adress             005cb2a0     mysqlclient:my_static.obj
 0003:001332a4       _sf_malloc_root            005cb2a4     mysqlclient:my_static.obj
 0003:001332a8       _my_have_got_alarm         005cb2a8     mysqlclient:my_static.obj
 0003:001332ac       _my_disable_symlinks       005cb2ac     mysqlclient:my_static.obj
 0003:001332ad       _mysys_uses_curses         005cb2ad     mysqlclient:my_static.obj
 0003:001332ae       _my_use_symdir             005cb2ae     mysqlclient:mf_pack.obj
 0003:001332b0       _my_string_stack_guard     005cb2b0     mysqlclient:ctype.obj
 0003:001332d0       _thd_lib_detected          005cb2d0     mysqlclient:my_pthread.obj
 0003:00133301       ?isMMX@TaoCrypt@@3_NA      005cb301     mysqlclient:misc.obj
 0003:00133374       ?_Clocptr@_Locimp@locale@std@@0PAV123@A 005cb374     libcpmt:locale0.obj
 0003:00133378       ?_Id_cnt@id@locale@std@@0HA 005cb378     libcpmt:locale0.obj
 0003:0013337c       ?id@?$ctype@D@std@@2V0locale@2@A 005cb37c     libcpmt:locale0.obj
 0003:00133380       ?id@?$codecvt@GDH@std@@2V0locale@2@A 005cb380     libcpmt:locale0.obj
 0003:00133384       ?id@?$ctype@_W@std@@2V0locale@2@A 005cb384     libcpmt:locale0.obj
 0003:00133388       ?id@?$codecvt@_WDH@std@@2V0locale@2@A 005cb388     libcpmt:locale0.obj
 0003:00133390       ?id@?$ctype@G@std@@2V0locale@2@A 005cb390     libcpmt:locale0.obj
 0003:00133398       ?_Stinit@?1??_Init@?$basic_filebuf@DU?$char_traits@D@std@@@std@@IAEXPAU_iobuf@@W4_Initfl@23@@Z@4HA 005cb398     libcpmt:cout.obj
 0003:0013339c       ?_Psave@?$_Facetptr@V?$ctype@D@std@@@std@@2PBVfacet@locale@2@B 005cb39c     libcpmt:cout.obj
 0003:001333a0       ?_Psave@?$_Facetptr@V?$codecvt@DDH@std@@@std@@2PBVfacet@locale@2@B 005cb3a0     libcpmt:cout.obj
 0003:00133408       ?cout@std@@3V?$basic_ostream@DU?$char_traits@D@std@@@1@A 005cb408     libcpmt:cout.obj
 0003:00133458       ?id@?$codecvt@DDH@std@@2V0locale@2@A 005cb458     libcpmt:cout.obj
 0003:001334b8       ?cerr@std@@3V?$basic_ostream@DU?$char_traits@D@std@@@1@A 005cb4b8     libcpmt:cerr.obj
 0003:00133608       ?_Ptr_cin@std@@3PAV?$basic_istream@DU?$char_traits@D@std@@@1@A 005cb608     libcpmt:iosptrs.obj
 0003:0013360c       ?_Ptr_cout@std@@3PAV?$basic_ostream@DU?$char_traits@D@std@@@1@A 005cb60c     libcpmt:iosptrs.obj
 0003:00133610       ?_Ptr_cerr@std@@3PAV?$basic_ostream@DU?$char_traits@D@std@@@1@A 005cb610     libcpmt:iosptrs.obj
 0003:00133614       ?_Ptr_clog@std@@3PAV?$basic_ostream@DU?$char_traits@D@std@@@1@A 005cb614     libcpmt:iosptrs.obj
 0003:00133618       ?_Ptr_wcin@std@@3PAV?$basic_istream@_WU?$char_traits@_W@std@@@1@A 005cb618     libcpmt:iosptrs.obj
 0003:0013361c       ?_Ptr_wcout@std@@3PAV?$basic_ostream@_WU?$char_traits@_W@std@@@1@A 005cb61c     libcpmt:iosptrs.obj
 0003:00133620       ?_Ptr_wcerr@std@@3PAV?$basic_ostream@_WU?$char_traits@_W@std@@@1@A 005cb620     libcpmt:iosptrs.obj
 0003:00133624       ?_Ptr_wclog@std@@3PAV?$basic_ostream@_WU?$char_traits@_W@std@@@1@A 005cb624     libcpmt:iosptrs.obj
 0003:00133654       ?_Index@ios_base@std@@0HA  005cb654     libcpmt:ios.obj
 0003:0013369c       ___lconv_static_null       005cb69c     LIBCMT:lconv.obj
 0003:001336a0       ___lconv_static_W_null     005cb6a0     LIBCMT:lconv.obj
 0003:001336a4       ___fastflag                005cb6a4     LIBCMT:_fpinit_.obj
 0003:001336c0       __umaskval                 005cb6c0     LIBCMT:crt0dat.obj
 0003:001336c4       ___argc                    005cb6c4     LIBCMT:crt0dat.obj
 0003:001336c8       ___argv                    005cb6c8     LIBCMT:crt0dat.obj
 0003:001336cc       ___wargv                   005cb6cc     LIBCMT:crt0dat.obj
 0003:001336d0       __environ                  005cb6d0     LIBCMT:crt0dat.obj
 0003:001336d4       ___initenv                 005cb6d4     LIBCMT:crt0dat.obj
 0003:001336d8       __wenviron                 005cb6d8     LIBCMT:crt0dat.obj
 0003:001336dc       ___winitenv                005cb6dc     LIBCMT:crt0dat.obj
 0003:001336e0       __pgmptr                   005cb6e0     LIBCMT:crt0dat.obj
 0003:001336e4       __wpgmptr                  005cb6e4     LIBCMT:crt0dat.obj
 0003:001336e8       __exitflag                 005cb6e8     LIBCMT:crt0dat.obj
 0003:001336ec       __C_Termination_Done       005cb6ec     LIBCMT:crt0dat.obj
 0003:001336f0       __C_Exit_Done              005cb6f0     LIBCMT:crt0dat.obj
 0003:001336f4       __cflush                   005cb6f4     LIBCMT:_file.obj
 0003:00133700       __aenvptr                  005cb700     LIBCMT:crt0.obj
 0003:00133704       __wenvptr                  005cb704     LIBCMT:crt0.obj
 0003:00133708       ___error_mode              005cb708     LIBCMT:crt0.obj
 0003:001337c8       ___pInvalidArgHandler      005cb7c8     LIBCMT:invarg.obj
 0003:001337cc       ___locale_changed          005cb7cc     LIBCMT:setlocal.obj
 0003:001337d0       __maxwait                  005cb7d0     LIBCMT:crtheap.obj
 0003:001337dc       ?_pnhHeap@@3P6AHI@ZA       005cb7dc     LIBCMT:handler.obj
 0003:001337e0       _gpFlsAlloc                005cb7e0     LIBCMT:tidtable.obj
 0003:001337e4       _gpFlsGetValue             005cb7e4     LIBCMT:tidtable.obj
 0003:001337e8       _gpFlsSetValue             005cb7e8     LIBCMT:tidtable.obj
 0003:001337ec       _gpFlsFree                 005cb7ec     LIBCMT:tidtable.obj
 0003:001337f0       ?__pInconsistency@@3P6AXXZA 005cb7f0     LIBCMT:hooks.obj
 0003:00133b1c       __crtheap                  005cbb1c     LIBCMT:heapinit.obj
 0003:00133b20       __stdbuf                   005cbb20     LIBCMT:_sftbuf.obj
 0003:00133b2c       ___mbulinfo                005cbb2c     LIBCMT:mbctype.obj
 0003:00133b38       ___mbcodepage              005cbb38     LIBCMT:mbctype.obj
 0003:00133b3c       ___ismbcodepage            005cbb3c     LIBCMT:mbctype.obj
 0003:00133b40       ___mblcid                  005cbb40     LIBCMT:mbctype.obj
 0003:00133c9c       ___pPurecall               005cbc9c     LIBCMT:inithelp.obj
 0003:001343d4       __newmode                  005cc3d4     LIBCMT:_newmode.obj
 0003:001343ec       ?pArgList@UnDecorator@@0PAVReplicator@@A 005cc3ec     LIBCMT:undname.obj
 0003:001343f0       ?pZNameList@UnDecorator@@0PAVReplicator@@A 005cc3f0     LIBCMT:undname.obj
 0003:001343f4       ?pTemplateArgList@UnDecorator@@0PAVReplicator@@A 005cc3f4     LIBCMT:undname.obj
 0003:001343f8       ?gName@UnDecorator@@0PBDB  005cc3f8     LIBCMT:undname.obj
 0003:001343fc       ?name@UnDecorator@@0PBDB   005cc3fc     LIBCMT:undname.obj
 0003:00134400       ?outputString@UnDecorator@@0PADA 005cc400     LIBCMT:undname.obj
 0003:00134404       ?maxStringLength@UnDecorator@@0HA 005cc404     LIBCMT:undname.obj
 0003:00134408       ?disableFlags@UnDecorator@@0KA 005cc408     LIBCMT:undname.obj
 0003:0013440c       ?m_pGetParameter@UnDecorator@@0P6APADJ@ZA 005cc40c     LIBCMT:undname.obj
 0003:00134410       ?fExplicitTemplateParams@UnDecorator@@0_NA 005cc410     LIBCMT:undname.obj
 0003:00134411       ?fGetTemplateArgumentList@UnDecorator@@0_NA 005cc411     LIBCMT:undname.obj
 0003:00134414       __outputformat             005cc414     LIBCMT:outputformat.obj
 0003:00134418       __commode                  005cc418     LIBCMT:ncommode.obj
 0003:00134430       __fmode                    005cc430     LIBCMT:txtmode.obj
 0003:00134438       _query_performance_frequency 005cc438     <common>
 0003:00134440       _query_performance_offset  005cc440     <common>
 0003:00134460       _THR_LOCK_threads          005cc460     <common>
 0003:00134480       _LOCK_gethostbyname_r      005cc480     <common>
 0003:001344a0       _THR_LOCK_myisam_mmap      005cc4a0     <common>
 0003:001344c0       _THR_LOCK_time             005cc4c0     <common>
 0003:001344e0       _THR_COND_threads          005cc4e0     <common>
 0003:00134520       _THR_LOCK_malloc           005cc520     <common>
 0003:00134540       _THR_LOCK_isam             005cc540     <common>
 0003:00134560       _THR_LOCK_myisam           005cc560     <common>
 0003:00134580       _THR_LOCK_heap             005cc580     <common>
 0003:001345a0       _THR_LOCK_open             005cc5a0     <common>
 0003:001345c0       _THR_LOCK_charset          005cc5c0     <common>
 0003:001345e0       _THR_LOCK_lock             005cc5e0     <common>
 0003:001345f8       _THR_KEY_mysys             005cc5f8     <common>
 0003:00134600       _LOCK_localtime_r          005cc600     <common>
 0003:00134620       _THR_LOCK_net              005cc620     <common>
 0003:00134640       _mysql_server_last_error   005cc640     <common>
 0003:00134840       _mysql_server_last_errno   005cc840     <common>
 0003:00134844       __debugger_hook_dummy      005cc844     <common>
 0003:00134848       ___use_sse2_mathfcns       005cc848     <common>
 0003:0013484c       __pmatherr                 005cc84c     <common>
 0003:00134850       __nhandle                  005cc850     <common>
 0003:00134860       ___pioinfo                 005cc860     <common>
 0003:00134960       ___sse2_available          005cc960     <common>
 0003:00134964       __acmdln                   005cc964     <common>
 0003:00134968       __NoHeapEnableTerminationOnCorruption 005cc968     <common>
 0003:0013496c       ___piob                    005cc96c     <common>
 0003:00134980       __bufin                    005cc980     <common>
 0003:00135980       __nstream                  005cd980     <common>
 0003:00135984       ___env_initialized         005cd984     <common>
 0003:00135988       ___onexitend               005cd988     <common>
 0003:0013598c       ___onexitbegin             005cd98c     <common>
 0003:00135990       ___mbctype_initialized     005cd990     <common>
 0003:00135994       ___dyn_tls_init_callback   005cd994     <common>

 entry point at        0001:000602b4

 Static symbols

 0001:000008d8       __catch$?_Init@?$numpunct@D@std@@IAEXABV_Locinfo@2@_N@Z$0 004018d8 f i client.obj
 0001:00000d13       __catch$?_Copy@?$basic_string@DU?$char_traits@D@std@@V?$allocator@D@2@@std@@QAEXII@Z$0 00401d13 f i client.obj
 0001:00000d9b       __catch$?_Copy@?$basic_string@DU?$char_traits@D@std@@V?$allocator@D@2@@std@@QAEXII@Z$1 00401d9b f i client.obj
 0001:000010b3       __catch$?_Osfx@?$basic_ostream@DU?$char_traits@D@std@@@std@@QAEXXZ$0 004020b3 f i client.obj
 0001:00001b76       __catch$??$?6U?$char_traits@D@std@@@std@@YAAAV?$basic_ostream@DU?$char_traits@D@std@@@0@AAV10@PBD@Z$0 00402b76 f i client.obj
 0001:00001ea4       __catch$??6?$basic_ostream@DU?$char_traits@D@std@@@std@@QAEAAV01@G@Z$0 00402ea4 f i client.obj
 0001:00002093       __catch$??6?$basic_ostream@DU?$char_traits@D@std@@@std@@QAEAAV01@I@Z$0 00403093 f i client.obj
 0001:000021b0       __catch$?put@?$basic_ostream@DU?$char_traits@D@std@@@std@@QAEAAV12@D@Z$0 004031b0 f i client.obj
 0001:000077e3       __catch$??6?$basic_ostream@DU?$char_traits@D@std@@@std@@QAEAAV01@H@Z$0 004087e3 f i LWorld.obj
 0001:00014260       _set_mysql_extended_error  00415260 f   mysqlclient:client.obj
 0001:00014970       _is_NT                     00415970 f   mysqlclient:client.obj
 0001:00014a40       _add_init_command          00415a40 f   mysqlclient:client.obj
 0001:00014f30       _cli_fetch_lengths         00415f30 f   mysqlclient:client.obj
 0001:000153d0       _mysql_ssl_free            004163d0 f   mysqlclient:client.obj
 0001:00015470       _ssl_verify_server_cert    00416470 f   mysqlclient:client.obj
 0001:00015740       _mysql_fix_pointers        00416740 f   mysqlclient:client.obj
 0001:00015800       _mysql_close_free_options  00416800 f   mysqlclient:client.obj
 0001:000158f0       _mysql_close_free          004168f0 f   mysqlclient:client.obj
 0001:00015950       _mysql_prune_stmt_list     00416950 f   mysqlclient:client.obj
 0001:00015c60       _cli_use_result            00416c60 f   mysqlclient:client.obj
 0001:00016170       _cli_flush_use_result      00417170 f   mysqlclient:client.obj
 0001:00016400       _read_one_row              00417400 f   mysqlclient:client.obj
 0001:000174d0       _cli_read_query_result     004184d0 f   mysqlclient:client.obj
 0001:000179e0       _expand_error              004189e0 f   mysqlclient:libmysql.obj
 0001:00017bf0       _default_local_infile_init 00418bf0 f   mysqlclient:libmysql.obj
 0001:00017cd0       _default_local_infile_read 00418cd0 f   mysqlclient:libmysql.obj
 0001:00017d30       _default_local_infile_end  00418d30 f   mysqlclient:libmysql.obj
 0001:00017d60       _default_local_infile_error 00418d60 f   mysqlclient:libmysql.obj
 0001:00017e00       _spawn_init                00418e00 f   mysqlclient:libmysql.obj
 0001:000180d0       _my_realloc_str            004190d0 f   mysqlclient:libmysql.obj
 0001:000182a0       _store_param_type          004192a0 f   mysqlclient:libmysql.obj
 0001:000182c0       _store_param_null          004192c0 f   mysqlclient:libmysql.obj
 0001:000182e0       _store_param               004192e0 f   mysqlclient:libmysql.obj
 0001:00018330       _execute                   00419330 f   mysqlclient:libmysql.obj
 0001:000188d0       _get_master                004198d0 f   mysqlclient:libmysql.obj
 0001:00018910       _get_slaves_from_master    00419910 f   mysqlclient:libmysql.obj
 0001:00018ca0       _putShortMSB               00419ca0 f   mysqlclient:deflate.obj
 0001:00018cd0       _flush_pending             00419cd0 f   mysqlclient:deflate.obj
 0001:000195e0       _read_buf                  0041a5e0 f   mysqlclient:deflate.obj
 0001:00019650       _lm_init                   0041a650 f   mysqlclient:deflate.obj
 0001:000196e0       _longest_match             0041a6e0 f   mysqlclient:deflate.obj
 0001:00019860       _longest_match_fast        0041a860 f   mysqlclient:deflate.obj
 0001:00019930       _fill_window               0041a930 f   mysqlclient:deflate.obj
 0001:00019a10       _deflate_stored            0041aa10 f   mysqlclient:deflate.obj
 0001:00019b40       _deflate_fast              0041ab40 f   mysqlclient:deflate.obj
 0001:00019e60       _deflate_slow              0041ae60 f   mysqlclient:deflate.obj
 0001:0001a690       _fixedtables               0041b690 f   mysqlclient:inflate.obj
 0001:0001a6b0       _updatewindow              0041b6b0 f   mysqlclient:inflate.obj
 0001:0001bde0       _my_mb_wc_latin1           0041cde0 f   mysqlclient:ctype-latin1.obj
 0001:0001be20       _my_wc_mb_latin1           0041ce20 f   mysqlclient:ctype-latin1.obj
 0001:0001be70       _my_strnncoll_latin1_de    0041ce70 f   mysqlclient:ctype-latin1.obj
 0001:0001bf20       _my_strnncollsp_latin1_de  0041cf20 f   mysqlclient:ctype-latin1.obj
 0001:0001c000       _my_strnxfrm_latin1_de     0041d000 f   mysqlclient:ctype-latin1.obj
 0001:0001c500       _vio_init                  0041d500 f   mysqlclient:vio.obj
 0001:0001ccb0       _mark_blocks_free          0041dcb0 f   mysqlclient:my_alloc.obj
 0001:0001cfd0       _handle_default_option     0041dfd0 f   mysqlclient:default.obj
 0001:0001d160       _get_argument              0041e160 f   mysqlclient:default.obj
 0001:0001d1f0       _remove_end_comment        0041e1f0 f   mysqlclient:default.obj
 0001:0001d250       _add_directory             0041e250 f   mysqlclient:default.obj
 0001:0001d2d0       _my_get_system_windows_directory 0041e2d0 f   mysqlclient:default.obj
 0001:0001d330       _my_get_module_parent      0041e330 f   mysqlclient:default.obj
 0001:0001d370       _init_default_directories  0041e370 f   mysqlclient:default.obj
 0001:0001d4b0       _search_default_file_with_ext 0041e4b0 f   mysqlclient:default.obj
 0001:0001dbd0       _search_default_file       0041ebd0 f   mysqlclient:default.obj
 0001:0001f600       _get_collation_number_internal 00420600 f   mysqlclient:charset.obj
 0001:0001f640       _init_state_maps           00420640 f   mysqlclient:charset.obj
 0001:0001f780       _simple_cs_init_functions  00420780 f   mysqlclient:charset.obj
 0001:0001f7a0       _cs_copy_data              004207a0 f   mysqlclient:charset.obj
 0001:0001f8d0       _simple_cs_is_full         004208d0 f   mysqlclient:charset.obj
 0001:0001f910       _copy_uca_collation        00420910 f   mysqlclient:charset.obj
 0001:0001f950       _add_collation             00420950 f   mysqlclient:charset.obj
 0001:0001fb70       _my_read_charset_file      00420b70 f   mysqlclient:charset.obj
 0001:0001fcf0       _cs_alloc                  00420cf0 f   mysqlclient:charset.obj
 0001:0001fd00       _init_available_charsets   00420d00 f   mysqlclient:charset.obj
 0001:0001fe30       _get_internal_charset      00420e30 f   mysqlclient:charset.obj
 0001:00020670       ?net_data_is_ready@@YAHI@Z 00421670 f   mysqlclient:net_serv.obj
 0001:000208b0       ?my_real_read@@YAKPAUst_net@@PAI@Z 004218b0 f   mysqlclient:net_serv.obj
 0001:00020c60       ?net_write_buff@@YADPAUst_net@@PBEK@Z 00421c60 f   mysqlclient:net_serv.obj
 0001:00021290       _my_crypt                  00422290 f   mysqlclient:password.obj
 0001:00021480       _ssl_do                    00422480 f   mysqlclient:viossl.obj
 0001:00021590       _get_dh512                 00422590 f   mysqlclient:viosslfactories.obj
 0001:000215e0       _report_errors             004225e0 f   mysqlclient:viosslfactories.obj
 0001:000215e0       _report_errors             004225e0 f   mysqlclient:viosslfactories.obj
 0001:00021620       _vio_set_cert_stuff        00422620 f   mysqlclient:viosslfactories.obj
 0001:00021710       _check_ssl_init            00422710 f   mysqlclient:viosslfactories.obj
 0001:00021740       _new_VioSSLFd              00422740 f   mysqlclient:viosslfactories.obj
 0001:00021d80       _pipe_complete_io          00422d80 f   mysqlclient:viosocket.obj
 0001:00022190       _atoi_octal                00423190 f   mysqlclient:my_init.obj
 0001:000221e0       _my_win_init               004231e0 f   mysqlclient:my_init.obj
 0001:000223e0       _win32_have_tcpip          004233e0 f   mysqlclient:my_init.obj
 0001:00022470       _win32_init_tcp_ip         00423470 f   mysqlclient:my_init.obj
 0001:00023780       _init_block                00424780 f   mysqlclient:trees.obj
 0001:000237f0       _pqdownheap                004247f0 f   mysqlclient:trees.obj
 0001:000238c0       _gen_bitlen                004248c0 f   mysqlclient:trees.obj
 0001:00023ae0       _scan_tree                 00424ae0 f   mysqlclient:trees.obj
 0001:00023bd0       _send_tree                 00424bd0 f   mysqlclient:trees.obj
 0001:000240e0       _send_all_trees            004250e0 f   mysqlclient:trees.obj
 0001:00024340       _compress_block            00425340 f   mysqlclient:trees.obj
 0001:00024750       _set_data_type             00425750 f   mysqlclient:trees.obj
 0001:00024820       _bi_reverse                00425820 f   mysqlclient:trees.obj
 0001:00024840       _bi_flush                  00425840 f   mysqlclient:trees.obj
 0001:000248c0       _bi_windup                 004258c0 f   mysqlclient:trees.obj
 0001:00024940       _copy_block                00425940 f   mysqlclient:trees.obj
 0001:00024a40       _gen_codes                 00425a40 f   mysqlclient:trees.obj
 0001:00024ac0       _build_tree                00425ac0 f   mysqlclient:trees.obj
 0001:00024cc0       _build_bl_tree             00425cc0 f   mysqlclient:trees.obj
 0001:00025230       _crc32_little              00426230 f   mysqlclient:crc32.obj
 0001:00025ed0       _my_coll_init_8bit_bin     00426ed0 f   mysqlclient:ctype-bin.obj
 0001:00025ee0       _my_strnncoll_binary       00426ee0 f   mysqlclient:ctype-bin.obj
 0001:00025ee0       _my_strnncoll_8bit_bin     00426ee0 f   mysqlclient:ctype-bin.obj
 0001:00025ee0       _my_strnncoll_mb_bin       00426ee0 f   mysqlclient:ctype-bin.obj
 0001:00025f90       _my_strnncollsp_binary     00426f90 f   mysqlclient:ctype-bin.obj
 0001:00025fa0       _my_case_bin               00426fa0 f   mysqlclient:ctype-bin.obj
 0001:00025fb0       _my_strcasecmp_bin         00426fb0 f   mysqlclient:ctype-bin.obj
 0001:00025fb0       _my_strcasecmp_mb_bin      00426fb0 f   mysqlclient:ctype-bin.obj
 0001:00025fe0       _my_mb_wc_bin              00426fe0 f   mysqlclient:ctype-bin.obj
 0001:00026000       _my_wc_mb_bin              00427000 f   mysqlclient:ctype-bin.obj
 0001:00026030       _my_hash_sort_mb_bin       00427030 f   mysqlclient:ctype-bin.obj
 0001:000260e0       _my_wildcmp_bin_impl       004270e0 f   mysqlclient:ctype-bin.obj
 0001:00026300       _my_strnxfrm_bin           00427300 f   mysqlclient:ctype-bin.obj
 0001:00026350       _my_instr_bin              00427350 f   mysqlclient:ctype-bin.obj
 0001:000270a0       _my_wildcmp_8bit_impl      004280a0 f   mysqlclient:ctype-simple.obj
 0001:000275b0       _pcmp                      004285b0 f   mysqlclient:ctype-simple.obj
 0001:000275d0       _create_fromuni            004285d0 f   mysqlclient:ctype-simple.obj
 0001:00027920       _my_cset_init_8bit         00428920 f   mysqlclient:ctype-simple.obj
 0001:00027940       _set_max_sort_char         00428940 f   mysqlclient:ctype-simple.obj
 0001:00027970       _my_coll_init_simple       00428970 f   mysqlclient:ctype-simple.obj
 0001:00027ea0       _my_wildcmp_unicode_impl   00428ea0 f   mysqlclient:ctype-utf8.obj
 0001:000281f0       _bincmp                    004291f0 f   mysqlclient:ctype-utf8.obj
 0001:000282a0       _my_utf8_uni               004292a0 f   mysqlclient:ctype-utf8.obj
 0001:00028380       _my_utf8_uni_no_range      00429380 f   mysqlclient:ctype-utf8.obj
 0001:00028420       _my_uni_utf8               00429420 f   mysqlclient:ctype-utf8.obj
 0001:000284c0       _my_uni_utf8_no_range      004294c0 f   mysqlclient:ctype-utf8.obj
 0001:00028530       _my_caseup_utf8            00429530 f   mysqlclient:ctype-utf8.obj
 0001:000285d0       _my_hash_sort_utf8         004295d0 f   mysqlclient:ctype-utf8.obj
 0001:000286c0       _my_caseup_str_utf8        004296c0 f   mysqlclient:ctype-utf8.obj
 0001:00028740       _my_casedn_utf8            00429740 f   mysqlclient:ctype-utf8.obj
 0001:000287e0       _my_casedn_str_utf8        004297e0 f   mysqlclient:ctype-utf8.obj
 0001:00028860       _my_strnncoll_utf8         00429860 f   mysqlclient:ctype-utf8.obj
 0001:000289a0       _my_strnncollsp_utf8       004299a0 f   mysqlclient:ctype-utf8.obj
 0001:00028b00       _my_strcasecmp_utf8        00429b00 f   mysqlclient:ctype-utf8.obj
 0001:00028c60       _my_strnxfrmlen_utf8       00429c60 f   mysqlclient:ctype-utf8.obj
 0001:00028c80       _my_strnxfrm_utf8          00429c80 f   mysqlclient:ctype-utf8.obj
 0001:00028d40       _my_ismbchar_utf8          00429d40 f   mysqlclient:ctype-utf8.obj
 0001:00028d70       _my_mbcharlen_utf8         00429d70 f   mysqlclient:ctype-utf8.obj
 0001:00028db0       _hexlo                     00429db0 f   mysqlclient:ctype-utf8.obj
 0001:00028dc0       _my_mb_wc_filename         00429dc0 f   mysqlclient:ctype-utf8.obj
 0001:00028ee0       _my_wc_mb_filename         00429ee0 f   mysqlclient:ctype-utf8.obj
 0001:00029260       ?setPrefix@?A0x20f574a5@yaSSL@@YA_NPAEH@Z 0042a260 f   mysqlclient:yassl_int.obj
 0001:0002cca0       _expand_tilde              0042dca0 f   mysqlclient:mf_pack.obj
 0001:0002d340       _make_ftype                0042e340 f   mysqlclient:my_fopen.obj
 0001:0002d580       _comp_names                0042e580 f   mysqlclient:my_lib.obj
 0001:0002e400       _my_caseup_str_ucs2        0042f400 f i mysqlclient:crypto_wrapper.obj
 0001:0002e400       _my_casedn_str_ucs2        0042f400 f i mysqlclient:crypto_wrapper.obj
 0001:0002e400       _my_case_str_bin           0042f400 f i mysqlclient:crypto_wrapper.obj
 0001:00031c10       ?constant_compare@yaSSL@@YAHPBE0H@Z 00432c10 f   mysqlclient:yassl_imp.obj
 0001:00031c50       ?pad_check@yaSSL@@YAHPBEEH@Z 00432c50 f   mysqlclient:yassl_imp.obj
 0001:00031c90       ?get_rounds@yaSSL@@YAHHHH@Z 00432c90 f   mysqlclient:yassl_imp.obj
 0001:00032500       _get_thread_lib            00433500 f   mysqlclient:yassl_imp.obj
 0001:00033a20       ?compress_rounds@yaSSL@@YAXAAVSSL@1@HPBE@Z 00434a20 f   mysqlclient:yassl_imp.obj
 0001:00033ac0       ?timing_verify@yaSSL@@YAHAAVSSL@1@PBEHHH@Z 00434ac0 f   mysqlclient:yassl_imp.obj
 0001:00035f10       ?sanity_check_message@?A0x1b9006b7@yaSSL@@YAHAAVSSL@2@I@Z 00436f10 f   mysqlclient:handshake.obj
 0001:000390d0       _mstr                      0043a0d0 f   mysqlclient:ctype.obj
 0001:000390f0       _cs_file_sec               0043a0f0 f   mysqlclient:ctype.obj
 0001:00039130       _fill_uchar                0043a130 f   mysqlclient:ctype.obj
 0001:000391b0       _fill_uint16               0043a1b0 f   mysqlclient:ctype.obj
 0001:00039230       _cs_enter                  0043a230 f   mysqlclient:ctype.obj
 0001:00039290       _cs_leave                  0043a290 f   mysqlclient:ctype.obj
 0001:000392e0       _cs_value                  0043a2e0 f   mysqlclient:ctype.obj
 0001:000397b0       _my_uca_scanner_init_ucs2  0043a7b0 f   mysqlclient:ctype-uca.obj
 0001:00039800       _my_uca_scanner_next_ucs2  0043a800 f   mysqlclient:ctype-uca.obj
 0001:00039950       _my_uca_scanner_init_any   0043a950 f   mysqlclient:ctype-uca.obj
 0001:00039990       _my_uca_scanner_next_any   0043a990 f   mysqlclient:ctype-uca.obj
 0001:00039b20       _my_strnncoll_uca          0043ab20 f   mysqlclient:ctype-uca.obj
 0001:00039bb0       _my_strnncollsp_uca        0043abb0 f   mysqlclient:ctype-uca.obj
 0001:00039ce0       _my_hash_sort_uca          0043ace0 f   mysqlclient:ctype-uca.obj
 0001:00039d90       _my_strnxfrm_uca           0043ad90 f   mysqlclient:ctype-uca.obj
 0001:00039e30       _my_uca_charcmp            0043ae30 f   mysqlclient:ctype-uca.obj
 0001:0003a070       _my_wildcmp_uca_impl       0043b070 f   mysqlclient:ctype-uca.obj
 0001:0003a330       _my_coll_lexem_init        0043b330 f   mysqlclient:ctype-uca.obj
 0001:0003a350       _my_coll_lexem_print_error 0043b350 f   mysqlclient:ctype-uca.obj
 0001:0003a3b0       _ch2x                      0043b3b0 f   mysqlclient:ctype-uca.obj
 0001:0003a3e0       _my_coll_lexem_next        0043b3e0 f   mysqlclient:ctype-uca.obj
 0001:0003a4f0       _my_coll_rule_parse        0043b4f0 f   mysqlclient:ctype-uca.obj
 0001:0003a7b0       _create_tailoring          0043b7b0 f   mysqlclient:ctype-uca.obj
 0001:0003ab50       _my_coll_init_uca          0043bb50 f   mysqlclient:ctype-uca.obj
 0001:0003ab70       _my_strnncoll_any_uca      0043bb70 f   mysqlclient:ctype-uca.obj
 0001:0003aba0       _my_strnncollsp_any_uca    0043bba0 f   mysqlclient:ctype-uca.obj
 0001:0003abd0       _my_hash_sort_any_uca      0043bbd0 f   mysqlclient:ctype-uca.obj
 0001:0003ac00       _my_strnxfrm_any_uca       0043bc00 f   mysqlclient:ctype-uca.obj
 0001:0003ac30       _my_strnncoll_ucs2_uca     0043bc30 f   mysqlclient:ctype-uca.obj
 0001:0003ac60       _my_strnncollsp_ucs2_uca   0043bc60 f   mysqlclient:ctype-uca.obj
 0001:0003ac90       _my_hash_sort_ucs2_uca     0043bc90 f   mysqlclient:ctype-uca.obj
 0001:0003acc0       _my_strnxfrm_ucs2_uca      0043bcc0 f   mysqlclient:ctype-uca.obj
 0001:0003b140       _ismbchar_sjis             0043c140 f   mysqlclient:ctype-cp932.obj
 0001:0003b140       _ismbchar_cp932            0043c140 f   mysqlclient:ctype-cp932.obj
 0001:0003b180       _mbcharlen_cp932           0043c180 f   mysqlclient:ctype-cp932.obj
 0001:0003b180       _mbcharlen_sjis            0043c180 f   mysqlclient:ctype-cp932.obj
 0001:0003b1a0       _my_strnncoll_cp932_internal 0043c1a0 f   mysqlclient:ctype-cp932.obj
 0001:0003b250       _my_strnncoll_cp932        0043c250 f   mysqlclient:ctype-cp932.obj
 0001:0003b290       _my_strnncollsp_cp932      0043c290 f   mysqlclient:ctype-cp932.obj
 0001:0003b310       _my_strnxfrm_cp932         0043c310 f   mysqlclient:ctype-cp932.obj
 0001:0003b3a0       _func_cp932_uni_onechar    0043c3a0 f   mysqlclient:ctype-cp932.obj
 0001:0003b460       _func_uni_cp932_onechar    0043c460 f   mysqlclient:ctype-cp932.obj
 0001:0003b560       _my_wc_mb_cp932            0043c560 f   mysqlclient:ctype-cp932.obj
 0001:0003b5b0       _my_mb_wc_cp932            0043c5b0 f   mysqlclient:ctype-cp932.obj
 0001:0003b630       _my_well_formed_len_cp932  0043c630 f   mysqlclient:ctype-cp932.obj
 0001:0003b880       _SHA1ProcessMessageBlock   0043c880 f   mysqlclient:sha1.obj
 0001:0003be20       _SHA1PadMessage            0043ce20 f   mysqlclient:sha1.obj
 0001:0003c400       _does_drive_exists         0043d400 f   mysqlclient:my_access.obj
 0001:0003cb10       _my_wildcmp_mb_impl        0043db10 f   mysqlclient:ctype-mb.obj
 0001:0003d1c0       _my_strnncollsp_mb_bin     0043e1c0 f   mysqlclient:ctype-mb.obj
 0001:0003d1c0       _my_strnncollsp_8bit_bin   0043e1c0 f   mysqlclient:ctype-mb.obj
 0001:0003d250       _my_strnxfrm_mb_bin        0043e250 f   mysqlclient:ctype-mb.obj
 0001:0003d250       _my_strnxfrm_8bit_bin      0043e250 f   mysqlclient:ctype-mb.obj
 0001:0003d2a0       _pad_max_char              0043e2a0 f   mysqlclient:ctype-mb.obj
 0001:0003d580       _my_wildcmp_mb_bin_impl    0043e580 f   mysqlclient:ctype-mb.obj
 0001:0003df60       ?RoundupSize@TaoCrypt@@YAII@Z 0043ef60 f   mysqlclient:integer.obj
 0001:0003dfb0       ?Compare@TaoCrypt@@YAHPBI0I@Z 0043efb0 f   mysqlclient:integer.obj
 0001:0003dff0       ?Increment@TaoCrypt@@YAIPAIII@Z 0043eff0 f   mysqlclient:integer.obj
 0001:0003e020       ?Decrement@TaoCrypt@@YAIPAIII@Z 0043f020 f   mysqlclient:integer.obj
 0001:0003e060       ?TwosComplement@TaoCrypt@@YAXPAII@Z 0043f060 f   mysqlclient:integer.obj
 0001:0003e090       ?AtomicInverseModPower2@TaoCrypt@@YAII@Z 0043f090 f   mysqlclient:integer.obj
 0001:0003e410       ?HasSSE2@TaoCrypt@@YA_NXZ  0043f410 f   mysqlclient:integer.obj
 0001:0003e4b0       ?IsP4@TaoCrypt@@YA_NXZ     0043f4b0 f   mysqlclient:integer.obj
 0001:0003ed90       ?P4_Mul@TaoCrypt@@YIXPAT__m128i@@PBT2@1@Z 0043fd90 f   mysqlclient:integer.obj
 0001:0003fa40       ?EvenWordCount@TaoCrypt@@YAIPBII@Z 00440a40 f   mysqlclient:integer.obj
 0001:0003fd50       ?LinearMultiply@TaoCrypt@@YAIPAIPBIII@Z 00440d50 f   mysqlclient:integer.obj
 0001:00040e60       ?SetPentiumFunctionPointers@TaoCrypt@@YAXXZ 00441e60 f   mysqlclient:integer.obj
 0001:00041680       ?CorrectQuotientEstimate@TaoCrypt@@YAXPAI00PBII@Z 00442680 f   mysqlclient:integer.obj
 0001:0004a460       ?IsMmx@TaoCrypt@@YA_NXZ    0044b460 f   mysqlclient:misc.obj
 0001:0004a490       ?IPERM@TaoCrypt@@YAXAAI0@Z 0044b490 f   mysqlclient:des.obj
 0001:0004a510       ?FPERM@TaoCrypt@@YAXAAI0@Z 0044b510 f   mysqlclient:des.obj
 0001:00051480       _lex2str                   00452480 f   mysqlclient:xml.obj
 0001:00051550       _my_xml_norm_text          00452550 f   mysqlclient:xml.obj
 0001:000515a0       _my_xml_parser_prefix_cmp  004525a0 f   mysqlclient:xml.obj
 0001:00051650       _my_xml_scan               00452650 f   mysqlclient:xml.obj
 0001:000518c0       _my_xml_value              004528c0 f   mysqlclient:xml.obj
 0001:000518e0       _my_xml_enter              004528e0 f   mysqlclient:xml.obj
 0001:00051990       _mstr                      00452990 f   mysqlclient:xml.obj
 0001:000519b0       _my_xml_leave              004529b0 f   mysqlclient:xml.obj
 0001:00051ef0       _my_ucs2_uni               00452ef0 f   mysqlclient:ctype-ucs2.obj
 0001:00051f20       _my_uni_ucs2               00452f20 f   mysqlclient:ctype-ucs2.obj
 0001:00051f50       _my_caseup_ucs2            00452f50 f   mysqlclient:ctype-ucs2.obj
 0001:00051fd0       _my_hash_sort_ucs2         00452fd0 f   mysqlclient:ctype-ucs2.obj
 0001:000520b0       _my_casedn_ucs2            004530b0 f   mysqlclient:ctype-ucs2.obj
 0001:00052130       _my_strnncoll_ucs2         00453130 f   mysqlclient:ctype-ucs2.obj
 0001:00052260       _my_strnncollsp_ucs2       00453260 f   mysqlclient:ctype-ucs2.obj
 0001:00052360       _my_strncasecmp_ucs2       00453360 f   mysqlclient:ctype-ucs2.obj
 0001:00052470       _my_strnxfrm_ucs2          00453470 f   mysqlclient:ctype-ucs2.obj
 0001:00052520       _my_mbcharlen_ucs2         00453520 f   mysqlclient:ctype-ucs2.obj
 0001:00052520       _my_ismbchar_ucs2          00453520 f   mysqlclient:ctype-ucs2.obj
 0001:00052530       _my_vsnprintf_ucs2         00453530 f   mysqlclient:ctype-ucs2.obj
 0001:000526a0       _my_snprintf_ucs2          004536a0 f   mysqlclient:ctype-ucs2.obj
 0001:000536b0       _my_numchars_ucs2          004546b0 f   mysqlclient:ctype-ucs2.obj
 0001:000536c0       _my_charpos_ucs2           004546c0 f   mysqlclient:ctype-ucs2.obj
 0001:000536e0       _my_well_formed_len_ucs2   004546e0 f   mysqlclient:ctype-ucs2.obj
 0001:00053710       _my_fill_ucs2              00454710 f   mysqlclient:ctype-ucs2.obj
 0001:00053740       _my_lengthsp_ucs2          00454740 f   mysqlclient:ctype-ucs2.obj
 0001:00053770       _my_wildcmp_ucs2_ci        00454770 f   mysqlclient:ctype-ucs2.obj
 0001:00053770       _my_wildcmp_utf8           00454770 f   mysqlclient:ctype-ucs2.obj
 0001:000537b0       _my_wildcmp_ucs2_bin       004547b0 f   mysqlclient:ctype-ucs2.obj
 0001:000537f0       _my_strnncoll_ucs2_bin     004547f0 f   mysqlclient:ctype-ucs2.obj
 0001:000538c0       _my_strnncollsp_ucs2_bin   004548c0 f   mysqlclient:ctype-ucs2.obj
 0001:00053990       _my_strcasecmp_ucs2        00454990 f   mysqlclient:ctype-ucs2.obj
 0001:00053990       _my_strcasecmp_ucs2_bin    00454990 f   mysqlclient:ctype-ucs2.obj
 0001:000539e0       _my_strnxfrm_ucs2_bin      004549e0 f   mysqlclient:ctype-ucs2.obj
 0001:00053a30       _my_hash_sort_ucs2_bin     00454a30 f   mysqlclient:ctype-ucs2.obj
 0001:00053da0       _ismbchar_eucjpms          00454da0 f   mysqlclient:ctype-ujis.obj
 0001:00053da0       _ismbchar_ujis             00454da0 f   mysqlclient:ctype-ujis.obj
 0001:00053e30       _my_mb_wc_jisx0201         00454e30 f   mysqlclient:ctype-ujis.obj
 0001:00053e50       _my_jisx0208_uni_onechar   00454e50 f   mysqlclient:ctype-ujis.obj
 0001:00054460       _my_uni_jisx0208_onechar   00455460 f   mysqlclient:ctype-ujis.obj
 0001:000548f0       _my_uni_jisx0212_onechar   004558f0 f   mysqlclient:ctype-ujis.obj
 0001:00054cd0       _my_jisx0212_uni_onechar   00455cd0 f   mysqlclient:ctype-ujis.obj
 0001:00055250       _my_well_formed_len_ujis   00456250 f   mysqlclient:ctype-ujis.obj
 0001:000552f0       _my_mb_wc_euc_jp           004562f0 f   mysqlclient:ctype-ujis.obj
 0001:00055450       _my_wc_mb_euc_jp           00456450 f   mysqlclient:ctype-ujis.obj
 0001:00055590       _thai2sortable             00456590 f   mysqlclient:ctype-tis620.obj
 0001:00055650       _my_strnncoll_tis620       00456650 f   mysqlclient:ctype-tis620.obj
 0001:00055730       _my_strnncollsp_tis620     00456730 f   mysqlclient:ctype-tis620.obj
 0001:00055870       _my_strnxfrm_tis620        00456870 f   mysqlclient:ctype-tis620.obj
 0001:000558c0       _my_mb_wc_tis620           004568c0 f   mysqlclient:ctype-tis620.obj
 0001:00055900       _my_wc_mb_tis620           00456900 f   mysqlclient:ctype-tis620.obj
 0001:00055950       _my_strnncoll_sjis_internal 00456950 f   mysqlclient:ctype-sjis.obj
 0001:00055a00       _my_strnncoll_sjis         00456a00 f   mysqlclient:ctype-sjis.obj
 0001:00055a40       _my_strnncollsp_sjis       00456a40 f   mysqlclient:ctype-sjis.obj
 0001:00055ac0       _my_strnxfrm_sjis          00456ac0 f   mysqlclient:ctype-sjis.obj
 0001:00055b50       _func_sjis_uni_onechar     00456b50 f   mysqlclient:ctype-sjis.obj
 0001:00055bb0       _func_uni_sjis_onechar     00456bb0 f   mysqlclient:ctype-sjis.obj
 0001:00055c70       _my_wc_mb_sjis             00456c70 f   mysqlclient:ctype-sjis.obj
 0001:00055ce0       _my_mb_wc_sjis             00456ce0 f   mysqlclient:ctype-sjis.obj
 0001:00055d60       _my_numcells_sjis          00456d60 f   mysqlclient:ctype-sjis.obj
 0001:00055d60       _my_numcells_cp932         00456d60 f   mysqlclient:ctype-sjis.obj
 0001:00055da0       _my_well_formed_len_sjis   00456da0 f   mysqlclient:ctype-sjis.obj
 0001:00055e40       _gbksortorder              00456e40 f   mysqlclient:ctype-gbk.obj
 0001:00055fb0       _my_strnncollsp_gbk        00456fb0 f   mysqlclient:ctype-gbk.obj
 0001:00056020       _my_strnxfrm_gbk           00457020 f   mysqlclient:ctype-gbk.obj
 0001:000560d0       _ismbchar_gbk              004570d0 f   mysqlclient:ctype-gbk.obj
 0001:00056110       _func_gbk_uni_onechar      00457110 f   mysqlclient:ctype-gbk.obj
 0001:00056130       _func_uni_gbk_onechar      00457130 f   mysqlclient:ctype-gbk.obj
 0001:00056200       _my_wc_mb_gbk              00457200 f   mysqlclient:ctype-gbk.obj
 0001:00056260       _my_mb_wc_gbk              00457260 f   mysqlclient:ctype-gbk.obj
 0001:000562c0       _my_well_formed_len_gbk    004572c0 f   mysqlclient:ctype-gbk.obj
 0001:00056340       _ismbchar_gb2312           00457340 f   mysqlclient:ctype-gb2312.obj
 0001:00056370       _mbcharlen_gb2312          00457370 f   mysqlclient:ctype-gb2312.obj
 0001:00056390       _func_gb2312_uni_onechar   00457390 f   mysqlclient:ctype-gb2312.obj
 0001:000563e0       _func_uni_gb2312_onechar   004573e0 f   mysqlclient:ctype-gb2312.obj
 0001:000564d0       _my_wc_mb_gb2312           004574d0 f   mysqlclient:ctype-gb2312.obj
 0001:00056530       _my_mb_wc_gb2312           00457530 f   mysqlclient:ctype-gb2312.obj
 0001:000565a0       _my_well_formed_len_gb2312 004575a0 f   mysqlclient:ctype-gb2312.obj
 0001:00056610       _ismbchar_euc_kr           00457610 f   mysqlclient:ctype-euc_kr.obj
 0001:00056660       _mbcharlen_euc_kr          00457660 f   mysqlclient:ctype-euc_kr.obj
 0001:00056660       _mbcharlen_gbk             00457660 f   mysqlclient:ctype-euc_kr.obj
 0001:00056680       _func_ksc5601_uni_onechar  00457680 f   mysqlclient:ctype-euc_kr.obj
 0001:000566c0       _func_uni_ksc5601_onechar  004576c0 f   mysqlclient:ctype-euc_kr.obj
 0001:000567c0       _my_wc_mb_euc_kr           004577c0 f   mysqlclient:ctype-euc_kr.obj
 0001:00056820       _my_mb_wc_euc_kr           00457820 f   mysqlclient:ctype-euc_kr.obj
 0001:00056880       _my_well_formed_len_euckr  00457880 f   mysqlclient:ctype-euc_kr.obj
 0001:00056900       _mbcharlen_eucjpms         00457900 f   mysqlclient:ctype-eucjpms.obj
 0001:00056900       _mbcharlen_ujis            00457900 f   mysqlclient:ctype-eucjpms.obj
 0001:00056940       _my_mb_wc_jisx0201         00457940 f   mysqlclient:ctype-eucjpms.obj
 0001:00056960       _my_wc_mb_jisx0201         00457960 f   mysqlclient:ctype-eucjpms.obj
 0001:00056960       _my_wc_mb_jisx0201         00457960 f   mysqlclient:ctype-eucjpms.obj
 0001:00056990       _my_jisx0208_uni_onechar   00457990 f   mysqlclient:ctype-eucjpms.obj
 0001:00056fb0       _my_uni_jisx0208_onechar   00457fb0 f   mysqlclient:ctype-eucjpms.obj
 0001:000574b0       _my_uni_jisx0212_onechar   004584b0 f   mysqlclient:ctype-eucjpms.obj
 0001:00057900       _my_jisx0212_uni_onechar   00458900 f   mysqlclient:ctype-eucjpms.obj
 0001:00057eb0       _my_well_formed_len_eucjpms 00458eb0 f   mysqlclient:ctype-eucjpms.obj
 0001:00057f50       _my_numcells_eucjp         00458f50 f   mysqlclient:ctype-eucjpms.obj
 0001:00057f50       _my_numcells_eucjp         00458f50 f   mysqlclient:ctype-eucjpms.obj
 0001:00057fa0       _my_mb_wc_euc_jp           00458fa0 f   mysqlclient:ctype-eucjpms.obj
 0001:00058100       _my_wc_mb_euc_jp           00459100 f   mysqlclient:ctype-eucjpms.obj
 0001:00058240       _my_strnncoll_czech        00459240 f   mysqlclient:ctype-czech.obj
 0001:00058570       _my_strnncollsp_czech      00459570 f   mysqlclient:ctype-czech.obj
 0001:000585c0       _my_strnxfrm_czech         004595c0 f   mysqlclient:ctype-czech.obj
 0001:00058770       _my_like_range_czech       00459770 f   mysqlclient:ctype-czech.obj
 0001:00058860       _my_strnncoll_win1250ch    00459860 f   mysqlclient:ctype-win1250ch.obj
 0001:00058a60       _my_strnncollsp_win1250ch  00459a60 f   mysqlclient:ctype-win1250ch.obj
 0001:00058ab0       _my_strnxfrm_win1250ch     00459ab0 f   mysqlclient:ctype-win1250ch.obj
 0001:00058be0       _my_like_range_win1250ch   00459be0 f   mysqlclient:ctype-win1250ch.obj
 0001:00058cd0       _big5strokexfrm            00459cd0 f   mysqlclient:ctype-big5.obj
 0001:00059180       _my_strnncoll_big5_internal 0045a180 f   mysqlclient:ctype-big5.obj
 0001:00059260       _my_strnncoll_big5         0045a260 f   mysqlclient:ctype-big5.obj
 0001:000592a0       _my_strnncollsp_big5       0045a2a0 f   mysqlclient:ctype-big5.obj
 0001:00059310       _my_strnxfrm_big5          0045a310 f   mysqlclient:ctype-big5.obj
 0001:000593c0       _ismbchar_big5             0045a3c0 f   mysqlclient:ctype-big5.obj
 0001:00059400       _mbcharlen_big5            0045a400 f   mysqlclient:ctype-big5.obj
 0001:00059420       _func_big5_uni_onechar     0045a420 f   mysqlclient:ctype-big5.obj
 0001:00059460       _func_uni_big5_onechar     0045a460 f   mysqlclient:ctype-big5.obj
 0001:00059560       _my_wc_mb_big5             0045a560 f   mysqlclient:ctype-big5.obj
 0001:000595b0       _my_mb_wc_big5             0045a5b0 f   mysqlclient:ctype-big5.obj
 0001:00059610       _my_well_formed_len_big5   0045a610 f   mysqlclient:ctype-big5.obj
 0001:0005ac90       _my_str_malloc_default     0045bc90 f   mysqlclient:str_alloc.obj
 0001:0005acb0       _my_str_free_default       0045bcb0 f   mysqlclient:str_alloc.obj
 0001:0005add1       _tidy_global               0045bdd1 f   libcpmt:locale0.obj
 0001:0005b2b2       ?swfun@std@@YAXAAVios_base@1@_J@Z 0045c2b2 f   libcpmt:iomanip.obj
 0001:0005c52a       __ReleaseCPLocHash         0045d52a f   libcpmt:xmbtowc.obj
 0001:0005c56a       __InitCPLocHash            0045d56a f   libcpmt:xmbtowc.obj
 0001:0005cd78       ?CatchGuardHandler@@YA?AW4_EXCEPTION_DISPOSITION@@PAUEHExceptionRecord@@PAUCatchGuardRN@@PAX2@Z 0045dd78 f   LIBCMT:_trnsctrl_.obj
 0001:0005ce82       ?TranslatorGuardHandler@@YA?AW4_EXCEPTION_DISPOSITION@@PAUEHExceptionRecord@@PAUTranslatorGuardRN@@PAX2@Z 0045de82 f   LIBCMT:_trnsctrl_.obj
 0001:0005e5a8       _ctrlevent_capture@4       0045f5a8 f   LIBCMT:winsig.obj
 0001:0005e644       _siglookup                 0045f644 f   LIBCMT:winsig.obj
 0001:0005ea6b       __onexit_nolock            0045fa6b f   LIBCMT:onexit.obj
 0001:0005ece8       _doexit                    0045fce8 f   LIBCMT:crt0dat.obj
 0001:0005f218       __callthreadstart          00460218 f   LIBCMT:thread.obj
 0001:0005f259       __threadstart@4            00460259 f   LIBCMT:thread.obj
 0001:0005fa9d       _flsall                    00460a9d f   LIBCMT:fflush.obj
 0001:0006012a       _fast_error_exit           0046112a f   LIBCMT:crt0.obj
 0001:00060153       ___tmainCRTStartup         00461153 f   LIBCMT:crt0.obj
 0001:0006048e       ?strtoxl@@YAKPAUlocaleinfo_struct@@PBDPAPBDHH@Z 0046148e f   LIBCMT:strtol.obj
 0001:00061415       __tzset_nolock             00462415 f   LIBCMT:tzset.obj
 0001:00061728       _cvtdate                   00462728 f   LIBCMT:tzset.obj
 0001:0006191f       __isindst_nolock           0046291f f   LIBCMT:tzset.obj
 0001:00062580       _shortsort                 00463580 f   LIBCMT:qsort.obj
 0001:00063130       _IsRootUNCName             00464130 f   LIBCMT:stati32.obj
 0001:000631aa       __fullpath_helper          004641aa f   LIBCMT:stati32.obj
 0001:00064746       __copytlocinfo_nolock      00465746 f   LIBCMT:setlocal.obj
 0001:000649fc       __setlocale_get_all        004659fc f   LIBCMT:setlocal.obj
 0001:00064d82       __setlocale_set_cat        00465d82 f   LIBCMT:setlocal.obj
 0001:000650bc       __setlocale_nolock         004660bc f   LIBCMT:setlocal.obj
 0001:00065729       ?ExFilterRethrow@@YAHPAU_EXCEPTION_POINTERS@@@Z 00466729 f   LIBCMT:frame.obj
 0001:000657fd       ?IsInExceptionSpec@@YAEPAUEHExceptionRecord@@PBU_s_ESTypeList@@@Z 004667fd f   LIBCMT:frame.obj
 0001:00065873       ?CallUnexpected@@YAXPBU_s_ESTypeList@@@Z 00466873 f   LIBCMT:frame.obj
 0001:000658a4       __catch$?CallUnexpected@@YAXPBU_s_ESTypeList@@@Z$0 004668a4 f   LIBCMT:frame.obj
 0001:000658bc       ?CallCatchBlock@@YAPAXPAUEHExceptionRecord@@PAUEHRegistrationNode@@PAU_CONTEXT@@PBU_s_FuncInfo@@PAXHK@Z 004668bc f   LIBCMT:frame.obj
 0001:00065c69       ?CatchIt@@YAXPAUEHExceptionRecord@@PAUEHRegistrationNode@@PAU_CONTEXT@@PAXPBU_s_FuncInfo@@PBU_s_HandlerType@@PBU_s_CatchableType@@PBU_s_TryBlockMapEntry@@H1E@Z 00466c69 f   LIBCMT:frame.obj
 0001:00065cd7       ?FindHandlerForForeignException@@YAXPAUEHExceptionRecord@@PAUEHRegistrationNode@@PAU_CONTEXT@@PAXPBU_s_FuncInfo@@HH1@Z 00466cd7 f   LIBCMT:frame.obj
 0001:00065dde       ?FindHandler@@YAXPAUEHExceptionRecord@@PAUEHRegistrationNode@@PAU_CONTEXT@@PAXPBU_s_FuncInfo@@EH1@Z 00466dde f   LIBCMT:frame.obj
 0001:000667b2       _xtoa_s@20                 004677b2 f   LIBCMT:xtoas.obj
 0001:00066a64       ?__crtLCMapStringA_stat@@YAHPAUlocaleinfo_struct@@KKPBDHPADHHH@Z 00467a64 f   LIBCMT:a_map.obj
 0001:00068a0b       __shift                    00469a0b f   LIBCMT:cvt.obj
 0001:00068a50       __cftoe2_l                 00469a50 f   LIBCMT:cvt.obj
 0001:0006900e       __cftof2_l                 0046a00e f   LIBCMT:cvt.obj
 0001:000695a9       ?CPtoLCID@@YAHH@Z          0046a5a9 f   LIBCMT:mbctype.obj
 0001:000695d8       ?setSBCS@@YAXPAUthreadmbcinfostruct@@@Z 0046a5d8 f   LIBCMT:mbctype.obj
 0001:0006963c       ?setSBUpLow@@YAXPAUthreadmbcinfostruct@@@Z 0046a63c f   LIBCMT:mbctype.obj
 0001:00069870       ?getSystemCP@@YAHH@Z       0046a870 f   LIBCMT:mbctype.obj
 0001:00069f03       ___check_float_string      0046af03 f   LIBCMT:input.obj
 0001:00069f5a       __hextodec                 0046af5a f   LIBCMT:input.obj
 0001:00069f7a       __inc                      0046af7a f   LIBCMT:input.obj
 0001:00069f90       __whiteout                 0046af90 f   LIBCMT:input.obj
 0001:0006b5a0       __unwind_handler4          0046c5a0 f   LIBCMT:exsup4.obj
 0001:0006c915       _write_char                0046d915 f   LIBCMT:outputs.obj
 0001:0006c915       _write_char                0046d915 f   LIBCMT:outputs.obj
 0001:0006c948       _write_string              0046d948 f   LIBCMT:outputs.obj
 0001:0006c948       _write_string              0046d948 f   LIBCMT:outputs.obj
 0001:0006e084       _parse_cmdline             0046f084 f   LIBCMT:stdargv.obj
 0001:0006f5bb       __tsopen_nolock            004705bb f   LIBCMT:open.obj
 0001:00071ee0       ?__crtGetStringTypeA_stat@@YAHPAUlocaleinfo_struct@@KPBDHPAGHHH@Z 00472ee0 f   LIBCMT:a_str.obj
 0001:00072007       __get_lc_time              00473007 f   LIBCMT:inittime.obj
 0001:0007331e       _TranslateName             0047431e f   LIBCMT:getqloc.obj
 0001:00073380       _ProcessCodePage           00474380 f   LIBCMT:getqloc.obj
 0001:00073404       _TestDefaultCountry        00474404 f   LIBCMT:getqloc.obj
 0001:00073429       _LcidFromHexString         00474429 f   LIBCMT:getqloc.obj
 0001:0007345a       _GetPrimaryLen             0047445a f   LIBCMT:getqloc.obj
 0001:00073475       _CountryEnumProc@4         00474475 f   LIBCMT:getqloc.obj
 0001:0007351c       _TestDefaultLanguage       0047451c f   LIBCMT:getqloc.obj
 0001:00073577       _LangCountryEnumProc@4     00474577 f   LIBCMT:getqloc.obj
 0001:00073748       _LanguageEnumProc@4        00474748 f   LIBCMT:getqloc.obj
 0001:00073808       _GetLcidFromLangCountry    00474808 f   LIBCMT:getqloc.obj
 0001:0007386f       _GetLcidFromLanguage       0047486f f   LIBCMT:getqloc.obj
 0001:00075650       __unwind_handler           00476650 f   LIBCMT:exsup.obj
 0001:0007627b       ?__crtGetLocaleInfoA_stat@@YAHPAUlocaleinfo_struct@@KKPADH@Z 0047727b f   LIBCMT:a_loc.obj
 0001:000773c2       ?x_ismbbtype_l@@YAHPAUlocaleinfo_struct@@IHH@Z 004783c2 f   LIBCMT:ismbbyte.obj
 0001:0007742d       ?__crtCompareStringA_stat@@YAHPAUlocaleinfo_struct@@KKPBDH1HH@Z 0047842d f   LIBCMT:a_cmp.obj
 0001:000777c7       _findenv                   004787c7 f   LIBCMT:setenv.obj
 0001:00077819       _copy_environ              00478819 f   LIBCMT:setenv.obj
 0001:00078c3a       __hw_cw                    00479c3a f   LIBCMT:_ieee87_.obj
 0001:00078cc8       ___hw_cw_sse2              00479cc8 f   LIBCMT:_ieee87_.obj
 0001:0007950c       __putenv_helper            0047a50c f   LIBCMT:putenv.obj
 0001:00079784       _wfindenv                  0047a784 f   LIBCMT:wsetenv.obj
 0001:000797d9       _copy_environ              0047a7d9 f   LIBCMT:wsetenv.obj
 0001:00079f50       __ehhandler$?_Init@?$numpunct@D@std@@IAEXABV_Locinfo@2@_N@Z 0047af50 f   client.obj
 0001:00079f70       __unwindfunclet$??0_Locinfo@std@@QAE@PBD@Z$0 0047af70 f   client.obj
 0001:00079f78       __unwindfunclet$??0_Locinfo@std@@QAE@PBD@Z$1 0047af78 f   client.obj
 0001:00079f83       __unwindfunclet$??0_Locinfo@std@@QAE@PBD@Z$2 0047af83 f   client.obj
 0001:00079f8e       __unwindfunclet$??0_Locinfo@std@@QAE@PBD@Z$3 0047af8e f   client.obj
 0001:00079f99       __unwindfunclet$??0_Locinfo@std@@QAE@PBD@Z$4 0047af99 f   client.obj
 0001:00079fa4       __ehhandler$??0_Locinfo@std@@QAE@PBD@Z 0047afa4 f   client.obj
 0001:00079fc0       __unwindfunclet$??1_Locinfo@std@@QAE@XZ$0 0047afc0 f   client.obj
 0001:00079fc8       __unwindfunclet$??1_Locinfo@std@@QAE@XZ$1 0047afc8 f   client.obj
 0001:00079fd3       __unwindfunclet$??1_Locinfo@std@@QAE@XZ$2 0047afd3 f   client.obj
 0001:00079fde       __unwindfunclet$??1_Locinfo@std@@QAE@XZ$3 0047afde f   client.obj
 0001:00079fe9       __unwindfunclet$??1_Locinfo@std@@QAE@XZ$4 0047afe9 f   client.obj
 0001:00079ff4       __ehhandler$??1_Locinfo@std@@QAE@XZ 0047aff4 f   client.obj
 0001:0007a010       __ehhandler$?_Copy@?$basic_string@DU?$char_traits@D@std@@V?$allocator@D@2@@std@@QAEXII@Z 0047b010 f   client.obj
 0001:0007a030       __unwindfunclet$?_Getcat@?$num_put@DV?$ostreambuf_iterator@DU?$char_traits@D@std@@@std@@@std@@SAIPAPBVfacet@locale@2@PBV42@@Z$0 0047b030 f   client.obj
 0001:0007a03b       __ehhandler$?_Getcat@?$num_put@DV?$ostreambuf_iterator@DU?$char_traits@D@std@@@std@@@std@@SAIPAPBVfacet@locale@2@PBV42@@Z 0047b03b f   client.obj
 0001:0007a060       __ehhandler$?_Osfx@?$basic_ostream@DU?$char_traits@D@std@@@std@@QAEXXZ 0047b060 f   client.obj
 0001:0007a080       __unwindfunclet$?_Getcat@?$numpunct@D@std@@SAIPAPBVfacet@locale@2@PBV42@@Z$0 0047b080 f   client.obj
 0001:0007a08b       __unwindfunclet$?_Getcat@?$numpunct@D@std@@SAIPAPBVfacet@locale@2@PBV42@@Z$1 0047b08b f   client.obj
 0001:0007a0a4       __unwindfunclet$?_Getcat@?$numpunct@D@std@@SAIPAPBVfacet@locale@2@PBV42@@Z$2 0047b0a4 f   client.obj
 0001:0007a0ac       __ehhandler$?_Getcat@?$numpunct@D@std@@SAIPAPBVfacet@locale@2@PBV42@@Z 0047b0ac f   client.obj
 0001:0007a0d0       __unwindfunclet$??1sentry@?$basic_ostream@DU?$char_traits@D@std@@@std@@QAE@XZ$0 0047b0d0 f   client.obj
 0001:0007a0d8       __ehhandler$??1sentry@?$basic_ostream@DU?$char_traits@D@std@@@std@@QAE@XZ 0047b0d8 f   client.obj
 0001:0007a100       __unwindfunclet$??$?6U?$char_traits@D@std@@@std@@YAAAV?$basic_ostream@DU?$char_traits@D@std@@@0@AAV10@PBD@Z$3 0047b100 f   client.obj
 0001:0007a108       __unwindfunclet$??$?6U?$char_traits@D@std@@@std@@YAAAV?$basic_ostream@DU?$char_traits@D@std@@@0@AAV10@PBD@Z$2 0047b108 f   client.obj
 0001:0007a110       __unwindfunclet$??$?6U?$char_traits@D@std@@@std@@YAAAV?$basic_ostream@DU?$char_traits@D@std@@@0@AAV10@PBD@Z$13 0047b110 f   client.obj
 0001:0007a118       __ehhandler$??$?6U?$char_traits@D@std@@@std@@YAAAV?$basic_ostream@DU?$char_traits@D@std@@@0@AAV10@PBD@Z 0047b118 f   client.obj
 0001:0007a140       __unwindfunclet$??$use_facet@V?$numpunct@D@std@@@std@@YAABV?$numpunct@D@0@ABVlocale@0@@Z$0 0047b140 f   client.obj
 0001:0007a140       __unwindfunclet$??$use_facet@V?$num_put@DV?$ostreambuf_iterator@DU?$char_traits@D@std@@@std@@@std@@@std@@YAABV?$num_put@DV?$ostreambuf_iterator@DU?$char_traits@D@std@@@std@@@0@ABVlocale@0@@Z$0 0047b140 f   client.obj
 0001:0007a148       __ehhandler$??$use_facet@V?$numpunct@D@std@@@std@@YAABV?$numpunct@D@0@ABVlocale@0@@Z 0047b148 f   client.obj
 0001:0007a148       __ehhandler$??$use_facet@V?$num_put@DV?$ostreambuf_iterator@DU?$char_traits@D@std@@@std@@@std@@@std@@YAABV?$num_put@DV?$ostreambuf_iterator@DU?$char_traits@D@std@@@std@@@0@ABVlocale@0@@Z 0047b148 f   client.obj
 0001:0007a170       __unwindfunclet$??6?$basic_ostream@DU?$char_traits@D@std@@@std@@QAEAAV01@G@Z$4 0047b170 f   client.obj
 0001:0007a178       __unwindfunclet$??6?$basic_ostream@DU?$char_traits@D@std@@@std@@QAEAAV01@G@Z$2 0047b178 f   client.obj
 0001:0007a180       __unwindfunclet$??6?$basic_ostream@DU?$char_traits@D@std@@@std@@QAEAAV01@G@Z$3 0047b180 f   client.obj
 0001:0007a188       __unwindfunclet$??6?$basic_ostream@DU?$char_traits@D@std@@@std@@QAEAAV01@G@Z$15 0047b188 f   client.obj
 0001:0007a190       __ehhandler$??6?$basic_ostream@DU?$char_traits@D@std@@@std@@QAEAAV01@G@Z 0047b190 f   client.obj
 0001:0007a1b0       __unwindfunclet$??6?$basic_ostream@DU?$char_traits@D@std@@@std@@QAEAAV01@I@Z$4 0047b1b0 f   client.obj
 0001:0007a1b8       __unwindfunclet$??6?$basic_ostream@DU?$char_traits@D@std@@@std@@QAEAAV01@I@Z$2 0047b1b8 f   client.obj
 0001:0007a1c0       __unwindfunclet$??6?$basic_ostream@DU?$char_traits@D@std@@@std@@QAEAAV01@I@Z$3 0047b1c0 f   client.obj
 0001:0007a1c8       __unwindfunclet$??6?$basic_ostream@DU?$char_traits@D@std@@@std@@QAEAAV01@I@Z$15 0047b1c8 f   client.obj
 0001:0007a1d0       __ehhandler$??6?$basic_ostream@DU?$char_traits@D@std@@@std@@QAEAAV01@I@Z 0047b1d0 f   client.obj
 0001:0007a1f0       __unwindfunclet$?put@?$basic_ostream@DU?$char_traits@D@std@@@std@@QAEAAV12@D@Z$3 0047b1f0 f   client.obj
 0001:0007a1f8       __unwindfunclet$?put@?$basic_ostream@DU?$char_traits@D@std@@@std@@QAEAAV12@D@Z$2 0047b1f8 f   client.obj
 0001:0007a200       __unwindfunclet$?put@?$basic_ostream@DU?$char_traits@D@std@@@std@@QAEAAV12@D@Z$13 0047b200 f   client.obj
 0001:0007a208       __ehhandler$?put@?$basic_ostream@DU?$char_traits@D@std@@@std@@QAEAAV12@D@Z 0047b208 f   client.obj
 0001:0007a230       __unwindfunclet$?_Fput@?$num_put@DV?$ostreambuf_iterator@DU?$char_traits@D@std@@@std@@@std@@ABA?AV?$ostreambuf_iterator@DU?$char_traits@D@std@@@2@V32@AAVios_base@2@DPBDIIII@Z$0 0047b230 f   client.obj
 0001:0007a238       __unwindfunclet$?_Fput@?$num_put@DV?$ostreambuf_iterator@DU?$char_traits@D@std@@@std@@@std@@ABA?AV?$ostreambuf_iterator@DU?$char_traits@D@std@@@2@V32@AAVios_base@2@DPBDIIII@Z$1 0047b238 f   client.obj
 0001:0007a240       __unwindfunclet$?_Fput@?$num_put@DV?$ostreambuf_iterator@DU?$char_traits@D@std@@@std@@@std@@ABA?AV?$ostreambuf_iterator@DU?$char_traits@D@std@@@2@V32@AAVios_base@2@DPBDIIII@Z$2 0047b240 f   client.obj
 0001:0007a248       __ehhandler$?_Fput@?$num_put@DV?$ostreambuf_iterator@DU?$char_traits@D@std@@@std@@@std@@ABA?AV?$ostreambuf_iterator@DU?$char_traits@D@std@@@2@V32@AAVios_base@2@DPBDIIII@Z 0047b248 f   client.obj
 0001:0007a270       __unwindfunclet$?_Iput@?$num_put@DV?$ostreambuf_iterator@DU?$char_traits@D@std@@@std@@@std@@ABA?AV?$ostreambuf_iterator@DU?$char_traits@D@std@@@2@V32@AAVios_base@2@DPADI@Z$0 0047b270 f   client.obj
 0001:0007a278       __unwindfunclet$?_Iput@?$num_put@DV?$ostreambuf_iterator@DU?$char_traits@D@std@@@std@@@std@@ABA?AV?$ostreambuf_iterator@DU?$char_traits@D@std@@@2@V32@AAVios_base@2@DPADI@Z$1 0047b278 f   client.obj
 0001:0007a280       __ehhandler$?_Iput@?$num_put@DV?$ostreambuf_iterator@DU?$char_traits@D@std@@@std@@@std@@ABA?AV?$ostreambuf_iterator@DU?$char_traits@D@std@@@2@V32@AAVios_base@2@DPADI@Z 0047b280 f   client.obj
 0001:0007a2b0       __unwindfunclet$?SendData@TCPConnection@@AAE_NPAD@Z$0 0047b2b0 f   client.obj
 0001:0007a2b0       __unwindfunclet$?FatalError@Client@@QAEXPBD_N@Z$0 0047b2b0 f   client.obj
 0001:0007a2bb       __ehhandler$?FatalError@Client@@QAEXPBD_N@Z 0047b2bb f   client.obj
 0001:0007a2bb       __ehhandler$?SendData@TCPConnection@@AAE_NPAD@Z 0047b2bb f   client.obj
 0001:0007a2e0       __unwindfunclet$?WorldResponse@Client@@QAEXIC@Z$0 0047b2e0 f   client.obj
 0001:0007a2ee       __unwindfunclet$?WorldResponse@Client@@QAEXIC@Z$1 0047b2ee f   client.obj
 0001:0007a2fc       __ehhandler$?WorldResponse@Client@@QAEXIC@Z 0047b2fc f   client.obj
 0001:0007a330       __unwindfunclet$?do_put@?$num_put@DV?$ostreambuf_iterator@DU?$char_traits@D@std@@@std@@@std@@MBE?AV?$ostreambuf_iterator@DU?$char_traits@D@std@@@2@V32@AAVios_base@2@D_N@Z$0 0047b330 f   client.obj
 0001:0007a338       __unwindfunclet$?do_put@?$num_put@DV?$ostreambuf_iterator@DU?$char_traits@D@std@@@std@@@std@@MBE?AV?$ostreambuf_iterator@DU?$char_traits@D@std@@@2@V32@AAVios_base@2@D_N@Z$1 0047b338 f   client.obj
 0001:0007a340       __unwindfunclet$?do_put@?$num_put@DV?$ostreambuf_iterator@DU?$char_traits@D@std@@@std@@@std@@MBE?AV?$ostreambuf_iterator@DU?$char_traits@D@std@@@2@V32@AAVios_base@2@D_N@Z$2 0047b340 f   client.obj
 0001:0007a348       __unwindfunclet$?do_put@?$num_put@DV?$ostreambuf_iterator@DU?$char_traits@D@std@@@std@@@std@@MBE?AV?$ostreambuf_iterator@DU?$char_traits@D@std@@@2@V32@AAVios_base@2@D_N@Z$3 0047b348 f   client.obj
 0001:0007a350       __ehhandler$?do_put@?$num_put@DV?$ostreambuf_iterator@DU?$char_traits@D@std@@@std@@@std@@MBE?AV?$ostreambuf_iterator@DU?$char_traits@D@std@@@2@V32@AAVios_base@2@D_N@Z 0047b350 f   client.obj
 0001:0007a380       __unwindfunclet$?Process@Client@@QAE_NXZ$11 0047b380 f   client.obj
 0001:0007a38e       __unwindfunclet$?Process@Client@@QAE_NXZ$7 0047b38e f   client.obj
 0001:0007a39c       __unwindfunclet$?Process@Client@@QAE_NXZ$4 0047b39c f   client.obj
 0001:0007a3aa       __unwindfunclet$?Process@Client@@QAE_NXZ$5 0047b3aa f   client.obj
 0001:0007a3b8       __unwindfunclet$?Process@Client@@QAE_NXZ$6 0047b3b8 f   client.obj
 0001:0007a3c6       __unwindfunclet$?Process@Client@@QAE_NXZ$1 0047b3c6 f   client.obj
 0001:0007a3d4       __unwindfunclet$?Process@Client@@QAE_NXZ$9 0047b3d4 f   client.obj
 0001:0007a3e2       __unwindfunclet$?Process@Client@@QAE_NXZ$2 0047b3e2 f   client.obj
 0001:0007a3f0       __unwindfunclet$?Process@Client@@QAE_NXZ$0 0047b3f0 f   client.obj
 0001:0007a3fe       __unwindfunclet$?Process@Client@@QAE_NXZ$3 0047b3fe f   client.obj
 0001:0007a40c       __unwindfunclet$?Process@Client@@QAE_NXZ$8 0047b40c f   client.obj
 0001:0007a41a       __ehhandler$?Process@Client@@QAE_NXZ 0047b41a f   client.obj
 0001:0007a450       __unwindfunclet$?CheckEQLogin@Database@@QAEIPBVAPPLAYER@@PADPAEPAHPA_NPAFI@Z$0 0047b450 f   logindatabase.obj
 0001:0007a458       __unwindfunclet$?CheckEQLogin@Database@@QAEIPBVAPPLAYER@@PADPAEPAHPA_NPAFI@Z$1 0047b458 f   logindatabase.obj
 0001:0007a463       __ehhandler$?CheckEQLogin@Database@@QAEIPBVAPPLAYER@@PADPAEPAHPA_NPAFI@Z 0047b463 f   logindatabase.obj
 0001:0007a490       __unwindfunclet$??0LWorld@@QAE@PAVTCPConnection@@_NIG1@Z$0 0047b490 f   LWorld.obj
 0001:0007a49b       __ehhandler$??0LWorld@@QAE@PAVTCPConnection@@_NIG1@Z 0047b49b f   LWorld.obj
 0001:0007a4c0       __unwindfunclet$?Message@LWorld@@QAAXPAD0ZZ$0 0047b4c0 f   LWorld.obj
 0001:0007a4ce       __ehhandler$?Message@LWorld@@QAAXPAD0ZZ 0047b4ce f   LWorld.obj
 0001:0007a500       __unwindfunclet$?Kick@LWorld@@QAEXPAD_N@Z$0 0047b500 f   LWorld.obj
 0001:0007a50b       __ehhandler$?Kick@LWorld@@QAEXPAD_N@Z 0047b50b f   LWorld.obj
 0001:0007a530       __unwindfunclet$??0LWorldList@@QAE@XZ$0 0047b530 f   LWorld.obj
 0001:0007a53b       __unwindfunclet$??0LWorldList@@QAE@XZ$1 0047b53b f   LWorld.obj
 0001:0007a546       __unwindfunclet$??0LWorldList@@QAE@XZ$2 0047b546 f   LWorld.obj
 0001:0007a551       __unwindfunclet$??0LWorldList@@QAE@XZ$3 0047b551 f   LWorld.obj
 0001:0007a55c       __ehhandler$??0LWorldList@@QAE@XZ 0047b55c f   LWorld.obj
 0001:0007a580       __unwindfunclet$??1LWorldList@@QAE@XZ$0 0047b580 f   LWorld.obj
 0001:0007a58b       __unwindfunclet$??1LWorldList@@QAE@XZ$1 0047b58b f   LWorld.obj
 0001:0007a596       __ehhandler$??1LWorldList@@QAE@XZ 0047b596 f   LWorld.obj
 0001:0007a5c0       __unwindfunclet$?SendPacket@LWorldList@@QAEXPAVServerPacket@@PAVLWorld@@@Z$0 0047b5c0 f   LWorld.obj
 0001:0007a5c0       __unwindfunclet$?RecvData@EQNetworkServer@@AAEXPAEIIG@Z$0 0047b5c0 f   LWorld.obj
 0001:0007a5cb       __ehhandler$?SendPacket@LWorldList@@QAEXPAVServerPacket@@PAVLWorld@@@Z 0047b5cb f   LWorld.obj
 0001:0007a5cb       __ehhandler$?RecvData@EQNetworkServer@@AAEXPAEIIG@Z 0047b5cb f   LWorld.obj
 0001:0007a5f0       __unwindfunclet$??6?$basic_ostream@DU?$char_traits@D@std@@@std@@QAEAAV01@H@Z$4 0047b5f0 f   LWorld.obj
 0001:0007a5f8       __unwindfunclet$??6?$basic_ostream@DU?$char_traits@D@std@@@std@@QAEAAV01@H@Z$2 0047b5f8 f   LWorld.obj
 0001:0007a600       __unwindfunclet$??6?$basic_ostream@DU?$char_traits@D@std@@@std@@QAEAAV01@H@Z$3 0047b600 f   LWorld.obj
 0001:0007a608       __unwindfunclet$??6?$basic_ostream@DU?$char_traits@D@std@@@std@@QAEAAV01@H@Z$15 0047b608 f   LWorld.obj
 0001:0007a610       __ehhandler$??6?$basic_ostream@DU?$char_traits@D@std@@@std@@QAEAAV01@H@Z 0047b610 f   LWorld.obj
 0001:0007a630       __unwindfunclet$?ConnectUplink@LWorldList@@QAEXXZ$0 0047b630 f   LWorld.obj
 0001:0007a63e       __unwindfunclet$?ConnectUplink@LWorldList@@QAEXXZ$1 0047b63e f   LWorld.obj
 0001:0007a64c       __ehhandler$?ConnectUplink@LWorldList@@QAEXXZ 0047b64c f   LWorld.obj
 0001:0007a680       __unwindfunclet$?AddPeer@LWorldList@@QAEXIG_N@Z$0 0047b680 f   LWorld.obj
 0001:0007a68b       __unwindfunclet$?AddPeer@LWorldList@@QAEXIG_N@Z$1 0047b68b f   LWorld.obj
 0001:0007a696       __ehhandler$?AddPeer@LWorldList@@QAEXIG_N@Z 0047b696 f   LWorld.obj
 0001:0007a6c0       __unwindfunclet$?Process@LWorld@@QAE_NXZ$0 0047b6c0 f   LWorld.obj
 0001:0007a6cb       __unwindfunclet$?Process@LWorld@@QAE_NXZ$1 0047b6cb f   LWorld.obj
 0001:0007a6d6       __unwindfunclet$?Process@LWorld@@QAE_NXZ$2 0047b6d6 f   LWorld.obj
 0001:0007a6e1       __unwindfunclet$?Process@LWorld@@QAE_NXZ$4 0047b6e1 f   LWorld.obj
 0001:0007a6ec       __unwindfunclet$?Process@LWorld@@QAE_NXZ$5 0047b6ec f   LWorld.obj
 0001:0007a6f7       __ehhandler$?Process@LWorld@@QAE_NXZ 0047b6f7 f   LWorld.obj
 0001:0007a720       __unwindfunclet$?Process@LWorldList@@QAEXXZ$0 0047b720 f   LWorld.obj
 0001:0007a72b       __ehhandler$?Process@LWorldList@@QAEXXZ 0047b72b f   LWorld.obj
 0001:0007a750       __unwindfunclet$_main$0    0047b750 f   net.obj
 0001:0007a75b       __ehhandler$_main          0047b75b f   net.obj
 0001:0007a780       __unwindfunclet$??1Database@@QAE@XZ$0 0047b780 f   database.obj
 0001:0007a788       __ehhandler$??1Database@@QAE@XZ 0047b788 f   database.obj
 0001:0007a7b0       __unwindfunclet$?SendPacket@TCPConnection@@UAE_NPBVServerPacket@@I@Z$0 0047b7b0 f   database.obj
 0001:0007a7b0       __unwindfunclet$?RunQuery@DBcore@@QAE_NPBDIPADPAPAUst_mysql_res@@PAI33_N@Z$0 0047b7b0 f   database.obj
 0001:0007a7b0       __unwindfunclet$?Open@DBcore@@IAE_NPBD000PAIPAD_N3@Z$0 0047b7b0 f   database.obj
 0001:0007a7b0       __unwindfunclet$?LoadVariables_result@Database@@QAE_NPAUst_mysql_res@@@Z$0 0047b7b0 f   database.obj
 0001:0007a7b0       __unwindfunclet$?GetVariable@Database@@QAE_NPBDPADG@Z$0 0047b7b0 f   database.obj
 0001:0007a7b0       __unwindfunclet$?SendPacket@TCPConnection@@UAE_NPBUTCPNetPacket_Struct@1@@Z$0 0047b7b0 f   database.obj
 0001:0007a7b0       __unwindfunclet$?Open@DBcore@@AAE_NPAIPAD@Z$0 0047b7b0 f   database.obj
 0001:0007a7b8       __ehhandler$?GetVariable@Database@@QAE_NPBDPADG@Z 0047b7b8 f   database.obj
 0001:0007a7b8       __ehhandler$?LoadVariables_result@Database@@QAE_NPAUst_mysql_res@@@Z 0047b7b8 f   database.obj
 0001:0007a7b8       __ehhandler$?RunQuery@DBcore@@QAE_NPBDIPADPAPAUst_mysql_res@@PAI33_N@Z 0047b7b8 f   database.obj
 0001:0007a7b8       __ehhandler$?Open@DBcore@@IAE_NPBD000PAIPAD_N3@Z 0047b7b8 f   database.obj
 0001:0007a7b8       __ehhandler$?Open@DBcore@@AAE_NPAIPAD@Z 0047b7b8 f   database.obj
 0001:0007a7b8       __ehhandler$?SendPacket@TCPConnection@@UAE_NPBUTCPNetPacket_Struct@1@@Z 0047b7b8 f   database.obj
 0001:0007a7b8       __ehhandler$?SendPacket@TCPConnection@@UAE_NPBVServerPacket@@I@Z 0047b7b8 f   database.obj
 0001:0007a7e0       __unwindfunclet$??0Database@@QAE@XZ$0 0047b7e0 f   database.obj
 0001:0007a7eb       __unwindfunclet$??0Database@@QAE@XZ$1 0047b7eb f   database.obj
 0001:0007a7fc       __ehhandler$??0Database@@QAE@XZ 0047b7fc f   database.obj
 0001:0007a830       __unwindfunclet$?LoadVariables@Database@@QAE_NXZ$0 0047b830 f   database.obj
 0001:0007a83b       __ehhandler$?LoadVariables@Database@@QAE_NXZ 0047b83b f   database.obj
 0001:0007a870       __unwindfunclet$??0EQEMuLog@@QAE@XZ$0 0047b870 f   debug.obj
 0001:0007a87b       __unwindfunclet$??0EQEMuLog@@QAE@XZ$1 0047b87b f   debug.obj
 0001:0007a886       __ehhandler$??0EQEMuLog@@QAE@XZ 0047b886 f   debug.obj
 0001:0007a8b0       __unwindfunclet$?open@EQEMuLog@@AAE_NW4LogIDs@1@@Z$0 0047b8b0 f   debug.obj
 0001:0007a8bb       __ehhandler$?open@EQEMuLog@@AAE_NW4LogIDs@1@@Z 0047b8bb f   debug.obj
 0001:0007a8f0       __unwindfunclet$??__ELogFile@@YAXXZ$0 0047b8f0 f   debug.obj
 0001:0007a8fb       __ehhandler$??__ELogFile@@YAXXZ 0047b8fb f   debug.obj
 0001:0007a920       __unwindfunclet$?SendPacket@LWorld@@QAEXPAVServerPacket@@@Z$0 0047b920 f   EQNetwork.obj
 0001:0007a920       __unwindfunclet$?UpdateWorldList@LWorld@@QAEXPAV1@@Z$0 0047b920 f   EQNetwork.obj
 0001:0007a920       __unwindfunclet$??1LWorld@@QAE@XZ$0 0047b920 f   EQNetwork.obj
 0001:0007a920       __unwindfunclet$?Copy@APPLAYER@@QBEPAV1@XZ$0 0047b920 f   EQNetwork.obj
 0001:0007a92b       __ehhandler$??1LWorld@@QAE@XZ 0047b92b f   EQNetwork.obj
 0001:0007a92b       __ehhandler$?UpdateWorldList@LWorld@@QAEXPAV1@@Z 0047b92b f   EQNetwork.obj
 0001:0007a92b       __ehhandler$?SendPacket@LWorld@@QAEXPAVServerPacket@@@Z 0047b92b f   EQNetwork.obj
 0001:0007a92b       __ehhandler$?Copy@APPLAYER@@QBEPAV1@XZ 0047b92b f   EQNetwork.obj
 0001:0007a950       __unwindfunclet$??0EQNetworkFragmentGroup@@QAE@GG@Z$0 0047b950 f   EQNetwork.obj
 0001:0007a95b       __ehhandler$??0EQNetworkFragmentGroup@@QAE@GG@Z 0047b95b f   EQNetwork.obj
 0001:0007a980       __unwindfunclet$??0EQNetworkServer@@QAE@G@Z$0 0047b980 f   EQNetwork.obj
 0001:0007a98e       __unwindfunclet$??0EQNetworkServer@@QAE@G@Z$1 0047b98e f   EQNetwork.obj
 0001:0007a99c       __unwindfunclet$??0EQNetworkServer@@QAE@G@Z$2 0047b99c f   EQNetwork.obj
 0001:0007a9aa       __unwindfunclet$??0EQNetworkServer@@QAE@G@Z$3 0047b9aa f   EQNetwork.obj
 0001:0007a9b8       __ehhandler$??0EQNetworkServer@@QAE@G@Z 0047b9b8 f   EQNetwork.obj
 0001:0007a9e0       __unwindfunclet$??1EQNetworkServer@@UAE@XZ$0 0047b9e0 f   EQNetwork.obj
 0001:0007a9eb       __unwindfunclet$??1EQNetworkServer@@UAE@XZ$1 0047b9eb f   EQNetwork.obj
 0001:0007a9f6       __unwindfunclet$??1EQNetworkServer@@UAE@XZ$2 0047b9f6 f   EQNetwork.obj
 0001:0007aa01       __unwindfunclet$??1EQNetworkServer@@UAE@XZ$3 0047ba01 f   EQNetwork.obj
 0001:0007aa0c       __ehhandler$??1EQNetworkServer@@UAE@XZ 0047ba0c f   EQNetwork.obj
 0001:0007aa30       __unwindfunclet$??0EQNetworkConnection@@QAE@IG@Z$0 0047ba30 f   EQNetwork.obj
 0001:0007aa3b       __unwindfunclet$??0EQNetworkConnection@@QAE@IG@Z$1 0047ba3b f   EQNetwork.obj
 0001:0007aa46       __unwindfunclet$??0EQNetworkConnection@@QAE@IG@Z$14 0047ba46 f   EQNetwork.obj
 0001:0007aa51       __unwindfunclet$??0EQNetworkConnection@@QAE@IG@Z$15 0047ba51 f   EQNetwork.obj
 0001:0007aa5c       __unwindfunclet$??0EQNetworkConnection@@QAE@IG@Z$2 0047ba5c f   EQNetwork.obj
 0001:0007aa67       __unwindfunclet$??0EQNetworkConnection@@QAE@IG@Z$3 0047ba67 f   EQNetwork.obj
 0001:0007aa72       __unwindfunclet$??0EQNetworkConnection@@QAE@IG@Z$4 0047ba72 f   EQNetwork.obj
 0001:0007aa7d       __unwindfunclet$??0EQNetworkConnection@@QAE@IG@Z$5 0047ba7d f   EQNetwork.obj
 0001:0007aa8b       __unwindfunclet$??0EQNetworkConnection@@QAE@IG@Z$6 0047ba8b f   EQNetwork.obj
 0001:0007aa99       __unwindfunclet$??0EQNetworkConnection@@QAE@IG@Z$7 0047ba99 f   EQNetwork.obj
 0001:0007aaa7       __unwindfunclet$??0EQNetworkConnection@@QAE@IG@Z$8 0047baa7 f   EQNetwork.obj
 0001:0007aab5       __unwindfunclet$??0EQNetworkConnection@@QAE@IG@Z$9 0047bab5 f   EQNetwork.obj
 0001:0007aac3       __unwindfunclet$??0EQNetworkConnection@@QAE@IG@Z$10 0047bac3 f   EQNetwork.obj
 0001:0007aace       __unwindfunclet$??0EQNetworkConnection@@QAE@IG@Z$11 0047bace f   EQNetwork.obj
 0001:0007aad9       __unwindfunclet$??0EQNetworkConnection@@QAE@IG@Z$12 0047bad9 f   EQNetwork.obj
 0001:0007aae4       __unwindfunclet$??0EQNetworkConnection@@QAE@IG@Z$13 0047bae4 f   EQNetwork.obj
 0001:0007aaef       __ehhandler$??0EQNetworkConnection@@QAE@IG@Z 0047baef f   EQNetwork.obj
 0001:0007ab10       __unwindfunclet$?GotPacket@EQNetworkFragmentGroupList@@QAEPAVEQNetworkFragmentGroup@@PAVEQNetworkPacket@@@Z$0 0047bb10 f   EQNetwork.obj
 0001:0007ab1b       __ehhandler$?GotPacket@EQNetworkFragmentGroupList@@QAEPAVEQNetworkFragmentGroup@@PAVEQNetworkPacket@@@Z 0047bb1b f   EQNetwork.obj
 0001:0007ab40       __unwindfunclet$?Process@EQNetworkConnection@@IAEXI@Z$0 0047bb40 f   EQNetwork.obj
 0001:0007ab48       __ehhandler$?Process@EQNetworkConnection@@IAEXI@Z 0047bb48 f   EQNetwork.obj
 0001:0007ab70       __unwindfunclet$?CloseSock@EQNetworkConnection@@QAEXXZ$0 0047bb70 f   EQNetwork.obj
 0001:0007ab78       __ehhandler$?CloseSock@EQNetworkConnection@@QAEXXZ 0047bb78 f   EQNetwork.obj
 0001:0007aba0       __unwindfunclet$??1EQNetworkConnection@@UAE@XZ$0 0047bba0 f   EQNetwork.obj
 0001:0007abab       __unwindfunclet$??1EQNetworkConnection@@UAE@XZ$1 0047bbab f   EQNetwork.obj
 0001:0007abb6       __unwindfunclet$??1EQNetworkConnection@@UAE@XZ$2 0047bbb6 f   EQNetwork.obj
 0001:0007abc1       __unwindfunclet$??1EQNetworkConnection@@UAE@XZ$3 0047bbc1 f   EQNetwork.obj
 0001:0007abcc       __unwindfunclet$??1EQNetworkConnection@@UAE@XZ$4 0047bbcc f   EQNetwork.obj
 0001:0007abd7       __unwindfunclet$??1EQNetworkConnection@@UAE@XZ$5 0047bbd7 f   EQNetwork.obj
 0001:0007abe5       __unwindfunclet$??1EQNetworkConnection@@UAE@XZ$6 0047bbe5 f   EQNetwork.obj
 0001:0007abf3       __unwindfunclet$??1EQNetworkConnection@@UAE@XZ$7 0047bbf3 f   EQNetwork.obj
 0001:0007ac01       __unwindfunclet$??1EQNetworkConnection@@UAE@XZ$8 0047bc01 f   EQNetwork.obj
 0001:0007ac0f       __unwindfunclet$??1EQNetworkConnection@@UAE@XZ$9 0047bc0f f   EQNetwork.obj
 0001:0007ac1d       __ehhandler$??1EQNetworkConnection@@UAE@XZ 0047bc1d f   EQNetwork.obj
 0001:0007ac40       __unwindfunclet$?ProcessPacket@EQNetworkConnection@@AAE_NPAVEQNetworkPacket@@_N@Z$0 0047bc40 f   EQNetwork.obj
 0001:0007ac40       __unwindfunclet$?RecvData@EQNetworkConnection@@QAEXPAEI@Z$1 0047bc40 f   EQNetwork.obj
 0001:0007ac4b       __unwindfunclet$?ProcessPacket@EQNetworkConnection@@AAE_NPAVEQNetworkPacket@@_N@Z$1 0047bc4b f   EQNetwork.obj
 0001:0007ac4b       __unwindfunclet$?RecvData@EQNetworkConnection@@QAEXPAEI@Z$2 0047bc4b f   EQNetwork.obj
 0001:0007ac56       __ehhandler$?ProcessPacket@EQNetworkConnection@@AAE_NPAVEQNetworkPacket@@_N@Z 0047bc56 f   EQNetwork.obj
 0001:0007ac56       __ehhandler$?RecvData@EQNetworkConnection@@QAEXPAEI@Z 0047bc56 f   EQNetwork.obj
 0001:0007ac80       __unwindfunclet$?Open@EQNetworkServer@@QAE_NG@Z$0 0047bc80 f   EQNetwork.obj
 0001:0007ac88       __ehhandler$?Open@EQNetworkServer@@QAE_NG@Z 0047bc88 f   EQNetwork.obj
 0001:0007acb0       __unwindfunclet$?SendNetErrorPacket@TCPConnection@@AAEXPBD@Z$0 0047bcb0 f   TCPConnection.obj
 0001:0007acbb       __ehhandler$?SendNetErrorPacket@TCPConnection@@AAEXPBD@Z 0047bcbb f   TCPConnection.obj
 0001:0007ace0       __unwindfunclet$?RemoveRelay@TCPConnection@@IAEXPAV1@_N@Z$0 0047bce0 f   TCPConnection.obj
 0001:0007aceb       __ehhandler$?RemoveRelay@TCPConnection@@IAEXPAV1@_N@Z 0047bceb f   TCPConnection.obj
 0001:0007ad10       __unwindfunclet$?Open@TCPServer@@QAE_NGPAD@Z$0 0047bd10 f   TCPConnection.obj
 0001:0007ad18       __ehhandler$?Open@TCPServer@@QAE_NGPAD@Z 0047bd18 f   TCPConnection.obj
 0001:0007ad40       __unwindfunclet$?ClearBuffers@TCPConnection@@AAEXXZ$0 0047bd40 f   TCPConnection.obj
 0001:0007ad48       __unwindfunclet$?ClearBuffers@TCPConnection@@AAEXXZ$1 0047bd48 f   TCPConnection.obj
 0001:0007ad50       __unwindfunclet$?ClearBuffers@TCPConnection@@AAEXXZ$2 0047bd50 f   TCPConnection.obj
 0001:0007ad58       __unwindfunclet$?ClearBuffers@TCPConnection@@AAEXXZ$3 0047bd58 f   TCPConnection.obj
 0001:0007ad60       __ehhandler$?ClearBuffers@TCPConnection@@AAEXXZ 0047bd60 f   TCPConnection.obj
 0001:0007ad80       __unwindfunclet$??0TCPConnection@@QAE@_NPAVTCPServer@@W4eTCPMode@@@Z$0 0047bd80 f   TCPConnection.obj
 0001:0007ad8b       __unwindfunclet$??0TCPConnection@@QAE@_NPAVTCPServer@@W4eTCPMode@@@Z$1 0047bd8b f   TCPConnection.obj
 0001:0007ad96       __unwindfunclet$??0TCPConnection@@QAE@_NPAVTCPServer@@W4eTCPMode@@@Z$2 0047bd96 f   TCPConnection.obj
 0001:0007ada1       __unwindfunclet$??0TCPConnection@@QAE@_NPAVTCPServer@@W4eTCPMode@@@Z$3 0047bda1 f   TCPConnection.obj
 0001:0007adaf       __unwindfunclet$??0TCPConnection@@QAE@_NPAVTCPServer@@W4eTCPMode@@@Z$4 0047bdaf f   TCPConnection.obj
 0001:0007adbd       __unwindfunclet$??0TCPConnection@@QAE@_NPAVTCPServer@@W4eTCPMode@@@Z$5 0047bdbd f   TCPConnection.obj
 0001:0007adcb       __unwindfunclet$??0TCPConnection@@QAE@_NPAVTCPServer@@W4eTCPMode@@@Z$6 0047bdcb f   TCPConnection.obj
 0001:0007add9       __unwindfunclet$??0TCPConnection@@QAE@_NPAVTCPServer@@W4eTCPMode@@@Z$7 0047bdd9 f   TCPConnection.obj
 0001:0007ade7       __unwindfunclet$??0TCPConnection@@QAE@_NPAVTCPServer@@W4eTCPMode@@@Z$8 0047bde7 f   TCPConnection.obj
 0001:0007adf5       __unwindfunclet$??0TCPConnection@@QAE@_NPAVTCPServer@@W4eTCPMode@@@Z$9 0047bdf5 f   TCPConnection.obj
 0001:0007ae03       __unwindfunclet$??0TCPConnection@@QAE@_NPAVTCPServer@@W4eTCPMode@@@Z$10 0047be03 f   TCPConnection.obj
 0001:0007ae0e       __unwindfunclet$??0TCPConnection@@QAE@_NPAVTCPServer@@W4eTCPMode@@@Z$11 0047be0e f   TCPConnection.obj
 0001:0007ae19       __ehhandler$??0TCPConnection@@QAE@_NPAVTCPServer@@W4eTCPMode@@@Z 0047be19 f   TCPConnection.obj
 0001:0007ae40       __unwindfunclet$??0TCPConnection@@QAE@PAVTCPServer@@IIG_N@Z$0 0047be40 f   TCPConnection.obj
 0001:0007ae4b       __unwindfunclet$??0TCPConnection@@QAE@PAVTCPServer@@IIG_N@Z$1 0047be4b f   TCPConnection.obj
 0001:0007ae56       __unwindfunclet$??0TCPConnection@@QAE@PAVTCPServer@@IIG_N@Z$2 0047be56 f   TCPConnection.obj
 0001:0007ae61       __unwindfunclet$??0TCPConnection@@QAE@PAVTCPServer@@IIG_N@Z$3 0047be61 f   TCPConnection.obj
 0001:0007ae6f       __unwindfunclet$??0TCPConnection@@QAE@PAVTCPServer@@IIG_N@Z$4 0047be6f f   TCPConnection.obj
 0001:0007ae7d       __unwindfunclet$??0TCPConnection@@QAE@PAVTCPServer@@IIG_N@Z$5 0047be7d f   TCPConnection.obj
 0001:0007ae8b       __unwindfunclet$??0TCPConnection@@QAE@PAVTCPServer@@IIG_N@Z$6 0047be8b f   TCPConnection.obj
 0001:0007ae99       __unwindfunclet$??0TCPConnection@@QAE@PAVTCPServer@@IIG_N@Z$7 0047be99 f   TCPConnection.obj
 0001:0007aea7       __unwindfunclet$??0TCPConnection@@QAE@PAVTCPServer@@IIG_N@Z$8 0047bea7 f   TCPConnection.obj
 0001:0007aeb5       __unwindfunclet$??0TCPConnection@@QAE@PAVTCPServer@@IIG_N@Z$9 0047beb5 f   TCPConnection.obj
 0001:0007aec3       __unwindfunclet$??0TCPConnection@@QAE@PAVTCPServer@@IIG_N@Z$10 0047bec3 f   TCPConnection.obj
 0001:0007aece       __unwindfunclet$??0TCPConnection@@QAE@PAVTCPServer@@IIG_N@Z$11 0047bece f   TCPConnection.obj
 0001:0007aed9       __ehhandler$??0TCPConnection@@QAE@PAVTCPServer@@IIG_N@Z 0047bed9 f   TCPConnection.obj
 0001:0007af00       __unwindfunclet$?ProcessReceivedDataAsOldPackets@TCPConnection@@AAE_NPAD@Z$0 0047bf00 f   TCPConnection.obj
 0001:0007af0b       __ehhandler$?ProcessReceivedDataAsOldPackets@TCPConnection@@AAE_NPAD@Z 0047bf0b f   TCPConnection.obj
 0001:0007af30       __unwindfunclet$??1TCPServer@@UAE@XZ$0 0047bf30 f   TCPConnection.obj
 0001:0007af3b       __unwindfunclet$??1TCPServer@@UAE@XZ$1 0047bf3b f   TCPConnection.obj
 0001:0007af46       __unwindfunclet$??1TCPServer@@UAE@XZ$2 0047bf46 f   TCPConnection.obj
 0001:0007af51       __unwindfunclet$??1TCPServer@@UAE@XZ$3 0047bf51 f   TCPConnection.obj
 0001:0007af5c       __unwindfunclet$??1TCPServer@@UAE@XZ$4 0047bf5c f   TCPConnection.obj
 0001:0007af67       __unwindfunclet$??1TCPServer@@UAE@XZ$5 0047bf67 f   TCPConnection.obj
 0001:0007af75       __unwindfunclet$??1TCPServer@@UAE@XZ$6 0047bf75 f   TCPConnection.obj
 0001:0007af83       __ehhandler$??1TCPServer@@UAE@XZ 0047bf83 f   TCPConnection.obj
 0001:0007afa0       __unwindfunclet$?ListenNewConnections@TCPServer@@AAEXXZ$0 0047bfa0 f   TCPConnection.obj
 0001:0007afa8       __unwindfunclet$?ListenNewConnections@TCPServer@@AAEXXZ$1 0047bfa8 f   TCPConnection.obj
 0001:0007afb3       __ehhandler$?ListenNewConnections@TCPServer@@AAEXXZ 0047bfb3 f   TCPConnection.obj
 0001:0007afe0       __unwindfunclet$??0TCPConnection@@QAE@PAVTCPServer@@PAV0@IIG@Z$0 0047bfe0 f   TCPConnection.obj
 0001:0007afeb       __unwindfunclet$??0TCPConnection@@QAE@PAVTCPServer@@PAV0@IIG@Z$1 0047bfeb f   TCPConnection.obj
 0001:0007aff6       __unwindfunclet$??0TCPConnection@@QAE@PAVTCPServer@@PAV0@IIG@Z$2 0047bff6 f   TCPConnection.obj
 0001:0007b001       __unwindfunclet$??0TCPConnection@@QAE@PAVTCPServer@@PAV0@IIG@Z$3 0047c001 f   TCPConnection.obj
 0001:0007b00f       __unwindfunclet$??0TCPConnection@@QAE@PAVTCPServer@@PAV0@IIG@Z$4 0047c00f f   TCPConnection.obj
 0001:0007b01d       __unwindfunclet$??0TCPConnection@@QAE@PAVTCPServer@@PAV0@IIG@Z$5 0047c01d f   TCPConnection.obj
 0001:0007b02b       __unwindfunclet$??0TCPConnection@@QAE@PAVTCPServer@@PAV0@IIG@Z$6 0047c02b f   TCPConnection.obj
 0001:0007b039       __unwindfunclet$??0TCPConnection@@QAE@PAVTCPServer@@PAV0@IIG@Z$7 0047c039 f   TCPConnection.obj
 0001:0007b047       __unwindfunclet$??0TCPConnection@@QAE@PAVTCPServer@@PAV0@IIG@Z$8 0047c047 f   TCPConnection.obj
 0001:0007b055       __unwindfunclet$??0TCPConnection@@QAE@PAVTCPServer@@PAV0@IIG@Z$9 0047c055 f   TCPConnection.obj
 0001:0007b063       __ehhandler$??0TCPConnection@@QAE@PAVTCPServer@@PAV0@IIG@Z 0047c063 f   TCPConnection.obj
 0001:0007b080       __unwindfunclet$??0Client@@QAE@PAVEQNetworkConnection@@@Z$0 0047c080 f   TCPConnection.obj
 0001:0007b080       __unwindfunclet$?ProcessNetworkLayerPacket@TCPConnection@@AAEXPAVServerPacket@@@Z$0 0047c080 f   TCPConnection.obj
 0001:0007b08b       __ehhandler$?ProcessNetworkLayerPacket@TCPConnection@@AAEXPAVServerPacket@@@Z 0047c08b f   TCPConnection.obj
 0001:0007b08b       __ehhandler$??0Client@@QAE@PAVEQNetworkConnection@@@Z 0047c08b f   TCPConnection.obj
 0001:0007b0b0       __unwindfunclet$?ProcessReceivedDataAsPackets@TCPConnection@@AAE_NPAD@Z$0 0047c0b0 f   TCPConnection.obj
 0001:0007b0bb       __ehhandler$?ProcessReceivedDataAsPackets@TCPConnection@@AAE_NPAD@Z 0047c0bb f   TCPConnection.obj
 0001:0007b0e0       __unwindfunclet$??0TCPServer@@QAE@G_N@Z$0 0047c0e0 f   TCPConnection.obj
 0001:0007b0eb       __unwindfunclet$??0TCPServer@@QAE@G_N@Z$1 0047c0eb f   TCPConnection.obj
 0001:0007b0f6       __unwindfunclet$??0TCPServer@@QAE@G_N@Z$2 0047c0f6 f   TCPConnection.obj
 0001:0007b101       __unwindfunclet$??0TCPServer@@QAE@G_N@Z$3 0047c101 f   TCPConnection.obj
 0001:0007b10c       __unwindfunclet$??0TCPServer@@QAE@G_N@Z$4 0047c10c f   TCPConnection.obj
 0001:0007b117       __unwindfunclet$??0TCPServer@@QAE@G_N@Z$5 0047c117 f   TCPConnection.obj
 0001:0007b125       __unwindfunclet$??0TCPServer@@QAE@G_N@Z$6 0047c125 f   TCPConnection.obj
 0001:0007b133       __ehhandler$??0TCPServer@@QAE@G_N@Z 0047c133 f   TCPConnection.obj
 0001:0007b150       __unwindfunclet$??1TCPConnection@@UAE@XZ$0 0047c150 f   TCPConnection.obj
 0001:0007b15b       __unwindfunclet$??1TCPConnection@@UAE@XZ$1 0047c15b f   TCPConnection.obj
 0001:0007b166       __unwindfunclet$??1TCPConnection@@UAE@XZ$2 0047c166 f   TCPConnection.obj
 0001:0007b171       __unwindfunclet$??1TCPConnection@@UAE@XZ$3 0047c171 f   TCPConnection.obj
 0001:0007b17f       __unwindfunclet$??1TCPConnection@@UAE@XZ$4 0047c17f f   TCPConnection.obj
 0001:0007b18d       __unwindfunclet$??1TCPConnection@@UAE@XZ$5 0047c18d f   TCPConnection.obj
 0001:0007b19b       __unwindfunclet$??1TCPConnection@@UAE@XZ$6 0047c19b f   TCPConnection.obj
 0001:0007b1a9       __unwindfunclet$??1TCPConnection@@UAE@XZ$7 0047c1a9 f   TCPConnection.obj
 0001:0007b1b7       __unwindfunclet$??1TCPConnection@@UAE@XZ$8 0047c1b7 f   TCPConnection.obj
 0001:0007b1c5       __unwindfunclet$??1TCPConnection@@UAE@XZ$9 0047c1c5 f   TCPConnection.obj
 0001:0007b1d3       __ehhandler$??1TCPConnection@@UAE@XZ 0047c1d3 f   TCPConnection.obj
 0001:0007b1ee       __unwindfunclet$?_Locimp_dtor@_Locimp@locale@std@@CAXPAV123@@Z$0 0047c1ee f   libcpmt:locale0.obj
 0001:0007b1ee       __unwindfunclet$??1_Fac_tidy_reg_t@std@@QAE@XZ$0 0047c1ee f   libcpmt:locale0.obj
 0001:0007b1ee       __unwindfunclet$?_Init@locale@std@@CAPAV_Locimp@12@XZ$0 0047c1ee f   libcpmt:locale0.obj
 0001:0007b1f6       __ehhandler$?_Locimp_dtor@_Locimp@locale@std@@CAXPAV123@@Z 0047c1f6 f   libcpmt:locale0.obj
 0001:0007b1f6       __ehhandler$?_Init@locale@std@@CAPAV_Locimp@12@XZ 0047c1f6 f   libcpmt:locale0.obj
 0001:0007b1f6       __ehhandler$??1_Fac_tidy_reg_t@std@@QAE@XZ 0047c1f6 f   libcpmt:locale0.obj
 0001:0007b211       __unwindfunclet$??1_Locimp@locale@std@@MAE@XZ$0 0047c211 f   libcpmt:locale0.obj
 0001:0007b219       __unwindfunclet$??1_Locimp@locale@std@@MAE@XZ$1 0047c219 f   libcpmt:locale0.obj
 0001:0007b224       __ehhandler$??1_Locimp@locale@std@@MAE@XZ 0047c224 f   libcpmt:locale0.obj
 0001:0007b23f       __unwindfunclet$??0?$basic_streambuf@DU?$char_traits@D@std@@@std@@IAE@XZ$0 0047c23f f   libcpmt:cout.obj
 0001:0007b24a       __ehhandler$??0?$basic_streambuf@DU?$char_traits@D@std@@@std@@IAE@XZ 0047c24a f   libcpmt:cout.obj
 0001:0007b265       __unwindfunclet$?_Getcat@?$ctype@D@std@@SAIPAPBVfacet@locale@2@PBV42@@Z$0 0047c265 f   libcpmt:cout.obj
 0001:0007b265       __unwindfunclet$?_Getcat@?$codecvt@DDH@std@@SAIPAPBVfacet@locale@2@PBV42@@Z$0 0047c265 f   libcpmt:cout.obj
 0001:0007b26f       __ehhandler$?_Getcat@?$ctype@D@std@@SAIPAPBVfacet@locale@2@PBV42@@Z 0047c26f f   libcpmt:cout.obj
 0001:0007b26f       __ehhandler$?_Getcat@?$codecvt@DDH@std@@SAIPAPBVfacet@locale@2@PBV42@@Z 0047c26f f   libcpmt:cout.obj
 0001:0007b28a       __unwindfunclet$?widen@?$basic_ios@DU?$char_traits@D@std@@@std@@QBEDD@Z$0 0047c28a f   libcpmt:cout.obj
 0001:0007b292       __ehhandler$?widen@?$basic_ios@DU?$char_traits@D@std@@@std@@QBEDD@Z 0047c292 f   libcpmt:cout.obj
 0001:0007b2ad       __unwindfunclet$??$use_facet@V?$codecvt@DDH@std@@@std@@YAABV?$codecvt@DDH@0@ABVlocale@0@@Z$0 0047c2ad f   libcpmt:cout.obj
 0001:0007b2ad       __unwindfunclet$??$use_facet@V?$ctype@D@std@@@std@@YAABV?$ctype@D@0@ABVlocale@0@@Z$0 0047c2ad f   libcpmt:cout.obj
 0001:0007b2b5       __ehhandler$??$use_facet@V?$codecvt@DDH@std@@@std@@YAABV?$codecvt@DDH@0@ABVlocale@0@@Z 0047c2b5 f   libcpmt:cout.obj
 0001:0007b2b5       __ehhandler$??$use_facet@V?$ctype@D@std@@@std@@YAABV?$ctype@D@0@ABVlocale@0@@Z 0047c2b5 f   libcpmt:cout.obj
 0001:0007b2d0       __unwindfunclet$??0?$basic_ostream@DU?$char_traits@D@std@@@std@@QAE@PAV?$basic_streambuf@DU?$char_traits@D@std@@@1@_N@Z$0 0047c2d0 f   libcpmt:cout.obj
 0001:0007b2ec       __ehhandler$??0?$basic_ostream@DU?$char_traits@D@std@@@std@@QAE@PAV?$basic_streambuf@DU?$char_traits@D@std@@@1@_N@Z 0047c2ec f   libcpmt:cout.obj
 0001:0007b307       __unwindfunclet$?overflow@?$basic_filebuf@DU?$char_traits@D@std@@@std@@MAEHH@Z$0 0047c307 f   libcpmt:cout.obj
 0001:0007b307       __unwindfunclet$?uflow@?$basic_filebuf@DU?$char_traits@D@std@@@std@@MAEHXZ$0 0047c307 f   libcpmt:cout.obj
 0001:0007b30f       __ehhandler$?uflow@?$basic_filebuf@DU?$char_traits@D@std@@@std@@MAEHXZ 0047c30f f   libcpmt:cout.obj
 0001:0007b30f       __ehhandler$?overflow@?$basic_filebuf@DU?$char_traits@D@std@@@std@@MAEHH@Z 0047c30f f   libcpmt:cout.obj
 0001:0007b334       __unwindfunclet$?_Endwrite@?$basic_filebuf@DU?$char_traits@D@std@@@std@@IAE_NXZ$0 0047c334 f   libcpmt:cout.obj
 0001:0007b33c       __ehhandler$?_Endwrite@?$basic_filebuf@DU?$char_traits@D@std@@@std@@IAE_NXZ 0047c33c f   libcpmt:cout.obj
 0001:0007b361       __unwindfunclet$??1?$basic_filebuf@DU?$char_traits@D@std@@@std@@UAE@XZ$0 0047c361 f   libcpmt:cout.obj
 0001:0007b369       __ehhandler$??1?$basic_filebuf@DU?$char_traits@D@std@@@std@@UAE@XZ 0047c369 f   libcpmt:cout.obj
 0001:0007b384       __ehhandler$?CallUnexpected@@YAXPBU_s_ESTypeList@@@Z 0047c384 f   LIBCMT:frame.obj
 0001:0007b3a0       ??__Eeq_crypto@@YAXXZ      0047c3a0 f   client.obj
 0001:0007b3b0       ??__Edatabase@@YAXXZ       0047c3b0 f   net.obj
 0001:0007b3d0       ??__Eeqns@@YAXXZ           0047c3d0 f   net.obj
 0001:0007b3f0       ??__Enet@@YAXXZ            0047c3f0 f   net.obj
 0001:0007b400       ??__Eclient_list@@YAXXZ    0047c400 f   net.obj
 0001:0007b410       ??__Eworld_list@@YAXXZ     0047c410 f   net.obj
 0001:0007b430       ??__ELogFile@@YAXXZ        0047c430 f   debug.obj
 0001:0007b4a0       ??__Eadlf@@YAXXZ           0047c4a0 f   debug.obj
 0001:0007b4b0       ??__ETrylockSupported@@YAXXZ 0047c4b0 f   Mutex.obj
 0001:0007b4c0       ??__Ewinsock@@YAXXZ        0047c4c0 f   TCPConnection.obj
 0001:0007b4e0       ??__Es_RunAtStartupSetPentiumFunctionPointers@TaoCrypt@@YAXXZ 0047c4e0 f   mysqlclient:integer.obj
 0001:0007b4f0       ??__EisMMX@TaoCrypt@@YAXXZ 0047c4f0 f   mysqlclient:misc.obj
 0001:0007b4fb       ??__Einitlocks@std@@YAXXZ  0047c4fb f   libcpmt:xlock.obj
 0001:0007b511       ??__E_Fac_tidy_reg@std@@YAXXZ 0047c511 f   libcpmt:locale0.obj
 0001:0007b51d       ??__Eclassic_locale@std@@YAXXZ 0047c51d f   libcpmt:locale0.obj
 0001:0007b529       ??__E_Generic_object@std@@YAXXZ 0047c529 f   libcpmt:syserror.obj
 0001:0007b535       ??__E_Iostream_object@std@@YAXXZ 0047c535 f   libcpmt:syserror.obj
 0001:0007b541       ??__E_System_object@std@@YAXXZ 0047c541 f   libcpmt:syserror.obj
 0001:0007b54d       ??__Einitlocks@@YAXXZ      0047c54d f   libcpmt:cout.obj
 0001:0007b563       ??__Efout@std@@YAXXZ       0047c563 f   libcpmt:cout.obj
 0001:0007b59d       ??__Ecout@std@@YAXXZ       0047c59d f   libcpmt:cout.obj
 0001:0007b5bc       ??__Einit_cout@std@@YAXXZ  0047c5bc f   libcpmt:cout.obj
 0001:0007b5c6       ??__Einitlocks@@YAXXZ      0047c5c6 f   libcpmt:cerr.obj
 0001:0007b5dc       ??__Eferr@std@@YAXXZ       0047c5dc f   libcpmt:cerr.obj
 0001:0007b616       ??__Ecerr@std@@YAXXZ       0047c616 f   libcpmt:cerr.obj
 0001:0007b635       ??__Einit_cerr@std@@YAXXZ  0047c635 f   libcpmt:cerr.obj
 0001:0007b63f       ??__Einitlocks@std@@YAXXZ  0047c63f f   libcpmt:iosptrs.obj
 0001:0007b655       ??__Einit_atexit@@YAXXZ    0047c655 f   libcpmt:iosptrs.obj
 0001:0007b670       ??__Fdatabase@@YAXXZ       0047c670 f   net.obj
 0001:0007b680       ??__Feqns@@YAXXZ           0047c680 f   net.obj
 0001:0007b690       ??__Fworld_list@@YAXXZ     0047c690 f   net.obj
 0001:0007b6a0       ??__Fclient_list@@YAXXZ    0047c6a0 f   net.obj
 0001:0007b6c0       ??__Fadlf@@YAXXZ           0047c6c0 f   debug.obj
 0001:0007b6f0       ??__Fws@?1??ResolveIP@@YAIPBDPAD@Z@YAXXZ 0047c6f0 f   MiscFunctions.obj
 0001:0007b700       ??__Fwinsock@@YAXXZ        0047c700 f   TCPConnection.obj
 0001:0007b70a       ??__Finitlocks@std@@YAXXZ  0047c70a f   libcpmt:xlock.obj
 0001:0007b714       ??__Fclassic_locale@std@@YAXXZ 0047c714 f   libcpmt:locale0.obj
 0001:0007b71e       ??__F_Fac_tidy_reg@std@@YAXXZ 0047c71e f   libcpmt:locale0.obj
 0001:0007b728       ??__F_Generic_object@std@@YAXXZ 0047c728 f   libcpmt:syserror.obj
 0001:0007b733       ??__F_Iostream_object@std@@YAXXZ 0047c733 f   libcpmt:syserror.obj
 0001:0007b73e       ??__F_System_object@std@@YAXXZ 0047c73e f   libcpmt:syserror.obj
 0001:0007b749       ??__Finitlocks@@YAXXZ      0047c749 f   libcpmt:cout.obj
 0001:0007b753       ??__Fcout@std@@YAXXZ       0047c753 f   libcpmt:cout.obj
 0001:0007b75d       ??__Ffout@std@@YAXXZ       0047c75d f   libcpmt:cout.obj
 0001:0007b767       ??__Finitlocks@@YAXXZ      0047c767 f   libcpmt:cerr.obj
 0001:0007b771       ??__Fcerr@std@@YAXXZ       0047c771 f   libcpmt:cerr.obj
 0001:0007b77b       ??__Fferr@std@@YAXXZ       0047c77b f   libcpmt:cerr.obj
 0001:0007b785       ??__Finitlocks@std@@YAXXZ  0047c785 f   libcpmt:iosptrs.obj
 0001:0007b78f       ??__Finit_atexit@@YAXXZ    0047c78f f   libcpmt:iosptrs.obj
 0001:0007b799       ??__Fnomem@?5???2@YAPAXI@Z@YAXXZ 0047c799 f   LIBCMT:new.obj
